
bottom-can.elf:     file format elf32-littlearm

Sections:
Idx Name          Size      VMA       LMA       File off  Algn
  0 .isr_vector   000001d8  08000000  08000000  00001000  2**0
                  CONTENTS, ALLOC, LOAD, READONLY, DATA
  1 .text         00007570  080001d8  080001d8  000011d8  2**2
                  CONTENTS, ALLOC, LOAD, READONLY, CODE
  2 .rodata       000000e0  08007748  08007748  00008748  2**2
                  CONTENTS, ALLOC, LOAD, READONLY, DATA
  3 .ARM.extab    00000000  08007828  08007828  00009130  2**0
                  CONTENTS, READONLY
  4 .ARM          00000008  08007828  08007828  00008828  2**2
                  CONTENTS, ALLOC, LOAD, READONLY, DATA
  5 .preinit_array 00000000  08007830  08007830  00009130  2**0
                  CONTENTS, ALLOC, LOAD, DATA
  6 .init_array   00000004  08007830  08007830  00008830  2**2
                  CONTENTS, ALLOC, LOAD, READONLY, DATA
  7 .fini_array   00000004  08007834  08007834  00008834  2**2
                  CONTENTS, ALLOC, LOAD, READONLY, DATA
  8 .data         00000130  20000000  08007838  00009000  2**3
                  CONTENTS, ALLOC, LOAD, DATA
  9 .bss          00001014  20000130  08007968  00009130  2**2
                  ALLOC
 10 ._user_heap_stack 00001804  20001144  08007968  00009144  2**0
                  ALLOC
 11 .ARM.attributes 00000030  00000000  00000000  00009130  2**0
                  CONTENTS, READONLY
 12 .debug_info   00017e4c  00000000  00000000  00009160  2**0
                  CONTENTS, READONLY, DEBUGGING, OCTETS
 13 .debug_abbrev 00002e66  00000000  00000000  00020fac  2**0
                  CONTENTS, READONLY, DEBUGGING, OCTETS
 14 .debug_aranges 00001438  00000000  00000000  00023e18  2**3
                  CONTENTS, READONLY, DEBUGGING, OCTETS
 15 .debug_rnglists 00000f8e  00000000  00000000  00025250  2**0
                  CONTENTS, READONLY, DEBUGGING, OCTETS
 16 .debug_macro  0001f2b2  00000000  00000000  000261de  2**0
                  CONTENTS, READONLY, DEBUGGING, OCTETS
 17 .debug_line   000145f7  00000000  00000000  00045490  2**0
                  CONTENTS, READONLY, DEBUGGING, OCTETS
 18 .debug_str    000c353a  00000000  00000000  00059a87  2**0
                  CONTENTS, READONLY, DEBUGGING, OCTETS
 19 .comment      00000043  00000000  00000000  0011cfc1  2**0
                  CONTENTS, READONLY
 20 .debug_frame  000054b8  00000000  00000000  0011d004  2**2
                  CONTENTS, READONLY, DEBUGGING, OCTETS
 21 .debug_line_str 00000050  00000000  00000000  001224bc  2**0
                  CONTENTS, READONLY, DEBUGGING, OCTETS

Disassembly of section .text:

080001d8 <__do_global_dtors_aux>:
 80001d8:	b510      	push	{r4, lr}
 80001da:	4c05      	ldr	r4, [pc, #20]	@ (80001f0 <__do_global_dtors_aux+0x18>)
 80001dc:	7823      	ldrb	r3, [r4, #0]
 80001de:	b933      	cbnz	r3, 80001ee <__do_global_dtors_aux+0x16>
 80001e0:	4b04      	ldr	r3, [pc, #16]	@ (80001f4 <__do_global_dtors_aux+0x1c>)
 80001e2:	b113      	cbz	r3, 80001ea <__do_global_dtors_aux+0x12>
 80001e4:	4804      	ldr	r0, [pc, #16]	@ (80001f8 <__do_global_dtors_aux+0x20>)
 80001e6:	f3af 8000 	nop.w
 80001ea:	2301      	movs	r3, #1
 80001ec:	7023      	strb	r3, [r4, #0]
 80001ee:	bd10      	pop	{r4, pc}
 80001f0:	20000130 	.word	0x20000130
 80001f4:	00000000 	.word	0x00000000
 80001f8:	08007730 	.word	0x08007730

080001fc <frame_dummy>:
 80001fc:	b508      	push	{r3, lr}
 80001fe:	4b03      	ldr	r3, [pc, #12]	@ (800020c <frame_dummy+0x10>)
 8000200:	b11b      	cbz	r3, 800020a <frame_dummy+0xe>
 8000202:	4903      	ldr	r1, [pc, #12]	@ (8000210 <frame_dummy+0x14>)
 8000204:	4803      	ldr	r0, [pc, #12]	@ (8000214 <frame_dummy+0x18>)
 8000206:	f3af 8000 	nop.w
 800020a:	bd08      	pop	{r3, pc}
 800020c:	00000000 	.word	0x00000000
 8000210:	20000134 	.word	0x20000134
 8000214:	08007730 	.word	0x08007730

08000218 <strcmp>:
 8000218:	f810 2b01 	ldrb.w	r2, [r0], #1
 800021c:	f811 3b01 	ldrb.w	r3, [r1], #1
 8000220:	2a01      	cmp	r2, #1
 8000222:	bf28      	it	cs
 8000224:	429a      	cmpcs	r2, r3
 8000226:	d0f7      	beq.n	8000218 <strcmp>
 8000228:	1ad0      	subs	r0, r2, r3
 800022a:	4770      	bx	lr

0800022c <strlen>:
 800022c:	4603      	mov	r3, r0
 800022e:	f813 2b01 	ldrb.w	r2, [r3], #1
 8000232:	2a00      	cmp	r2, #0
 8000234:	d1fb      	bne.n	800022e <strlen+0x2>
 8000236:	1a18      	subs	r0, r3, r0
 8000238:	3801      	subs	r0, #1
 800023a:	4770      	bx	lr

0800023c <__aeabi_uldivmod>:
 800023c:	b953      	cbnz	r3, 8000254 <__aeabi_uldivmod+0x18>
 800023e:	b94a      	cbnz	r2, 8000254 <__aeabi_uldivmod+0x18>
 8000240:	2900      	cmp	r1, #0
 8000242:	bf08      	it	eq
 8000244:	2800      	cmpeq	r0, #0
 8000246:	bf1c      	itt	ne
 8000248:	f04f 31ff 	movne.w	r1, #4294967295	@ 0xffffffff
 800024c:	f04f 30ff 	movne.w	r0, #4294967295	@ 0xffffffff
 8000250:	f000 b988 	b.w	8000564 <__aeabi_idiv0>
 8000254:	f1ad 0c08 	sub.w	ip, sp, #8
 8000258:	e96d ce04 	strd	ip, lr, [sp, #-16]!
 800025c:	f000 f806 	bl	800026c <__udivmoddi4>
 8000260:	f8dd e004 	ldr.w	lr, [sp, #4]
 8000264:	e9dd 2302 	ldrd	r2, r3, [sp, #8]
 8000268:	b004      	add	sp, #16
 800026a:	4770      	bx	lr

0800026c <__udivmoddi4>:
 800026c:	e92d 47f0 	stmdb	sp!, {r4, r5, r6, r7, r8, r9, sl, lr}
 8000270:	9d08      	ldr	r5, [sp, #32]
 8000272:	460f      	mov	r7, r1
 8000274:	4604      	mov	r4, r0
 8000276:	468c      	mov	ip, r1
 8000278:	2b00      	cmp	r3, #0
 800027a:	d148      	bne.n	800030e <__udivmoddi4+0xa2>
 800027c:	428a      	cmp	r2, r1
 800027e:	4616      	mov	r6, r2
 8000280:	d961      	bls.n	8000346 <__udivmoddi4+0xda>
 8000282:	fab2 f382 	clz	r3, r2
 8000286:	b14b      	cbz	r3, 800029c <__udivmoddi4+0x30>
 8000288:	f1c3 0220 	rsb	r2, r3, #32
 800028c:	fa01 fc03 	lsl.w	ip, r1, r3
 8000290:	fa20 f202 	lsr.w	r2, r0, r2
 8000294:	409e      	lsls	r6, r3
 8000296:	ea42 0c0c 	orr.w	ip, r2, ip
 800029a:	409c      	lsls	r4, r3
 800029c:	ea4f 4e16 	mov.w	lr, r6, lsr #16
 80002a0:	b2b7      	uxth	r7, r6
 80002a2:	fbbc f1fe 	udiv	r1, ip, lr
 80002a6:	0c22      	lsrs	r2, r4, #16
 80002a8:	fb0e cc11 	mls	ip, lr, r1, ip
 80002ac:	ea42 420c 	orr.w	r2, r2, ip, lsl #16
 80002b0:	fb01 f007 	mul.w	r0, r1, r7
 80002b4:	4290      	cmp	r0, r2
 80002b6:	d909      	bls.n	80002cc <__udivmoddi4+0x60>
 80002b8:	18b2      	adds	r2, r6, r2
 80002ba:	f101 3cff 	add.w	ip, r1, #4294967295	@ 0xffffffff
 80002be:	f080 80ee 	bcs.w	800049e <__udivmoddi4+0x232>
 80002c2:	4290      	cmp	r0, r2
 80002c4:	f240 80eb 	bls.w	800049e <__udivmoddi4+0x232>
 80002c8:	3902      	subs	r1, #2
 80002ca:	4432      	add	r2, r6
 80002cc:	1a12      	subs	r2, r2, r0
 80002ce:	b2a4      	uxth	r4, r4
 80002d0:	fbb2 f0fe 	udiv	r0, r2, lr
 80002d4:	fb0e 2210 	mls	r2, lr, r0, r2
 80002d8:	ea44 4402 	orr.w	r4, r4, r2, lsl #16
 80002dc:	fb00 f707 	mul.w	r7, r0, r7
 80002e0:	42a7      	cmp	r7, r4
 80002e2:	d909      	bls.n	80002f8 <__udivmoddi4+0x8c>
 80002e4:	1934      	adds	r4, r6, r4
 80002e6:	f100 32ff 	add.w	r2, r0, #4294967295	@ 0xffffffff
 80002ea:	f080 80da 	bcs.w	80004a2 <__udivmoddi4+0x236>
 80002ee:	42a7      	cmp	r7, r4
 80002f0:	f240 80d7 	bls.w	80004a2 <__udivmoddi4+0x236>
 80002f4:	4434      	add	r4, r6
 80002f6:	3802      	subs	r0, #2
 80002f8:	ea40 4001 	orr.w	r0, r0, r1, lsl #16
 80002fc:	1be4      	subs	r4, r4, r7
 80002fe:	2100      	movs	r1, #0
 8000300:	b11d      	cbz	r5, 800030a <__udivmoddi4+0x9e>
 8000302:	40dc      	lsrs	r4, r3
 8000304:	2300      	movs	r3, #0
 8000306:	e9c5 4300 	strd	r4, r3, [r5]
 800030a:	e8bd 87f0 	ldmia.w	sp!, {r4, r5, r6, r7, r8, r9, sl, pc}
 800030e:	428b      	cmp	r3, r1
 8000310:	d906      	bls.n	8000320 <__udivmoddi4+0xb4>
 8000312:	b10d      	cbz	r5, 8000318 <__udivmoddi4+0xac>
 8000314:	e9c5 0100 	strd	r0, r1, [r5]
 8000318:	2100      	movs	r1, #0
 800031a:	4608      	mov	r0, r1
 800031c:	e8bd 87f0 	ldmia.w	sp!, {r4, r5, r6, r7, r8, r9, sl, pc}
 8000320:	fab3 f183 	clz	r1, r3
 8000324:	2900      	cmp	r1, #0
 8000326:	d148      	bne.n	80003ba <__udivmoddi4+0x14e>
 8000328:	42bb      	cmp	r3, r7
 800032a:	d302      	bcc.n	8000332 <__udivmoddi4+0xc6>
 800032c:	4282      	cmp	r2, r0
 800032e:	f200 8107 	bhi.w	8000540 <__udivmoddi4+0x2d4>
 8000332:	1a84      	subs	r4, r0, r2
 8000334:	eb67 0203 	sbc.w	r2, r7, r3
 8000338:	2001      	movs	r0, #1
 800033a:	4694      	mov	ip, r2
 800033c:	2d00      	cmp	r5, #0
 800033e:	d0e4      	beq.n	800030a <__udivmoddi4+0x9e>
 8000340:	e9c5 4c00 	strd	r4, ip, [r5]
 8000344:	e7e1      	b.n	800030a <__udivmoddi4+0x9e>
 8000346:	2a00      	cmp	r2, #0
 8000348:	f000 8092 	beq.w	8000470 <__udivmoddi4+0x204>
 800034c:	fab2 f382 	clz	r3, r2
 8000350:	2b00      	cmp	r3, #0
 8000352:	f040 80a8 	bne.w	80004a6 <__udivmoddi4+0x23a>
 8000356:	1a8a      	subs	r2, r1, r2
 8000358:	ea4f 4e16 	mov.w	lr, r6, lsr #16
 800035c:	fa1f fc86 	uxth.w	ip, r6
 8000360:	2101      	movs	r1, #1
 8000362:	0c20      	lsrs	r0, r4, #16
 8000364:	fbb2 f7fe 	udiv	r7, r2, lr
 8000368:	fb0e 2217 	mls	r2, lr, r7, r2
 800036c:	ea40 4202 	orr.w	r2, r0, r2, lsl #16
 8000370:	fb0c f007 	mul.w	r0, ip, r7
 8000374:	4290      	cmp	r0, r2
 8000376:	d907      	bls.n	8000388 <__udivmoddi4+0x11c>
 8000378:	18b2      	adds	r2, r6, r2
 800037a:	f107 38ff 	add.w	r8, r7, #4294967295	@ 0xffffffff
 800037e:	d202      	bcs.n	8000386 <__udivmoddi4+0x11a>
 8000380:	4290      	cmp	r0, r2
 8000382:	f200 80e2 	bhi.w	800054a <__udivmoddi4+0x2de>
 8000386:	4647      	mov	r7, r8
 8000388:	1a12      	subs	r2, r2, r0
 800038a:	b2a4      	uxth	r4, r4
 800038c:	fbb2 f0fe 	udiv	r0, r2, lr
 8000390:	fb0e 2210 	mls	r2, lr, r0, r2
 8000394:	ea44 4402 	orr.w	r4, r4, r2, lsl #16
 8000398:	fb0c fc00 	mul.w	ip, ip, r0
 800039c:	45a4      	cmp	ip, r4
 800039e:	d907      	bls.n	80003b0 <__udivmoddi4+0x144>
 80003a0:	1934      	adds	r4, r6, r4
 80003a2:	f100 32ff 	add.w	r2, r0, #4294967295	@ 0xffffffff
 80003a6:	d202      	bcs.n	80003ae <__udivmoddi4+0x142>
 80003a8:	45a4      	cmp	ip, r4
 80003aa:	f200 80cb 	bhi.w	8000544 <__udivmoddi4+0x2d8>
 80003ae:	4610      	mov	r0, r2
 80003b0:	eba4 040c 	sub.w	r4, r4, ip
 80003b4:	ea40 4007 	orr.w	r0, r0, r7, lsl #16
 80003b8:	e7a2      	b.n	8000300 <__udivmoddi4+0x94>
 80003ba:	f1c1 0620 	rsb	r6, r1, #32
 80003be:	408b      	lsls	r3, r1
 80003c0:	fa22 fc06 	lsr.w	ip, r2, r6
 80003c4:	ea4c 0c03 	orr.w	ip, ip, r3
 80003c8:	fa07 f401 	lsl.w	r4, r7, r1
 80003cc:	fa20 f306 	lsr.w	r3, r0, r6
 80003d0:	40f7      	lsrs	r7, r6
 80003d2:	ea4f 491c 	mov.w	r9, ip, lsr #16
 80003d6:	4323      	orrs	r3, r4
 80003d8:	fa00 f801 	lsl.w	r8, r0, r1
 80003dc:	fa1f fe8c 	uxth.w	lr, ip
 80003e0:	fbb7 f0f9 	udiv	r0, r7, r9
 80003e4:	0c1c      	lsrs	r4, r3, #16
 80003e6:	fb09 7710 	mls	r7, r9, r0, r7
 80003ea:	ea44 4407 	orr.w	r4, r4, r7, lsl #16
 80003ee:	fb00 f70e 	mul.w	r7, r0, lr
 80003f2:	42a7      	cmp	r7, r4
 80003f4:	fa02 f201 	lsl.w	r2, r2, r1
 80003f8:	d90a      	bls.n	8000410 <__udivmoddi4+0x1a4>
 80003fa:	eb1c 0404 	adds.w	r4, ip, r4
 80003fe:	f100 3aff 	add.w	sl, r0, #4294967295	@ 0xffffffff
 8000402:	f080 809b 	bcs.w	800053c <__udivmoddi4+0x2d0>
 8000406:	42a7      	cmp	r7, r4
 8000408:	f240 8098 	bls.w	800053c <__udivmoddi4+0x2d0>
 800040c:	3802      	subs	r0, #2
 800040e:	4464      	add	r4, ip
 8000410:	1be4      	subs	r4, r4, r7
 8000412:	b29f      	uxth	r7, r3
 8000414:	fbb4 f3f9 	udiv	r3, r4, r9
 8000418:	fb09 4413 	mls	r4, r9, r3, r4
 800041c:	ea47 4404 	orr.w	r4, r7, r4, lsl #16
 8000420:	fb03 fe0e 	mul.w	lr, r3, lr
 8000424:	45a6      	cmp	lr, r4
 8000426:	d909      	bls.n	800043c <__udivmoddi4+0x1d0>
 8000428:	eb1c 0404 	adds.w	r4, ip, r4
 800042c:	f103 37ff 	add.w	r7, r3, #4294967295	@ 0xffffffff
 8000430:	f080 8082 	bcs.w	8000538 <__udivmoddi4+0x2cc>
 8000434:	45a6      	cmp	lr, r4
 8000436:	d97f      	bls.n	8000538 <__udivmoddi4+0x2cc>
 8000438:	3b02      	subs	r3, #2
 800043a:	4464      	add	r4, ip
 800043c:	ea43 4000 	orr.w	r0, r3, r0, lsl #16
 8000440:	eba4 040e 	sub.w	r4, r4, lr
 8000444:	fba0 e702 	umull	lr, r7, r0, r2
 8000448:	42bc      	cmp	r4, r7
 800044a:	4673      	mov	r3, lr
 800044c:	46b9      	mov	r9, r7
 800044e:	d363      	bcc.n	8000518 <__udivmoddi4+0x2ac>
 8000450:	d060      	beq.n	8000514 <__udivmoddi4+0x2a8>
 8000452:	b15d      	cbz	r5, 800046c <__udivmoddi4+0x200>
 8000454:	ebb8 0203 	subs.w	r2, r8, r3
 8000458:	eb64 0409 	sbc.w	r4, r4, r9
 800045c:	fa04 f606 	lsl.w	r6, r4, r6
 8000460:	fa22 f301 	lsr.w	r3, r2, r1
 8000464:	431e      	orrs	r6, r3
 8000466:	40cc      	lsrs	r4, r1
 8000468:	e9c5 6400 	strd	r6, r4, [r5]
 800046c:	2100      	movs	r1, #0
 800046e:	e74c      	b.n	800030a <__udivmoddi4+0x9e>
 8000470:	0862      	lsrs	r2, r4, #1
 8000472:	0848      	lsrs	r0, r1, #1
 8000474:	ea42 71c1 	orr.w	r1, r2, r1, lsl #31
 8000478:	0c0b      	lsrs	r3, r1, #16
 800047a:	ea43 4300 	orr.w	r3, r3, r0, lsl #16
 800047e:	b28a      	uxth	r2, r1
 8000480:	ea42 4203 	orr.w	r2, r2, r3, lsl #16
 8000484:	fbb3 f1f6 	udiv	r1, r3, r6
 8000488:	07e4      	lsls	r4, r4, #31
 800048a:	46b4      	mov	ip, r6
 800048c:	4637      	mov	r7, r6
 800048e:	46b6      	mov	lr, r6
 8000490:	231f      	movs	r3, #31
 8000492:	fbb0 f0f6 	udiv	r0, r0, r6
 8000496:	1bd2      	subs	r2, r2, r7
 8000498:	ea41 4100 	orr.w	r1, r1, r0, lsl #16
 800049c:	e761      	b.n	8000362 <__udivmoddi4+0xf6>
 800049e:	4661      	mov	r1, ip
 80004a0:	e714      	b.n	80002cc <__udivmoddi4+0x60>
 80004a2:	4610      	mov	r0, r2
 80004a4:	e728      	b.n	80002f8 <__udivmoddi4+0x8c>
 80004a6:	f1c3 0120 	rsb	r1, r3, #32
 80004aa:	fa20 f201 	lsr.w	r2, r0, r1
 80004ae:	409e      	lsls	r6, r3
 80004b0:	fa27 f101 	lsr.w	r1, r7, r1
 80004b4:	409f      	lsls	r7, r3
 80004b6:	433a      	orrs	r2, r7
 80004b8:	ea4f 4e16 	mov.w	lr, r6, lsr #16
 80004bc:	fa1f fc86 	uxth.w	ip, r6
 80004c0:	fbb1 f7fe 	udiv	r7, r1, lr
 80004c4:	fb0e 1017 	mls	r0, lr, r7, r1
 80004c8:	0c11      	lsrs	r1, r2, #16
 80004ca:	ea41 4100 	orr.w	r1, r1, r0, lsl #16
 80004ce:	fb07 f80c 	mul.w	r8, r7, ip
 80004d2:	4588      	cmp	r8, r1
 80004d4:	fa04 f403 	lsl.w	r4, r4, r3
 80004d8:	d93a      	bls.n	8000550 <__udivmoddi4+0x2e4>
 80004da:	1871      	adds	r1, r6, r1
 80004dc:	f107 30ff 	add.w	r0, r7, #4294967295	@ 0xffffffff
 80004e0:	d201      	bcs.n	80004e6 <__udivmoddi4+0x27a>
 80004e2:	4588      	cmp	r8, r1
 80004e4:	d81f      	bhi.n	8000526 <__udivmoddi4+0x2ba>
 80004e6:	eba1 0108 	sub.w	r1, r1, r8
 80004ea:	fbb1 f8fe 	udiv	r8, r1, lr
 80004ee:	fb08 f70c 	mul.w	r7, r8, ip
 80004f2:	fb0e 1118 	mls	r1, lr, r8, r1
 80004f6:	b292      	uxth	r2, r2
 80004f8:	ea42 4201 	orr.w	r2, r2, r1, lsl #16
 80004fc:	42ba      	cmp	r2, r7
 80004fe:	d22f      	bcs.n	8000560 <__udivmoddi4+0x2f4>
 8000500:	18b2      	adds	r2, r6, r2
 8000502:	f108 31ff 	add.w	r1, r8, #4294967295	@ 0xffffffff
 8000506:	d2c6      	bcs.n	8000496 <__udivmoddi4+0x22a>
 8000508:	42ba      	cmp	r2, r7
 800050a:	d2c4      	bcs.n	8000496 <__udivmoddi4+0x22a>
 800050c:	f1a8 0102 	sub.w	r1, r8, #2
 8000510:	4432      	add	r2, r6
 8000512:	e7c0      	b.n	8000496 <__udivmoddi4+0x22a>
 8000514:	45f0      	cmp	r8, lr
 8000516:	d29c      	bcs.n	8000452 <__udivmoddi4+0x1e6>
 8000518:	ebbe 0302 	subs.w	r3, lr, r2
 800051c:	eb67 070c 	sbc.w	r7, r7, ip
 8000520:	3801      	subs	r0, #1
 8000522:	46b9      	mov	r9, r7
 8000524:	e795      	b.n	8000452 <__udivmoddi4+0x1e6>
 8000526:	eba6 0808 	sub.w	r8, r6, r8
 800052a:	4441      	add	r1, r8
 800052c:	1eb8      	subs	r0, r7, #2
 800052e:	fbb1 f8fe 	udiv	r8, r1, lr
 8000532:	fb08 f70c 	mul.w	r7, r8, ip
 8000536:	e7dc      	b.n	80004f2 <__udivmoddi4+0x286>
 8000538:	463b      	mov	r3, r7
 800053a:	e77f      	b.n	800043c <__udivmoddi4+0x1d0>
 800053c:	4650      	mov	r0, sl
 800053e:	e767      	b.n	8000410 <__udivmoddi4+0x1a4>
 8000540:	4608      	mov	r0, r1
 8000542:	e6fb      	b.n	800033c <__udivmoddi4+0xd0>
 8000544:	4434      	add	r4, r6
 8000546:	3802      	subs	r0, #2
 8000548:	e732      	b.n	80003b0 <__udivmoddi4+0x144>
 800054a:	3f02      	subs	r7, #2
 800054c:	4432      	add	r2, r6
 800054e:	e71b      	b.n	8000388 <__udivmoddi4+0x11c>
 8000550:	eba1 0108 	sub.w	r1, r1, r8
 8000554:	4638      	mov	r0, r7
 8000556:	fbb1 f8fe 	udiv	r8, r1, lr
 800055a:	fb08 f70c 	mul.w	r7, r8, ip
 800055e:	e7c8      	b.n	80004f2 <__udivmoddi4+0x286>
 8000560:	4641      	mov	r1, r8
 8000562:	e798      	b.n	8000496 <__udivmoddi4+0x22a>

08000564 <__aeabi_idiv0>:
 8000564:	4770      	bx	lr
 8000566:	bf00      	nop

08000568 <csn>:
  .decode_status = 999,
  .cmd_status = 999,
};

static void csn(bool high)
{
 8000568:	b580      	push	{r7, lr}
 800056a:	b082      	sub	sp, #8
 800056c:	af00      	add	r7, sp, #0
 800056e:	4603      	mov	r3, r0
 8000570:	71fb      	strb	r3, [r7, #7]
  HAL_GPIO_WritePin(SPI2_CS_GPIO_Port, SPI2_CS_Pin,
 8000572:	79fb      	ldrb	r3, [r7, #7]
 8000574:	461a      	mov	r2, r3
 8000576:	f44f 5180 	mov.w	r1, #4096	@ 0x1000
 800057a:	4803      	ldr	r0, [pc, #12]	@ (8000588 <csn+0x20>)
 800057c:	f004 fc80 	bl	8004e80 <HAL_GPIO_WritePin>
                    high ? GPIO_PIN_SET : GPIO_PIN_RESET);
}
 8000580:	bf00      	nop
 8000582:	3708      	adds	r7, #8
 8000584:	46bd      	mov	sp, r7
 8000586:	bd80      	pop	{r7, pc}
 8000588:	48000400 	.word	0x48000400

0800058c <rstn>:

static void rstn(bool high)
{
 800058c:	b580      	push	{r7, lr}
 800058e:	b082      	sub	sp, #8
 8000590:	af00      	add	r7, sp, #0
 8000592:	4603      	mov	r3, r0
 8000594:	71fb      	strb	r3, [r7, #7]
  HAL_GPIO_WritePin(SPI2_RST_GPIO_Port, SPI2_RST_Pin,
 8000596:	79fb      	ldrb	r3, [r7, #7]
 8000598:	461a      	mov	r2, r3
 800059a:	f44f 6180 	mov.w	r1, #1024	@ 0x400
 800059e:	4803      	ldr	r0, [pc, #12]	@ (80005ac <rstn+0x20>)
 80005a0:	f004 fc6e 	bl	8004e80 <HAL_GPIO_WritePin>
                    high ? GPIO_PIN_SET : GPIO_PIN_RESET);
}
 80005a4:	bf00      	nop
 80005a6:	3708      	adds	r7, #8
 80005a8:	46bd      	mov	sp, r7
 80005aa:	bd80      	pop	{r7, pc}
 80005ac:	48000400 	.word	0x48000400

080005b0 <time_us>:

static uint32_t time_us(void)
{
 80005b0:	b580      	push	{r7, lr}
 80005b2:	af00      	add	r7, sp, #0
  return HAL_GetTick() * 1000U;
 80005b4:	f003 ffa2 	bl	80044fc <HAL_GetTick>
 80005b8:	4603      	mov	r3, r0
 80005ba:	f44f 727a 	mov.w	r2, #1000	@ 0x3e8
 80005be:	fb02 f303 	mul.w	r3, r2, r3
}
 80005c2:	4618      	mov	r0, r3
 80005c4:	bd80      	pop	{r7, pc}
	...

080005c8 <int_asserted>:

static bool int_asserted(void)
{
 80005c8:	b580      	push	{r7, lr}
 80005ca:	af00      	add	r7, sp, #0
  return HAL_GPIO_ReadPin(SPI2_INT_GPIO_Port, SPI2_INT_Pin) == GPIO_PIN_RESET;
 80005cc:	f44f 6100 	mov.w	r1, #2048	@ 0x800
 80005d0:	4805      	ldr	r0, [pc, #20]	@ (80005e8 <int_asserted+0x20>)
 80005d2:	f004 fc3d 	bl	8004e50 <HAL_GPIO_ReadPin>
 80005d6:	4603      	mov	r3, r0
 80005d8:	2b00      	cmp	r3, #0
 80005da:	bf0c      	ite	eq
 80005dc:	2301      	moveq	r3, #1
 80005de:	2300      	movne	r3, #0
 80005e0:	b2db      	uxtb	r3, r3
}
 80005e2:	4618      	mov	r0, r3
 80005e4:	bd80      	pop	{r7, pc}
 80005e6:	bf00      	nop
 80005e8:	48000400 	.word	0x48000400

080005ec <update_io_debug>:

static void update_io_debug(void)
{
 80005ec:	b580      	push	{r7, lr}
 80005ee:	af00      	add	r7, sp, #0
  bno085_dbg.cmd = bno085_cmd;
 80005f0:	4b0d      	ldr	r3, [pc, #52]	@ (8000628 <update_io_debug+0x3c>)
 80005f2:	681b      	ldr	r3, [r3, #0]
 80005f4:	4a0d      	ldr	r2, [pc, #52]	@ (800062c <update_io_debug+0x40>)
 80005f6:	6753      	str	r3, [r2, #116]	@ 0x74
  bno085_dbg.int_pin = int_asserted() ? 0U : 1U;
 80005f8:	f7ff ffe6 	bl	80005c8 <int_asserted>
 80005fc:	4603      	mov	r3, r0
 80005fe:	f083 0301 	eor.w	r3, r3, #1
 8000602:	b2db      	uxtb	r3, r3
 8000604:	461a      	mov	r2, r3
 8000606:	4b09      	ldr	r3, [pc, #36]	@ (800062c <update_io_debug+0x40>)
 8000608:	f883 2084 	strb.w	r2, [r3, #132]	@ 0x84
  bno085_dbg.rx_ready = int_asserted() ? 1U : 0U;
 800060c:	f7ff ffdc 	bl	80005c8 <int_asserted>
 8000610:	4603      	mov	r3, r0
 8000612:	2b00      	cmp	r3, #0
 8000614:	d001      	beq.n	800061a <update_io_debug+0x2e>
 8000616:	2201      	movs	r2, #1
 8000618:	e000      	b.n	800061c <update_io_debug+0x30>
 800061a:	2200      	movs	r2, #0
 800061c:	4b03      	ldr	r3, [pc, #12]	@ (800062c <update_io_debug+0x40>)
 800061e:	f883 2083 	strb.w	r2, [r3, #131]	@ 0x83
}
 8000622:	bf00      	nop
 8000624:	bd80      	pop	{r7, pc}
 8000626:	bf00      	nop
 8000628:	20000438 	.word	0x20000438
 800062c:	20000000 	.word	0x20000000

08000630 <wait_for_int>:

static bool wait_for_int(void)
{
 8000630:	b580      	push	{r7, lr}
 8000632:	b082      	sub	sp, #8
 8000634:	af00      	add	r7, sp, #0
  uint32_t start = HAL_GetTick();
 8000636:	f003 ff61 	bl	80044fc <HAL_GetTick>
 800063a:	6078      	str	r0, [r7, #4]

  while (!int_asserted()) {
 800063c:	e010      	b.n	8000660 <wait_for_int+0x30>
    if ((HAL_GetTick() - start) >= BNO085_INT_TIMEOUT_MS) {
 800063e:	f003 ff5d 	bl	80044fc <HAL_GetTick>
 8000642:	4602      	mov	r2, r0
 8000644:	687b      	ldr	r3, [r7, #4]
 8000646:	1ad3      	subs	r3, r2, r3
 8000648:	f5b3 7ffa 	cmp.w	r3, #500	@ 0x1f4
 800064c:	d308      	bcc.n	8000660 <wait_for_int+0x30>
      bno085_dbg.no_int_count++;
 800064e:	4b0c      	ldr	r3, [pc, #48]	@ (8000680 <wait_for_int+0x50>)
 8000650:	6a5b      	ldr	r3, [r3, #36]	@ 0x24
 8000652:	3301      	adds	r3, #1
 8000654:	4a0a      	ldr	r2, [pc, #40]	@ (8000680 <wait_for_int+0x50>)
 8000656:	6253      	str	r3, [r2, #36]	@ 0x24
      update_io_debug();
 8000658:	f7ff ffc8 	bl	80005ec <update_io_debug>
      return false;
 800065c:	2300      	movs	r3, #0
 800065e:	e00a      	b.n	8000676 <wait_for_int+0x46>
  while (!int_asserted()) {
 8000660:	f7ff ffb2 	bl	80005c8 <int_asserted>
 8000664:	4603      	mov	r3, r0
 8000666:	f083 0301 	eor.w	r3, r3, #1
 800066a:	b2db      	uxtb	r3, r3
 800066c:	2b00      	cmp	r3, #0
 800066e:	d1e6      	bne.n	800063e <wait_for_int+0xe>
    }
  }

  update_io_debug();
 8000670:	f7ff ffbc 	bl	80005ec <update_io_debug>
  return true;
 8000674:	2301      	movs	r3, #1
}
 8000676:	4618      	mov	r0, r3
 8000678:	3708      	adds	r7, #8
 800067a:	46bd      	mov	sp, r7
 800067c:	bd80      	pop	{r7, pc}
 800067e:	bf00      	nop
 8000680:	20000000 	.word	0x20000000

08000684 <hardware_reset>:

static void hardware_reset(void)
{
 8000684:	b580      	push	{r7, lr}
 8000686:	af00      	add	r7, sp, #0
  csn(true);
 8000688:	2001      	movs	r0, #1
 800068a:	f7ff ff6d 	bl	8000568 <csn>
  rstn(true);
 800068e:	2001      	movs	r0, #1
 8000690:	f7ff ff7c 	bl	800058c <rstn>
  HAL_Delay(BNO085_RESET_DELAY_MS);
 8000694:	200a      	movs	r0, #10
 8000696:	f003 ff3d 	bl	8004514 <HAL_Delay>
  rstn(false);
 800069a:	2000      	movs	r0, #0
 800069c:	f7ff ff76 	bl	800058c <rstn>
  HAL_Delay(BNO085_RESET_DELAY_MS);
 80006a0:	200a      	movs	r0, #10
 80006a2:	f003 ff37 	bl	8004514 <HAL_Delay>
  rstn(true);
 80006a6:	2001      	movs	r0, #1
 80006a8:	f7ff ff70 	bl	800058c <rstn>
  HAL_Delay(BNO085_RESET_DELAY_MS);
 80006ac:	200a      	movs	r0, #10
 80006ae:	f003 ff31 	bl	8004514 <HAL_Delay>

  bno085_dbg.reset_count++;
 80006b2:	4b04      	ldr	r3, [pc, #16]	@ (80006c4 <hardware_reset+0x40>)
 80006b4:	691b      	ldr	r3, [r3, #16]
 80006b6:	3301      	adds	r3, #1
 80006b8:	4a02      	ldr	r2, [pc, #8]	@ (80006c4 <hardware_reset+0x40>)
 80006ba:	6113      	str	r3, [r2, #16]
  update_io_debug();
 80006bc:	f7ff ff96 	bl	80005ec <update_io_debug>
}
 80006c0:	bf00      	nop
 80006c2:	bd80      	pop	{r7, pc}
 80006c4:	20000000 	.word	0x20000000

080006c8 <update_packet_debug>:

static void update_packet_debug(const uint8_t *packet, uint16_t packet_len)
{
 80006c8:	b480      	push	{r7}
 80006ca:	b085      	sub	sp, #20
 80006cc:	af00      	add	r7, sp, #0
 80006ce:	6078      	str	r0, [r7, #4]
 80006d0:	460b      	mov	r3, r1
 80006d2:	807b      	strh	r3, [r7, #2]
  uint8_t channel;
  uint8_t sequence;

  if ((packet == NULL) || (packet_len < 4U)) {
 80006d4:	687b      	ldr	r3, [r7, #4]
 80006d6:	2b00      	cmp	r3, #0
 80006d8:	f000 8082 	beq.w	80007e0 <update_packet_debug+0x118>
 80006dc:	887b      	ldrh	r3, [r7, #2]
 80006de:	2b03      	cmp	r3, #3
 80006e0:	d97e      	bls.n	80007e0 <update_packet_debug+0x118>
    return;
  }

  channel = packet[2];
 80006e2:	687b      	ldr	r3, [r7, #4]
 80006e4:	3302      	adds	r3, #2
 80006e6:	781b      	ldrb	r3, [r3, #0]
 80006e8:	73fb      	strb	r3, [r7, #15]
  sequence = packet[3];
 80006ea:	687b      	ldr	r3, [r7, #4]
 80006ec:	3303      	adds	r3, #3
 80006ee:	781b      	ldrb	r3, [r3, #0]
 80006f0:	73bb      	strb	r3, [r7, #14]

  bno085_dbg.last_packet_size = packet_len;
 80006f2:	4a3e      	ldr	r2, [pc, #248]	@ (80007ec <update_packet_debug+0x124>)
 80006f4:	887b      	ldrh	r3, [r7, #2]
 80006f6:	f8a2 3080 	strh.w	r3, [r2, #128]	@ 0x80
  bno085_dbg.last_header0 = packet[0];
 80006fa:	687b      	ldr	r3, [r7, #4]
 80006fc:	781a      	ldrb	r2, [r3, #0]
 80006fe:	4b3b      	ldr	r3, [pc, #236]	@ (80007ec <update_packet_debug+0x124>)
 8000700:	f883 2085 	strb.w	r2, [r3, #133]	@ 0x85
  bno085_dbg.last_header1 = packet[1];
 8000704:	687b      	ldr	r3, [r7, #4]
 8000706:	3301      	adds	r3, #1
 8000708:	781a      	ldrb	r2, [r3, #0]
 800070a:	4b38      	ldr	r3, [pc, #224]	@ (80007ec <update_packet_debug+0x124>)
 800070c:	f883 2086 	strb.w	r2, [r3, #134]	@ 0x86
  bno085_dbg.last_header2 = packet[2];
 8000710:	687b      	ldr	r3, [r7, #4]
 8000712:	3302      	adds	r3, #2
 8000714:	781a      	ldrb	r2, [r3, #0]
 8000716:	4b35      	ldr	r3, [pc, #212]	@ (80007ec <update_packet_debug+0x124>)
 8000718:	f883 2087 	strb.w	r2, [r3, #135]	@ 0x87
  bno085_dbg.last_header3 = packet[3];
 800071c:	687b      	ldr	r3, [r7, #4]
 800071e:	3303      	adds	r3, #3
 8000720:	781a      	ldrb	r2, [r3, #0]
 8000722:	4b32      	ldr	r3, [pc, #200]	@ (80007ec <update_packet_debug+0x124>)
 8000724:	f883 2088 	strb.w	r2, [r3, #136]	@ 0x88
  bno085_dbg.last_channel = channel;
 8000728:	4a30      	ldr	r2, [pc, #192]	@ (80007ec <update_packet_debug+0x124>)
 800072a:	7bfb      	ldrb	r3, [r7, #15]
 800072c:	f882 3089 	strb.w	r3, [r2, #137]	@ 0x89
  bno085_dbg.last_sequence = sequence;
 8000730:	4a2e      	ldr	r2, [pc, #184]	@ (80007ec <update_packet_debug+0x124>)
 8000732:	7bbb      	ldrb	r3, [r7, #14]
 8000734:	f882 308a 	strb.w	r3, [r2, #138]	@ 0x8a
  bno085_dbg.last_payload0 = (packet_len > 4U) ? packet[4] : 0U;
 8000738:	887b      	ldrh	r3, [r7, #2]
 800073a:	2b04      	cmp	r3, #4
 800073c:	d903      	bls.n	8000746 <update_packet_debug+0x7e>
 800073e:	687b      	ldr	r3, [r7, #4]
 8000740:	3304      	adds	r3, #4
 8000742:	781b      	ldrb	r3, [r3, #0]
 8000744:	e000      	b.n	8000748 <update_packet_debug+0x80>
 8000746:	2300      	movs	r3, #0
 8000748:	4a28      	ldr	r2, [pc, #160]	@ (80007ec <update_packet_debug+0x124>)
 800074a:	f882 308b 	strb.w	r3, [r2, #139]	@ 0x8b
  bno085_dbg.last_payload1 = (packet_len > 5U) ? packet[5] : 0U;
 800074e:	887b      	ldrh	r3, [r7, #2]
 8000750:	2b05      	cmp	r3, #5
 8000752:	d903      	bls.n	800075c <update_packet_debug+0x94>
 8000754:	687b      	ldr	r3, [r7, #4]
 8000756:	3305      	adds	r3, #5
 8000758:	781b      	ldrb	r3, [r3, #0]
 800075a:	e000      	b.n	800075e <update_packet_debug+0x96>
 800075c:	2300      	movs	r3, #0
 800075e:	4a23      	ldr	r2, [pc, #140]	@ (80007ec <update_packet_debug+0x124>)
 8000760:	f882 308c 	strb.w	r3, [r2, #140]	@ 0x8c
  bno085_dbg.last_payload2 = (packet_len > 6U) ? packet[6] : 0U;
 8000764:	887b      	ldrh	r3, [r7, #2]
 8000766:	2b06      	cmp	r3, #6
 8000768:	d903      	bls.n	8000772 <update_packet_debug+0xaa>
 800076a:	687b      	ldr	r3, [r7, #4]
 800076c:	3306      	adds	r3, #6
 800076e:	781b      	ldrb	r3, [r3, #0]
 8000770:	e000      	b.n	8000774 <update_packet_debug+0xac>
 8000772:	2300      	movs	r3, #0
 8000774:	4a1d      	ldr	r2, [pc, #116]	@ (80007ec <update_packet_debug+0x124>)
 8000776:	f882 308d 	strb.w	r3, [r2, #141]	@ 0x8d
  bno085_dbg.last_payload3 = (packet_len > 7U) ? packet[7] : 0U;
 800077a:	887b      	ldrh	r3, [r7, #2]
 800077c:	2b07      	cmp	r3, #7
 800077e:	d903      	bls.n	8000788 <update_packet_debug+0xc0>
 8000780:	687b      	ldr	r3, [r7, #4]
 8000782:	3307      	adds	r3, #7
 8000784:	781b      	ldrb	r3, [r3, #0]
 8000786:	e000      	b.n	800078a <update_packet_debug+0xc2>
 8000788:	2300      	movs	r3, #0
 800078a:	4a18      	ldr	r2, [pc, #96]	@ (80007ec <update_packet_debug+0x124>)
 800078c:	f882 308e 	strb.w	r3, [r2, #142]	@ 0x8e

  if (channel < 6U) {
 8000790:	7bfb      	ldrb	r3, [r7, #15]
 8000792:	2b05      	cmp	r3, #5
 8000794:	d80d      	bhi.n	80007b2 <update_packet_debug+0xea>
    bno085_dbg.channel_count[channel]++;
 8000796:	7bfa      	ldrb	r2, [r7, #15]
 8000798:	4914      	ldr	r1, [pc, #80]	@ (80007ec <update_packet_debug+0x124>)
 800079a:	f102 0314 	add.w	r3, r2, #20
 800079e:	009b      	lsls	r3, r3, #2
 80007a0:	440b      	add	r3, r1
 80007a2:	685b      	ldr	r3, [r3, #4]
 80007a4:	1c59      	adds	r1, r3, #1
 80007a6:	4811      	ldr	r0, [pc, #68]	@ (80007ec <update_packet_debug+0x124>)
 80007a8:	f102 0314 	add.w	r3, r2, #20
 80007ac:	009b      	lsls	r3, r3, #2
 80007ae:	4403      	add	r3, r0
 80007b0:	6059      	str	r1, [r3, #4]
  }

  if ((bno085_dbg.read_count > 0U) &&
 80007b2:	4b0e      	ldr	r3, [pc, #56]	@ (80007ec <update_packet_debug+0x124>)
 80007b4:	695b      	ldr	r3, [r3, #20]
 80007b6:	2b00      	cmp	r3, #0
 80007b8:	d00c      	beq.n	80007d4 <update_packet_debug+0x10c>
      (bno085_dbg.last_sequence == sequence)) {
 80007ba:	4b0c      	ldr	r3, [pc, #48]	@ (80007ec <update_packet_debug+0x124>)
 80007bc:	f893 308a 	ldrb.w	r3, [r3, #138]	@ 0x8a
 80007c0:	b2db      	uxtb	r3, r3
  if ((bno085_dbg.read_count > 0U) &&
 80007c2:	7bba      	ldrb	r2, [r7, #14]
 80007c4:	429a      	cmp	r2, r3
 80007c6:	d105      	bne.n	80007d4 <update_packet_debug+0x10c>
    bno085_dbg.same_seq_count++;
 80007c8:	4b08      	ldr	r3, [pc, #32]	@ (80007ec <update_packet_debug+0x124>)
 80007ca:	6cdb      	ldr	r3, [r3, #76]	@ 0x4c
 80007cc:	3301      	adds	r3, #1
 80007ce:	4a07      	ldr	r2, [pc, #28]	@ (80007ec <update_packet_debug+0x124>)
 80007d0:	64d3      	str	r3, [r2, #76]	@ 0x4c
 80007d2:	e006      	b.n	80007e2 <update_packet_debug+0x11a>
  } else {
    bno085_dbg.new_seq_count++;
 80007d4:	4b05      	ldr	r3, [pc, #20]	@ (80007ec <update_packet_debug+0x124>)
 80007d6:	6d1b      	ldr	r3, [r3, #80]	@ 0x50
 80007d8:	3301      	adds	r3, #1
 80007da:	4a04      	ldr	r2, [pc, #16]	@ (80007ec <update_packet_debug+0x124>)
 80007dc:	6513      	str	r3, [r2, #80]	@ 0x50
 80007de:	e000      	b.n	80007e2 <update_packet_debug+0x11a>
    return;
 80007e0:	bf00      	nop
  }
}
 80007e2:	3714      	adds	r7, #20
 80007e4:	46bd      	mov	sp, r7
 80007e6:	f85d 7b04 	ldr.w	r7, [sp], #4
 80007ea:	4770      	bx	lr
 80007ec:	20000000 	.word	0x20000000

080007f0 <spi_read_bytes>:

static bool spi_read_bytes(uint8_t *buffer, uint16_t len)
{
 80007f0:	b580      	push	{r7, lr}
 80007f2:	b086      	sub	sp, #24
 80007f4:	af02      	add	r7, sp, #8
 80007f6:	6078      	str	r0, [r7, #4]
 80007f8:	460b      	mov	r3, r1
 80007fa:	807b      	strh	r3, [r7, #2]
  HAL_StatusTypeDef status;

  csn(false);
 80007fc:	2000      	movs	r0, #0
 80007fe:	f7ff feb3 	bl	8000568 <csn>
  status = HAL_SPI_TransmitReceive(&hspi2, tx_zeros, buffer, len,
 8000802:	887b      	ldrh	r3, [r7, #2]
 8000804:	2264      	movs	r2, #100	@ 0x64
 8000806:	9200      	str	r2, [sp, #0]
 8000808:	687a      	ldr	r2, [r7, #4]
 800080a:	490c      	ldr	r1, [pc, #48]	@ (800083c <spi_read_bytes+0x4c>)
 800080c:	480c      	ldr	r0, [pc, #48]	@ (8000840 <spi_read_bytes+0x50>)
 800080e:	f005 fbcc 	bl	8005faa <HAL_SPI_TransmitReceive>
 8000812:	4603      	mov	r3, r0
 8000814:	73fb      	strb	r3, [r7, #15]
                                   BNO085_SPI_TIMEOUT_MS);
  csn(true);
 8000816:	2001      	movs	r0, #1
 8000818:	f7ff fea6 	bl	8000568 <csn>

  if (status != HAL_OK) {
 800081c:	7bfb      	ldrb	r3, [r7, #15]
 800081e:	2b00      	cmp	r3, #0
 8000820:	d006      	beq.n	8000830 <spi_read_bytes+0x40>
    bno085_dbg.read_error_count++;
 8000822:	4b08      	ldr	r3, [pc, #32]	@ (8000844 <spi_read_bytes+0x54>)
 8000824:	6a9b      	ldr	r3, [r3, #40]	@ 0x28
 8000826:	3301      	adds	r3, #1
 8000828:	4a06      	ldr	r2, [pc, #24]	@ (8000844 <spi_read_bytes+0x54>)
 800082a:	6293      	str	r3, [r2, #40]	@ 0x28
    return false;
 800082c:	2300      	movs	r3, #0
 800082e:	e000      	b.n	8000832 <spi_read_bytes+0x42>
  }

  return true;
 8000830:	2301      	movs	r3, #1
}
 8000832:	4618      	mov	r0, r3
 8000834:	3710      	adds	r7, #16
 8000836:	46bd      	mov	sp, r7
 8000838:	bd80      	pop	{r7, pc}
 800083a:	bf00      	nop
 800083c:	200001b4 	.word	0x200001b4
 8000840:	20000f08 	.word	0x20000f08
 8000844:	20000000 	.word	0x20000000

08000848 <spi_write_bytes>:

static bool spi_write_bytes(uint8_t *buffer, uint16_t len)
{
 8000848:	b580      	push	{r7, lr}
 800084a:	b086      	sub	sp, #24
 800084c:	af02      	add	r7, sp, #8
 800084e:	6078      	str	r0, [r7, #4]
 8000850:	460b      	mov	r3, r1
 8000852:	807b      	strh	r3, [r7, #2]
  HAL_StatusTypeDef status;

  csn(false);
 8000854:	2000      	movs	r0, #0
 8000856:	f7ff fe87 	bl	8000568 <csn>
  status = HAL_SPI_TransmitReceive(&hspi2, buffer, rx_discard, len,
 800085a:	887b      	ldrh	r3, [r7, #2]
 800085c:	2264      	movs	r2, #100	@ 0x64
 800085e:	9200      	str	r2, [sp, #0]
 8000860:	4a0c      	ldr	r2, [pc, #48]	@ (8000894 <spi_write_bytes+0x4c>)
 8000862:	6879      	ldr	r1, [r7, #4]
 8000864:	480c      	ldr	r0, [pc, #48]	@ (8000898 <spi_write_bytes+0x50>)
 8000866:	f005 fba0 	bl	8005faa <HAL_SPI_TransmitReceive>
 800086a:	4603      	mov	r3, r0
 800086c:	73fb      	strb	r3, [r7, #15]
                                   BNO085_SPI_TIMEOUT_MS);
  csn(true);
 800086e:	2001      	movs	r0, #1
 8000870:	f7ff fe7a 	bl	8000568 <csn>

  if (status != HAL_OK) {
 8000874:	7bfb      	ldrb	r3, [r7, #15]
 8000876:	2b00      	cmp	r3, #0
 8000878:	d006      	beq.n	8000888 <spi_write_bytes+0x40>
    bno085_dbg.write_error_count++;
 800087a:	4b08      	ldr	r3, [pc, #32]	@ (800089c <spi_write_bytes+0x54>)
 800087c:	6adb      	ldr	r3, [r3, #44]	@ 0x2c
 800087e:	3301      	adds	r3, #1
 8000880:	4a06      	ldr	r2, [pc, #24]	@ (800089c <spi_write_bytes+0x54>)
 8000882:	62d3      	str	r3, [r2, #44]	@ 0x2c
    return false;
 8000884:	2300      	movs	r3, #0
 8000886:	e000      	b.n	800088a <spi_write_bytes+0x42>
  }

  return true;
 8000888:	2301      	movs	r3, #1
}
 800088a:	4618      	mov	r0, r3
 800088c:	3710      	adds	r7, #16
 800088e:	46bd      	mov	sp, r7
 8000890:	bd80      	pop	{r7, pc}
 8000892:	bf00      	nop
 8000894:	20000334 	.word	0x20000334
 8000898:	20000f08 	.word	0x20000f08
 800089c:	20000000 	.word	0x20000000

080008a0 <hal_open>:

static int hal_open(sh2_Hal_t *self)
{
 80008a0:	b580      	push	{r7, lr}
 80008a2:	b082      	sub	sp, #8
 80008a4:	af00      	add	r7, sp, #0
 80008a6:	6078      	str	r0, [r7, #4]
  (void)self;

  return wait_for_int() ? SH2_OK : SH2_ERR_IO;
 80008a8:	f7ff fec2 	bl	8000630 <wait_for_int>
 80008ac:	4603      	mov	r3, r0
 80008ae:	2b00      	cmp	r3, #0
 80008b0:	d001      	beq.n	80008b6 <hal_open+0x16>
 80008b2:	2300      	movs	r3, #0
 80008b4:	e001      	b.n	80008ba <hal_open+0x1a>
 80008b6:	f06f 0303 	mvn.w	r3, #3
}
 80008ba:	4618      	mov	r0, r3
 80008bc:	3708      	adds	r7, #8
 80008be:	46bd      	mov	sp, r7
 80008c0:	bd80      	pop	{r7, pc}
	...

080008c4 <hal_close>:

static void hal_close(sh2_Hal_t *self)
{
 80008c4:	b580      	push	{r7, lr}
 80008c6:	b082      	sub	sp, #8
 80008c8:	af00      	add	r7, sp, #0
 80008ca:	6078      	str	r0, [r7, #4]
  (void)self;

  csn(true);
 80008cc:	2001      	movs	r0, #1
 80008ce:	f7ff fe4b 	bl	8000568 <csn>
  rstn(false);
 80008d2:	2000      	movs	r0, #0
 80008d4:	f7ff fe5a 	bl	800058c <rstn>
  sh2_is_open = false;
 80008d8:	4b05      	ldr	r3, [pc, #20]	@ (80008f0 <hal_close+0x2c>)
 80008da:	2200      	movs	r2, #0
 80008dc:	701a      	strb	r2, [r3, #0]
  stream_enabled = false;
 80008de:	4b05      	ldr	r3, [pc, #20]	@ (80008f4 <hal_close+0x30>)
 80008e0:	2200      	movs	r2, #0
 80008e2:	701a      	strb	r2, [r3, #0]
  update_io_debug();
 80008e4:	f7ff fe82 	bl	80005ec <update_io_debug>
}
 80008e8:	bf00      	nop
 80008ea:	3708      	adds	r7, #8
 80008ec:	46bd      	mov	sp, r7
 80008ee:	bd80      	pop	{r7, pc}
 80008f0:	20000434 	.word	0x20000434
 80008f4:	20000435 	.word	0x20000435

080008f8 <hal_read>:

static int hal_read(sh2_Hal_t *self, uint8_t *pBuffer, unsigned len,
                    uint32_t *t_us)
{
 80008f8:	b580      	push	{r7, lr}
 80008fa:	b086      	sub	sp, #24
 80008fc:	af00      	add	r7, sp, #0
 80008fe:	60f8      	str	r0, [r7, #12]
 8000900:	60b9      	str	r1, [r7, #8]
 8000902:	607a      	str	r2, [r7, #4]
 8000904:	603b      	str	r3, [r7, #0]
  uint16_t packet_len;

  (void)self;

  if ((pBuffer == NULL) || (len < 4U)) {
 8000906:	68bb      	ldr	r3, [r7, #8]
 8000908:	2b00      	cmp	r3, #0
 800090a:	d002      	beq.n	8000912 <hal_read+0x1a>
 800090c:	687b      	ldr	r3, [r7, #4]
 800090e:	2b03      	cmp	r3, #3
 8000910:	d802      	bhi.n	8000918 <hal_read+0x20>
    return SH2_ERR_BAD_PARAM;
 8000912:	f06f 0301 	mvn.w	r3, #1
 8000916:	e060      	b.n	80009da <hal_read+0xe2>
  }

  if (!wait_for_int()) {
 8000918:	f7ff fe8a 	bl	8000630 <wait_for_int>
 800091c:	4603      	mov	r3, r0
 800091e:	f083 0301 	eor.w	r3, r3, #1
 8000922:	b2db      	uxtb	r3, r3
 8000924:	2b00      	cmp	r3, #0
 8000926:	d001      	beq.n	800092c <hal_read+0x34>
    return 0;
 8000928:	2300      	movs	r3, #0
 800092a:	e056      	b.n	80009da <hal_read+0xe2>
  }

  if (t_us != NULL) {
 800092c:	683b      	ldr	r3, [r7, #0]
 800092e:	2b00      	cmp	r3, #0
 8000930:	d004      	beq.n	800093c <hal_read+0x44>
    *t_us = time_us();
 8000932:	f7ff fe3d 	bl	80005b0 <time_us>
 8000936:	4602      	mov	r2, r0
 8000938:	683b      	ldr	r3, [r7, #0]
 800093a:	601a      	str	r2, [r3, #0]
  }

  if (!spi_read_bytes(pBuffer, 4U)) {
 800093c:	2104      	movs	r1, #4
 800093e:	68b8      	ldr	r0, [r7, #8]
 8000940:	f7ff ff56 	bl	80007f0 <spi_read_bytes>
 8000944:	4603      	mov	r3, r0
 8000946:	f083 0301 	eor.w	r3, r3, #1
 800094a:	b2db      	uxtb	r3, r3
 800094c:	2b00      	cmp	r3, #0
 800094e:	d001      	beq.n	8000954 <hal_read+0x5c>
    return 0;
 8000950:	2300      	movs	r3, #0
 8000952:	e042      	b.n	80009da <hal_read+0xe2>
  }

  packet_len = ((uint16_t)pBuffer[0] | ((uint16_t)pBuffer[1] << 8)) &
 8000954:	68bb      	ldr	r3, [r7, #8]
 8000956:	781b      	ldrb	r3, [r3, #0]
 8000958:	b21a      	sxth	r2, r3
 800095a:	68bb      	ldr	r3, [r7, #8]
 800095c:	3301      	adds	r3, #1
 800095e:	781b      	ldrb	r3, [r3, #0]
 8000960:	b21b      	sxth	r3, r3
 8000962:	021b      	lsls	r3, r3, #8
 8000964:	b21b      	sxth	r3, r3
 8000966:	4313      	orrs	r3, r2
 8000968:	b21b      	sxth	r3, r3
 800096a:	b29b      	uxth	r3, r3
 800096c:	f3c3 030e 	ubfx	r3, r3, #0, #15
 8000970:	82fb      	strh	r3, [r7, #22]
               (uint16_t)~0x8000U;

  if ((packet_len < 4U) || (packet_len > len) ||
 8000972:	8afb      	ldrh	r3, [r7, #22]
 8000974:	2b03      	cmp	r3, #3
 8000976:	d907      	bls.n	8000988 <hal_read+0x90>
 8000978:	8afb      	ldrh	r3, [r7, #22]
 800097a:	687a      	ldr	r2, [r7, #4]
 800097c:	429a      	cmp	r2, r3
 800097e:	d303      	bcc.n	8000988 <hal_read+0x90>
 8000980:	8afb      	ldrh	r3, [r7, #22]
 8000982:	f5b3 7fc0 	cmp.w	r3, #384	@ 0x180
 8000986:	d906      	bls.n	8000996 <hal_read+0x9e>
      (packet_len > SH2_HAL_MAX_TRANSFER_IN)) {
    bno085_dbg.bad_packet_count++;
 8000988:	4b16      	ldr	r3, [pc, #88]	@ (80009e4 <hal_read+0xec>)
 800098a:	6b1b      	ldr	r3, [r3, #48]	@ 0x30
 800098c:	3301      	adds	r3, #1
 800098e:	4a15      	ldr	r2, [pc, #84]	@ (80009e4 <hal_read+0xec>)
 8000990:	6313      	str	r3, [r2, #48]	@ 0x30
    return 0;
 8000992:	2300      	movs	r3, #0
 8000994:	e021      	b.n	80009da <hal_read+0xe2>
  }

  if (!wait_for_int()) {
 8000996:	f7ff fe4b 	bl	8000630 <wait_for_int>
 800099a:	4603      	mov	r3, r0
 800099c:	f083 0301 	eor.w	r3, r3, #1
 80009a0:	b2db      	uxtb	r3, r3
 80009a2:	2b00      	cmp	r3, #0
 80009a4:	d001      	beq.n	80009aa <hal_read+0xb2>
    return 0;
 80009a6:	2300      	movs	r3, #0
 80009a8:	e017      	b.n	80009da <hal_read+0xe2>
  }

  if (!spi_read_bytes(pBuffer, packet_len)) {
 80009aa:	8afb      	ldrh	r3, [r7, #22]
 80009ac:	4619      	mov	r1, r3
 80009ae:	68b8      	ldr	r0, [r7, #8]
 80009b0:	f7ff ff1e 	bl	80007f0 <spi_read_bytes>
 80009b4:	4603      	mov	r3, r0
 80009b6:	f083 0301 	eor.w	r3, r3, #1
 80009ba:	b2db      	uxtb	r3, r3
 80009bc:	2b00      	cmp	r3, #0
 80009be:	d001      	beq.n	80009c4 <hal_read+0xcc>
    return 0;
 80009c0:	2300      	movs	r3, #0
 80009c2:	e00a      	b.n	80009da <hal_read+0xe2>
  }

  update_packet_debug(pBuffer, packet_len);
 80009c4:	8afb      	ldrh	r3, [r7, #22]
 80009c6:	4619      	mov	r1, r3
 80009c8:	68b8      	ldr	r0, [r7, #8]
 80009ca:	f7ff fe7d 	bl	80006c8 <update_packet_debug>
  bno085_dbg.read_count++;
 80009ce:	4b05      	ldr	r3, [pc, #20]	@ (80009e4 <hal_read+0xec>)
 80009d0:	695b      	ldr	r3, [r3, #20]
 80009d2:	3301      	adds	r3, #1
 80009d4:	4a03      	ldr	r2, [pc, #12]	@ (80009e4 <hal_read+0xec>)
 80009d6:	6153      	str	r3, [r2, #20]

  return (int)packet_len;
 80009d8:	8afb      	ldrh	r3, [r7, #22]
}
 80009da:	4618      	mov	r0, r3
 80009dc:	3718      	adds	r7, #24
 80009de:	46bd      	mov	sp, r7
 80009e0:	bd80      	pop	{r7, pc}
 80009e2:	bf00      	nop
 80009e4:	20000000 	.word	0x20000000

080009e8 <hal_write>:

static int hal_write(sh2_Hal_t *self, uint8_t *pBuffer, unsigned len)
{
 80009e8:	b580      	push	{r7, lr}
 80009ea:	b084      	sub	sp, #16
 80009ec:	af00      	add	r7, sp, #0
 80009ee:	60f8      	str	r0, [r7, #12]
 80009f0:	60b9      	str	r1, [r7, #8]
 80009f2:	607a      	str	r2, [r7, #4]
  (void)self;

  if ((pBuffer == NULL) || (len == 0U) || (len > SH2_HAL_MAX_TRANSFER_OUT)) {
 80009f4:	68bb      	ldr	r3, [r7, #8]
 80009f6:	2b00      	cmp	r3, #0
 80009f8:	d006      	beq.n	8000a08 <hal_write+0x20>
 80009fa:	687b      	ldr	r3, [r7, #4]
 80009fc:	2b00      	cmp	r3, #0
 80009fe:	d003      	beq.n	8000a08 <hal_write+0x20>
 8000a00:	687b      	ldr	r3, [r7, #4]
 8000a02:	f5b3 7f80 	cmp.w	r3, #256	@ 0x100
 8000a06:	d902      	bls.n	8000a0e <hal_write+0x26>
    return SH2_ERR_BAD_PARAM;
 8000a08:	f06f 0301 	mvn.w	r3, #1
 8000a0c:	e022      	b.n	8000a54 <hal_write+0x6c>
  }

  if (!wait_for_int()) {
 8000a0e:	f7ff fe0f 	bl	8000630 <wait_for_int>
 8000a12:	4603      	mov	r3, r0
 8000a14:	f083 0301 	eor.w	r3, r3, #1
 8000a18:	b2db      	uxtb	r3, r3
 8000a1a:	2b00      	cmp	r3, #0
 8000a1c:	d006      	beq.n	8000a2c <hal_write+0x44>
    bno085_dbg.tx_wait_timeout_count++;
 8000a1e:	4b0f      	ldr	r3, [pc, #60]	@ (8000a5c <hal_write+0x74>)
 8000a20:	6c1b      	ldr	r3, [r3, #64]	@ 0x40
 8000a22:	3301      	adds	r3, #1
 8000a24:	4a0d      	ldr	r2, [pc, #52]	@ (8000a5c <hal_write+0x74>)
 8000a26:	6413      	str	r3, [r2, #64]	@ 0x40
    return 0;
 8000a28:	2300      	movs	r3, #0
 8000a2a:	e013      	b.n	8000a54 <hal_write+0x6c>
  }

  if (!spi_write_bytes(pBuffer, (uint16_t)len)) {
 8000a2c:	687b      	ldr	r3, [r7, #4]
 8000a2e:	b29b      	uxth	r3, r3
 8000a30:	4619      	mov	r1, r3
 8000a32:	68b8      	ldr	r0, [r7, #8]
 8000a34:	f7ff ff08 	bl	8000848 <spi_write_bytes>
 8000a38:	4603      	mov	r3, r0
 8000a3a:	f083 0301 	eor.w	r3, r3, #1
 8000a3e:	b2db      	uxtb	r3, r3
 8000a40:	2b00      	cmp	r3, #0
 8000a42:	d001      	beq.n	8000a48 <hal_write+0x60>
    return 0;
 8000a44:	2300      	movs	r3, #0
 8000a46:	e005      	b.n	8000a54 <hal_write+0x6c>
  }

  bno085_dbg.write_count++;
 8000a48:	4b04      	ldr	r3, [pc, #16]	@ (8000a5c <hal_write+0x74>)
 8000a4a:	699b      	ldr	r3, [r3, #24]
 8000a4c:	3301      	adds	r3, #1
 8000a4e:	4a03      	ldr	r2, [pc, #12]	@ (8000a5c <hal_write+0x74>)
 8000a50:	6193      	str	r3, [r2, #24]

  return (int)len;
 8000a52:	687b      	ldr	r3, [r7, #4]
}
 8000a54:	4618      	mov	r0, r3
 8000a56:	3710      	adds	r7, #16
 8000a58:	46bd      	mov	sp, r7
 8000a5a:	bd80      	pop	{r7, pc}
 8000a5c:	20000000 	.word	0x20000000

08000a60 <hal_get_time_us>:

static uint32_t hal_get_time_us(sh2_Hal_t *self)
{
 8000a60:	b580      	push	{r7, lr}
 8000a62:	b082      	sub	sp, #8
 8000a64:	af00      	add	r7, sp, #0
 8000a66:	6078      	str	r0, [r7, #4]
  (void)self;

  return time_us();
 8000a68:	f7ff fda2 	bl	80005b0 <time_us>
 8000a6c:	4603      	mov	r3, r0
}
 8000a6e:	4618      	mov	r0, r3
 8000a70:	3708      	adds	r7, #8
 8000a72:	46bd      	mov	sp, r7
 8000a74:	bd80      	pop	{r7, pc}

08000a76 <clamp_float>:

static float clamp_float(float value, float min_value, float max_value)
{
 8000a76:	b480      	push	{r7}
 8000a78:	b085      	sub	sp, #20
 8000a7a:	af00      	add	r7, sp, #0
 8000a7c:	ed87 0a03 	vstr	s0, [r7, #12]
 8000a80:	edc7 0a02 	vstr	s1, [r7, #8]
 8000a84:	ed87 1a01 	vstr	s2, [r7, #4]
  if (value < min_value) {
 8000a88:	ed97 7a03 	vldr	s14, [r7, #12]
 8000a8c:	edd7 7a02 	vldr	s15, [r7, #8]
 8000a90:	eeb4 7ae7 	vcmpe.f32	s14, s15
 8000a94:	eef1 fa10 	vmrs	APSR_nzcv, fpscr
 8000a98:	d501      	bpl.n	8000a9e <clamp_float+0x28>
    return min_value;
 8000a9a:	68bb      	ldr	r3, [r7, #8]
 8000a9c:	e00b      	b.n	8000ab6 <clamp_float+0x40>
  }
  if (value > max_value) {
 8000a9e:	ed97 7a03 	vldr	s14, [r7, #12]
 8000aa2:	edd7 7a01 	vldr	s15, [r7, #4]
 8000aa6:	eeb4 7ae7 	vcmpe.f32	s14, s15
 8000aaa:	eef1 fa10 	vmrs	APSR_nzcv, fpscr
 8000aae:	dd01      	ble.n	8000ab4 <clamp_float+0x3e>
    return max_value;
 8000ab0:	687b      	ldr	r3, [r7, #4]
 8000ab2:	e000      	b.n	8000ab6 <clamp_float+0x40>
  }

  return value;
 8000ab4:	68fb      	ldr	r3, [r7, #12]
}
 8000ab6:	ee07 3a90 	vmov	s15, r3
 8000aba:	eeb0 0a67 	vmov.f32	s0, s15
 8000abe:	3714      	adds	r7, #20
 8000ac0:	46bd      	mov	sp, r7
 8000ac2:	f85d 7b04 	ldr.w	r7, [sp], #4
 8000ac6:	4770      	bx	lr

08000ac8 <update_euler_from_quat>:

static void update_euler_from_quat(float i, float j, float k, float real)
{
 8000ac8:	b580      	push	{r7, lr}
 8000aca:	b08a      	sub	sp, #40	@ 0x28
 8000acc:	af00      	add	r7, sp, #0
 8000ace:	ed87 0a03 	vstr	s0, [r7, #12]
 8000ad2:	edc7 0a02 	vstr	s1, [r7, #8]
 8000ad6:	ed87 1a01 	vstr	s2, [r7, #4]
 8000ada:	edc7 1a00 	vstr	s3, [r7]
  float sinr_cosp = 2.0f * ((real * i) + (j * k));
 8000ade:	ed97 7a00 	vldr	s14, [r7]
 8000ae2:	edd7 7a03 	vldr	s15, [r7, #12]
 8000ae6:	ee27 7a27 	vmul.f32	s14, s14, s15
 8000aea:	edd7 6a02 	vldr	s13, [r7, #8]
 8000aee:	edd7 7a01 	vldr	s15, [r7, #4]
 8000af2:	ee66 7aa7 	vmul.f32	s15, s13, s15
 8000af6:	ee77 7a27 	vadd.f32	s15, s14, s15
 8000afa:	ee77 7aa7 	vadd.f32	s15, s15, s15
 8000afe:	edc7 7a09 	vstr	s15, [r7, #36]	@ 0x24
  float cosr_cosp = 1.0f - (2.0f * ((i * i) + (j * j)));
 8000b02:	edd7 7a03 	vldr	s15, [r7, #12]
 8000b06:	ee27 7aa7 	vmul.f32	s14, s15, s15
 8000b0a:	edd7 7a02 	vldr	s15, [r7, #8]
 8000b0e:	ee67 7aa7 	vmul.f32	s15, s15, s15
 8000b12:	ee77 7a27 	vadd.f32	s15, s14, s15
 8000b16:	ee77 7aa7 	vadd.f32	s15, s15, s15
 8000b1a:	eeb7 7a00 	vmov.f32	s14, #112	@ 0x3f800000  1.0
 8000b1e:	ee77 7a67 	vsub.f32	s15, s14, s15
 8000b22:	edc7 7a08 	vstr	s15, [r7, #32]
  float sinp = 2.0f * ((real * j) - (k * i));
 8000b26:	ed97 7a00 	vldr	s14, [r7]
 8000b2a:	edd7 7a02 	vldr	s15, [r7, #8]
 8000b2e:	ee27 7a27 	vmul.f32	s14, s14, s15
 8000b32:	edd7 6a01 	vldr	s13, [r7, #4]
 8000b36:	edd7 7a03 	vldr	s15, [r7, #12]
 8000b3a:	ee66 7aa7 	vmul.f32	s15, s13, s15
 8000b3e:	ee77 7a67 	vsub.f32	s15, s14, s15
 8000b42:	ee77 7aa7 	vadd.f32	s15, s15, s15
 8000b46:	edc7 7a07 	vstr	s15, [r7, #28]
  float siny_cosp = 2.0f * ((real * k) + (i * j));
 8000b4a:	ed97 7a00 	vldr	s14, [r7]
 8000b4e:	edd7 7a01 	vldr	s15, [r7, #4]
 8000b52:	ee27 7a27 	vmul.f32	s14, s14, s15
 8000b56:	edd7 6a03 	vldr	s13, [r7, #12]
 8000b5a:	edd7 7a02 	vldr	s15, [r7, #8]
 8000b5e:	ee66 7aa7 	vmul.f32	s15, s13, s15
 8000b62:	ee77 7a27 	vadd.f32	s15, s14, s15
 8000b66:	ee77 7aa7 	vadd.f32	s15, s15, s15
 8000b6a:	edc7 7a06 	vstr	s15, [r7, #24]
  float cosy_cosp = 1.0f - (2.0f * ((j * j) + (k * k)));
 8000b6e:	edd7 7a02 	vldr	s15, [r7, #8]
 8000b72:	ee27 7aa7 	vmul.f32	s14, s15, s15
 8000b76:	edd7 7a01 	vldr	s15, [r7, #4]
 8000b7a:	ee67 7aa7 	vmul.f32	s15, s15, s15
 8000b7e:	ee77 7a27 	vadd.f32	s15, s14, s15
 8000b82:	ee77 7aa7 	vadd.f32	s15, s15, s15
 8000b86:	eeb7 7a00 	vmov.f32	s14, #112	@ 0x3f800000  1.0
 8000b8a:	ee77 7a67 	vsub.f32	s15, s14, s15
 8000b8e:	edc7 7a05 	vstr	s15, [r7, #20]

  bno085_dbg.roll_deg = atan2f(sinr_cosp, cosr_cosp) * BNO085_RAD_TO_DEG;
 8000b92:	edd7 0a08 	vldr	s1, [r7, #32]
 8000b96:	ed97 0a09 	vldr	s0, [r7, #36]	@ 0x24
 8000b9a:	f006 fb43 	bl	8007224 <atan2f>
 8000b9e:	eef0 7a40 	vmov.f32	s15, s0
 8000ba2:	ed9f 7a18 	vldr	s14, [pc, #96]	@ 8000c04 <update_euler_from_quat+0x13c>
 8000ba6:	ee67 7a87 	vmul.f32	s15, s15, s14
 8000baa:	4b17      	ldr	r3, [pc, #92]	@ (8000c08 <update_euler_from_quat+0x140>)
 8000bac:	edc3 7a2a 	vstr	s15, [r3, #168]	@ 0xa8
  bno085_dbg.pitch_deg =
      asinf(clamp_float(sinp, -1.0f, 1.0f)) * BNO085_RAD_TO_DEG;
 8000bb0:	eeb7 1a00 	vmov.f32	s2, #112	@ 0x3f800000  1.0
 8000bb4:	eeff 0a00 	vmov.f32	s1, #240	@ 0xbf800000 -1.0
 8000bb8:	ed97 0a07 	vldr	s0, [r7, #28]
 8000bbc:	f7ff ff5b 	bl	8000a76 <clamp_float>
 8000bc0:	eef0 7a40 	vmov.f32	s15, s0
 8000bc4:	eeb0 0a67 	vmov.f32	s0, s15
 8000bc8:	f006 fb00 	bl	80071cc <asinf>
 8000bcc:	eef0 7a40 	vmov.f32	s15, s0
 8000bd0:	ed9f 7a0c 	vldr	s14, [pc, #48]	@ 8000c04 <update_euler_from_quat+0x13c>
 8000bd4:	ee67 7a87 	vmul.f32	s15, s15, s14
  bno085_dbg.pitch_deg =
 8000bd8:	4b0b      	ldr	r3, [pc, #44]	@ (8000c08 <update_euler_from_quat+0x140>)
 8000bda:	edc3 7a2b 	vstr	s15, [r3, #172]	@ 0xac
  bno085_dbg.yaw_deg = atan2f(siny_cosp, cosy_cosp) * BNO085_RAD_TO_DEG;
 8000bde:	edd7 0a05 	vldr	s1, [r7, #20]
 8000be2:	ed97 0a06 	vldr	s0, [r7, #24]
 8000be6:	f006 fb1d 	bl	8007224 <atan2f>
 8000bea:	eef0 7a40 	vmov.f32	s15, s0
 8000bee:	ed9f 7a05 	vldr	s14, [pc, #20]	@ 8000c04 <update_euler_from_quat+0x13c>
 8000bf2:	ee67 7a87 	vmul.f32	s15, s15, s14
 8000bf6:	4b04      	ldr	r3, [pc, #16]	@ (8000c08 <update_euler_from_quat+0x140>)
 8000bf8:	edc3 7a2c 	vstr	s15, [r3, #176]	@ 0xb0
}
 8000bfc:	bf00      	nop
 8000bfe:	3728      	adds	r7, #40	@ 0x28
 8000c00:	46bd      	mov	sp, r7
 8000c02:	bd80      	pop	{r7, pc}
 8000c04:	42652ee1 	.word	0x42652ee1
 8000c08:	20000000 	.word	0x20000000

08000c0c <event_callback>:

static void event_callback(void *cookie, sh2_AsyncEvent_t *pEvent)
{
 8000c0c:	b480      	push	{r7}
 8000c0e:	b083      	sub	sp, #12
 8000c10:	af00      	add	r7, sp, #0
 8000c12:	6078      	str	r0, [r7, #4]
 8000c14:	6039      	str	r1, [r7, #0]
  (void)cookie;

  if (pEvent == NULL) {
 8000c16:	683b      	ldr	r3, [r7, #0]
 8000c18:	2b00      	cmp	r3, #0
 8000c1a:	d013      	beq.n	8000c44 <event_callback+0x38>
    return;
  }

  if (pEvent->eventId == SH2_RESET) {
 8000c1c:	683b      	ldr	r3, [r7, #0]
 8000c1e:	681b      	ldr	r3, [r3, #0]
 8000c20:	2b00      	cmp	r3, #0
 8000c22:	d105      	bne.n	8000c30 <event_callback+0x24>
    bno085_dbg.reset_event_count++;
 8000c24:	4b0a      	ldr	r3, [pc, #40]	@ (8000c50 <event_callback+0x44>)
 8000c26:	6c5b      	ldr	r3, [r3, #68]	@ 0x44
 8000c28:	3301      	adds	r3, #1
 8000c2a:	4a09      	ldr	r2, [pc, #36]	@ (8000c50 <event_callback+0x44>)
 8000c2c:	6453      	str	r3, [r2, #68]	@ 0x44
 8000c2e:	e00a      	b.n	8000c46 <event_callback+0x3a>
  } else if (pEvent->eventId == SH2_GET_FEATURE_RESP) {
 8000c30:	683b      	ldr	r3, [r7, #0]
 8000c32:	681b      	ldr	r3, [r3, #0]
 8000c34:	2b02      	cmp	r3, #2
 8000c36:	d106      	bne.n	8000c46 <event_callback+0x3a>
    bno085_dbg.get_feature_count++;
 8000c38:	4b05      	ldr	r3, [pc, #20]	@ (8000c50 <event_callback+0x44>)
 8000c3a:	6c9b      	ldr	r3, [r3, #72]	@ 0x48
 8000c3c:	3301      	adds	r3, #1
 8000c3e:	4a04      	ldr	r2, [pc, #16]	@ (8000c50 <event_callback+0x44>)
 8000c40:	6493      	str	r3, [r2, #72]	@ 0x48
 8000c42:	e000      	b.n	8000c46 <event_callback+0x3a>
    return;
 8000c44:	bf00      	nop
  }
}
 8000c46:	370c      	adds	r7, #12
 8000c48:	46bd      	mov	sp, r7
 8000c4a:	f85d 7b04 	ldr.w	r7, [sp], #4
 8000c4e:	4770      	bx	lr
 8000c50:	20000000 	.word	0x20000000

08000c54 <sensor_callback>:

static void sensor_callback(void *cookie, sh2_SensorEvent_t *pEvent)
{
 8000c54:	b580      	push	{r7, lr}
 8000c56:	b08e      	sub	sp, #56	@ 0x38
 8000c58:	af00      	add	r7, sp, #0
 8000c5a:	6078      	str	r0, [r7, #4]
 8000c5c:	6039      	str	r1, [r7, #0]
  sh2_SensorValue_t value;

  (void)cookie;

  if (pEvent == NULL) {
 8000c5e:	683b      	ldr	r3, [r7, #0]
 8000c60:	2b00      	cmp	r3, #0
 8000c62:	d056      	beq.n	8000d12 <sensor_callback+0xbe>
    return;
  }

  bno085_dbg.callback_count++;
 8000c64:	4b2e      	ldr	r3, [pc, #184]	@ (8000d20 <sensor_callback+0xcc>)
 8000c66:	6a1b      	ldr	r3, [r3, #32]
 8000c68:	3301      	adds	r3, #1
 8000c6a:	4a2d      	ldr	r2, [pc, #180]	@ (8000d20 <sensor_callback+0xcc>)
 8000c6c:	6213      	str	r3, [r2, #32]
  bno085_dbg.report_id = pEvent->reportId;
 8000c6e:	683b      	ldr	r3, [r7, #0]
 8000c70:	7a5a      	ldrb	r2, [r3, #9]
 8000c72:	4b2b      	ldr	r3, [pc, #172]	@ (8000d20 <sensor_callback+0xcc>)
 8000c74:	f883 208f 	strb.w	r2, [r3, #143]	@ 0x8f
  bno085_dbg.timestamp = pEvent->timestamp_uS;
 8000c78:	683b      	ldr	r3, [r7, #0]
 8000c7a:	e9d3 2300 	ldrd	r2, r3, [r3]
 8000c7e:	4928      	ldr	r1, [pc, #160]	@ (8000d20 <sensor_callback+0xcc>)
 8000c80:	e9c1 2324 	strd	r2, r3, [r1, #144]	@ 0x90
  bno085_dbg.decode_status = sh2_decodeSensorEvent(&value, pEvent);
 8000c84:	f107 0308 	add.w	r3, r7, #8
 8000c88:	6839      	ldr	r1, [r7, #0]
 8000c8a:	4618      	mov	r0, r3
 8000c8c:	f000 ffaa 	bl	8001be4 <sh2_decodeSensorEvent>
 8000c90:	4603      	mov	r3, r0
 8000c92:	4a23      	ldr	r2, [pc, #140]	@ (8000d20 <sensor_callback+0xcc>)
 8000c94:	60d3      	str	r3, [r2, #12]

  if (bno085_dbg.decode_status != SH2_OK) {
 8000c96:	4b22      	ldr	r3, [pc, #136]	@ (8000d20 <sensor_callback+0xcc>)
 8000c98:	68db      	ldr	r3, [r3, #12]
 8000c9a:	2b00      	cmp	r3, #0
 8000c9c:	d13b      	bne.n	8000d16 <sensor_callback+0xc2>
    return;
  }

  if (value.sensorId == SH2_ARVR_STABILIZED_RV) {
 8000c9e:	7a3b      	ldrb	r3, [r7, #8]
 8000ca0:	2b28      	cmp	r3, #40	@ 0x28
 8000ca2:	d126      	bne.n	8000cf2 <sensor_callback+0x9e>
    bno085_dbg.quat_i = value.un.arvrStabilizedRV.i;
 8000ca4:	69fb      	ldr	r3, [r7, #28]
 8000ca6:	4a1e      	ldr	r2, [pc, #120]	@ (8000d20 <sensor_callback+0xcc>)
 8000ca8:	f8c2 3098 	str.w	r3, [r2, #152]	@ 0x98
    bno085_dbg.quat_j = value.un.arvrStabilizedRV.j;
 8000cac:	6a3b      	ldr	r3, [r7, #32]
 8000cae:	4a1c      	ldr	r2, [pc, #112]	@ (8000d20 <sensor_callback+0xcc>)
 8000cb0:	f8c2 309c 	str.w	r3, [r2, #156]	@ 0x9c
    bno085_dbg.quat_k = value.un.arvrStabilizedRV.k;
 8000cb4:	6a7b      	ldr	r3, [r7, #36]	@ 0x24
 8000cb6:	4a1a      	ldr	r2, [pc, #104]	@ (8000d20 <sensor_callback+0xcc>)
 8000cb8:	f8c2 30a0 	str.w	r3, [r2, #160]	@ 0xa0
    bno085_dbg.quat_real = value.un.arvrStabilizedRV.real;
 8000cbc:	6abb      	ldr	r3, [r7, #40]	@ 0x28
 8000cbe:	4a18      	ldr	r2, [pc, #96]	@ (8000d20 <sensor_callback+0xcc>)
 8000cc0:	f8c2 30a4 	str.w	r3, [r2, #164]	@ 0xa4
    update_euler_from_quat(bno085_dbg.quat_i, bno085_dbg.quat_j,
 8000cc4:	4b16      	ldr	r3, [pc, #88]	@ (8000d20 <sensor_callback+0xcc>)
 8000cc6:	edd3 7a26 	vldr	s15, [r3, #152]	@ 0x98
 8000cca:	4b15      	ldr	r3, [pc, #84]	@ (8000d20 <sensor_callback+0xcc>)
 8000ccc:	ed93 7a27 	vldr	s14, [r3, #156]	@ 0x9c
                           bno085_dbg.quat_k, bno085_dbg.quat_real);
 8000cd0:	4b13      	ldr	r3, [pc, #76]	@ (8000d20 <sensor_callback+0xcc>)
 8000cd2:	edd3 6a28 	vldr	s13, [r3, #160]	@ 0xa0
 8000cd6:	4b12      	ldr	r3, [pc, #72]	@ (8000d20 <sensor_callback+0xcc>)
 8000cd8:	ed93 6a29 	vldr	s12, [r3, #164]	@ 0xa4
    update_euler_from_quat(bno085_dbg.quat_i, bno085_dbg.quat_j,
 8000cdc:	eef0 1a46 	vmov.f32	s3, s12
 8000ce0:	eeb0 1a66 	vmov.f32	s2, s13
 8000ce4:	eef0 0a47 	vmov.f32	s1, s14
 8000ce8:	eeb0 0a67 	vmov.f32	s0, s15
 8000cec:	f7ff feec 	bl	8000ac8 <update_euler_from_quat>
 8000cf0:	e012      	b.n	8000d18 <sensor_callback+0xc4>
  } else if (value.sensorId == SH2_ACCELEROMETER) {
 8000cf2:	7a3b      	ldrb	r3, [r7, #8]
 8000cf4:	2b01      	cmp	r3, #1
 8000cf6:	d10f      	bne.n	8000d18 <sensor_callback+0xc4>
    bno085_dbg.accel_x = value.un.accelerometer.x;
 8000cf8:	69fb      	ldr	r3, [r7, #28]
 8000cfa:	4a09      	ldr	r2, [pc, #36]	@ (8000d20 <sensor_callback+0xcc>)
 8000cfc:	f8c2 30b4 	str.w	r3, [r2, #180]	@ 0xb4
    bno085_dbg.accel_y = value.un.accelerometer.y;
 8000d00:	6a3b      	ldr	r3, [r7, #32]
 8000d02:	4a07      	ldr	r2, [pc, #28]	@ (8000d20 <sensor_callback+0xcc>)
 8000d04:	f8c2 30b8 	str.w	r3, [r2, #184]	@ 0xb8
    bno085_dbg.accel_z = value.un.accelerometer.z;
 8000d08:	6a7b      	ldr	r3, [r7, #36]	@ 0x24
 8000d0a:	4a05      	ldr	r2, [pc, #20]	@ (8000d20 <sensor_callback+0xcc>)
 8000d0c:	f8c2 30bc 	str.w	r3, [r2, #188]	@ 0xbc
 8000d10:	e002      	b.n	8000d18 <sensor_callback+0xc4>
    return;
 8000d12:	bf00      	nop
 8000d14:	e000      	b.n	8000d18 <sensor_callback+0xc4>
    return;
 8000d16:	bf00      	nop
  }
}
 8000d18:	3738      	adds	r7, #56	@ 0x38
 8000d1a:	46bd      	mov	sp, r7
 8000d1c:	bd80      	pop	{r7, pc}
 8000d1e:	bf00      	nop
 8000d20:	20000000 	.word	0x20000000

08000d24 <enable_report>:

static int32_t enable_report(sh2_SensorId_t sensor_id)
{
 8000d24:	b580      	push	{r7, lr}
 8000d26:	b088      	sub	sp, #32
 8000d28:	af00      	add	r7, sp, #0
 8000d2a:	4603      	mov	r3, r0
 8000d2c:	71fb      	strb	r3, [r7, #7]
  sh2_SensorConfig_t config = {0};
 8000d2e:	f107 030c 	add.w	r3, r7, #12
 8000d32:	2200      	movs	r2, #0
 8000d34:	601a      	str	r2, [r3, #0]
 8000d36:	605a      	str	r2, [r3, #4]
 8000d38:	609a      	str	r2, [r3, #8]
 8000d3a:	60da      	str	r2, [r3, #12]
 8000d3c:	611a      	str	r2, [r3, #16]

  config.reportInterval_us = BNO085_REPORT_INTERVAL_US;
 8000d3e:	f242 7310 	movw	r3, #10000	@ 0x2710
 8000d42:	617b      	str	r3, [r7, #20]

  return sh2_setSensorConfig(sensor_id, &config);
 8000d44:	f107 020c 	add.w	r2, r7, #12
 8000d48:	79fb      	ldrb	r3, [r7, #7]
 8000d4a:	4611      	mov	r1, r2
 8000d4c:	4618      	mov	r0, r3
 8000d4e:	f000 ff25 	bl	8001b9c <sh2_setSensorConfig>
 8000d52:	4603      	mov	r3, r0
}
 8000d54:	4618      	mov	r0, r3
 8000d56:	3720      	adds	r7, #32
 8000d58:	46bd      	mov	sp, r7
 8000d5a:	bd80      	pop	{r7, pc}

08000d5c <enable_reports>:

static int32_t enable_reports(void)
{
 8000d5c:	b580      	push	{r7, lr}
 8000d5e:	b082      	sub	sp, #8
 8000d60:	af00      	add	r7, sp, #0
  int32_t status;

  status = enable_report(SH2_ARVR_STABILIZED_RV);
 8000d62:	2028      	movs	r0, #40	@ 0x28
 8000d64:	f7ff ffde 	bl	8000d24 <enable_report>
 8000d68:	6078      	str	r0, [r7, #4]
  if (status != SH2_OK) {
 8000d6a:	687b      	ldr	r3, [r7, #4]
 8000d6c:	2b00      	cmp	r3, #0
 8000d6e:	d001      	beq.n	8000d74 <enable_reports+0x18>
    return status;
 8000d70:	687b      	ldr	r3, [r7, #4]
 8000d72:	e003      	b.n	8000d7c <enable_reports+0x20>
  }

  return enable_report(SH2_ACCELEROMETER);
 8000d74:	2001      	movs	r0, #1
 8000d76:	f7ff ffd5 	bl	8000d24 <enable_report>
 8000d7a:	4603      	mov	r3, r0
}
 8000d7c:	4618      	mov	r0, r3
 8000d7e:	3708      	adds	r7, #8
 8000d80:	46bd      	mov	sp, r7
 8000d82:	bd80      	pop	{r7, pc}

08000d84 <run_command>:

static void run_command(uint32_t cmd)
{
 8000d84:	b580      	push	{r7, lr}
 8000d86:	b082      	sub	sp, #8
 8000d88:	af00      	add	r7, sp, #0
 8000d8a:	6078      	str	r0, [r7, #4]
  bno085_dbg.stage = cmd;
 8000d8c:	4a3a      	ldr	r2, [pc, #232]	@ (8000e78 <run_command+0xf4>)
 8000d8e:	687b      	ldr	r3, [r7, #4]
 8000d90:	6793      	str	r3, [r2, #120]	@ 0x78
  bno085_dbg.cmd_status = 999;
 8000d92:	4b39      	ldr	r3, [pc, #228]	@ (8000e78 <run_command+0xf4>)
 8000d94:	f240 32e7 	movw	r2, #999	@ 0x3e7
 8000d98:	67da      	str	r2, [r3, #124]	@ 0x7c

  switch (cmd) {
 8000d9a:	687b      	ldr	r3, [r7, #4]
 8000d9c:	3b01      	subs	r3, #1
 8000d9e:	2b06      	cmp	r3, #6
 8000da0:	d860      	bhi.n	8000e64 <run_command+0xe0>
 8000da2:	a201      	add	r2, pc, #4	@ (adr r2, 8000da8 <run_command+0x24>)
 8000da4:	f852 f023 	ldr.w	pc, [r2, r3, lsl #2]
 8000da8:	08000dc5 	.word	0x08000dc5
 8000dac:	08000dd1 	.word	0x08000dd1
 8000db0:	08000e0f 	.word	0x08000e0f
 8000db4:	08000e25 	.word	0x08000e25
 8000db8:	08000e35 	.word	0x08000e35
 8000dbc:	08000e49 	.word	0x08000e49
 8000dc0:	08000e57 	.word	0x08000e57
  case BNO085_CMD_RESET:
    hardware_reset();
 8000dc4:	f7ff fc5e 	bl	8000684 <hardware_reset>
    bno085_dbg.cmd_status = SH2_OK;
 8000dc8:	4b2b      	ldr	r3, [pc, #172]	@ (8000e78 <run_command+0xf4>)
 8000dca:	2200      	movs	r2, #0
 8000dcc:	67da      	str	r2, [r3, #124]	@ 0x7c
    break;
 8000dce:	e04e      	b.n	8000e6e <run_command+0xea>

  case BNO085_CMD_OPEN:
    if (sh2_is_open) {
 8000dd0:	4b2a      	ldr	r3, [pc, #168]	@ (8000e7c <run_command+0xf8>)
 8000dd2:	781b      	ldrb	r3, [r3, #0]
 8000dd4:	2b00      	cmp	r3, #0
 8000dd6:	d004      	beq.n	8000de2 <run_command+0x5e>
      sh2_close();
 8000dd8:	f000 fe84 	bl	8001ae4 <sh2_close>
      sh2_is_open = false;
 8000ddc:	4b27      	ldr	r3, [pc, #156]	@ (8000e7c <run_command+0xf8>)
 8000dde:	2200      	movs	r2, #0
 8000de0:	701a      	strb	r2, [r3, #0]
    }
    bno085_dbg.open_status = sh2_open(&sh2_hal, event_callback, NULL);
 8000de2:	2200      	movs	r2, #0
 8000de4:	4926      	ldr	r1, [pc, #152]	@ (8000e80 <run_command+0xfc>)
 8000de6:	4827      	ldr	r0, [pc, #156]	@ (8000e84 <run_command+0x100>)
 8000de8:	f000 fdb4 	bl	8001954 <sh2_open>
 8000dec:	4603      	mov	r3, r0
 8000dee:	4a22      	ldr	r2, [pc, #136]	@ (8000e78 <run_command+0xf4>)
 8000df0:	6013      	str	r3, [r2, #0]
    sh2_is_open = bno085_dbg.open_status == SH2_OK;
 8000df2:	4b21      	ldr	r3, [pc, #132]	@ (8000e78 <run_command+0xf4>)
 8000df4:	681b      	ldr	r3, [r3, #0]
 8000df6:	2b00      	cmp	r3, #0
 8000df8:	bf0c      	ite	eq
 8000dfa:	2301      	moveq	r3, #1
 8000dfc:	2300      	movne	r3, #0
 8000dfe:	b2da      	uxtb	r2, r3
 8000e00:	4b1e      	ldr	r3, [pc, #120]	@ (8000e7c <run_command+0xf8>)
 8000e02:	701a      	strb	r2, [r3, #0]
    bno085_dbg.cmd_status = bno085_dbg.open_status;
 8000e04:	4b1c      	ldr	r3, [pc, #112]	@ (8000e78 <run_command+0xf4>)
 8000e06:	681b      	ldr	r3, [r3, #0]
 8000e08:	4a1b      	ldr	r2, [pc, #108]	@ (8000e78 <run_command+0xf4>)
 8000e0a:	67d3      	str	r3, [r2, #124]	@ 0x7c
    break;
 8000e0c:	e02f      	b.n	8000e6e <run_command+0xea>

  case BNO085_CMD_PROD:
    bno085_dbg.prod_status = sh2_getProdIds(&product_ids);
 8000e0e:	481e      	ldr	r0, [pc, #120]	@ (8000e88 <run_command+0x104>)
 8000e10:	f000 fea6 	bl	8001b60 <sh2_getProdIds>
 8000e14:	4603      	mov	r3, r0
 8000e16:	4a18      	ldr	r2, [pc, #96]	@ (8000e78 <run_command+0xf4>)
 8000e18:	6053      	str	r3, [r2, #4]
    bno085_dbg.cmd_status = bno085_dbg.prod_status;
 8000e1a:	4b17      	ldr	r3, [pc, #92]	@ (8000e78 <run_command+0xf4>)
 8000e1c:	685b      	ldr	r3, [r3, #4]
 8000e1e:	4a16      	ldr	r2, [pc, #88]	@ (8000e78 <run_command+0xf4>)
 8000e20:	67d3      	str	r3, [r2, #124]	@ 0x7c
    break;
 8000e22:	e024      	b.n	8000e6e <run_command+0xea>

  case BNO085_CMD_CALLBACK:
    bno085_dbg.cmd_status = sh2_setSensorCallback(sensor_callback, NULL);
 8000e24:	2100      	movs	r1, #0
 8000e26:	4819      	ldr	r0, [pc, #100]	@ (8000e8c <run_command+0x108>)
 8000e28:	f000 fe82 	bl	8001b30 <sh2_setSensorCallback>
 8000e2c:	4603      	mov	r3, r0
 8000e2e:	4a12      	ldr	r2, [pc, #72]	@ (8000e78 <run_command+0xf4>)
 8000e30:	67d3      	str	r3, [r2, #124]	@ 0x7c
    break;
 8000e32:	e01c      	b.n	8000e6e <run_command+0xea>

  case BNO085_CMD_ENABLE_ARVR:
    bno085_dbg.enable_status = enable_reports();
 8000e34:	f7ff ff92 	bl	8000d5c <enable_reports>
 8000e38:	4603      	mov	r3, r0
 8000e3a:	4a0f      	ldr	r2, [pc, #60]	@ (8000e78 <run_command+0xf4>)
 8000e3c:	6093      	str	r3, [r2, #8]
    bno085_dbg.cmd_status = bno085_dbg.enable_status;
 8000e3e:	4b0e      	ldr	r3, [pc, #56]	@ (8000e78 <run_command+0xf4>)
 8000e40:	689b      	ldr	r3, [r3, #8]
 8000e42:	4a0d      	ldr	r2, [pc, #52]	@ (8000e78 <run_command+0xf4>)
 8000e44:	67d3      	str	r3, [r2, #124]	@ 0x7c
    break;
 8000e46:	e012      	b.n	8000e6e <run_command+0xea>

  case BNO085_CMD_STREAM_ON:
    stream_enabled = true;
 8000e48:	4b11      	ldr	r3, [pc, #68]	@ (8000e90 <run_command+0x10c>)
 8000e4a:	2201      	movs	r2, #1
 8000e4c:	701a      	strb	r2, [r3, #0]
    bno085_dbg.cmd_status = SH2_OK;
 8000e4e:	4b0a      	ldr	r3, [pc, #40]	@ (8000e78 <run_command+0xf4>)
 8000e50:	2200      	movs	r2, #0
 8000e52:	67da      	str	r2, [r3, #124]	@ 0x7c
    break;
 8000e54:	e00b      	b.n	8000e6e <run_command+0xea>

  case BNO085_CMD_STREAM_OFF:
    stream_enabled = false;
 8000e56:	4b0e      	ldr	r3, [pc, #56]	@ (8000e90 <run_command+0x10c>)
 8000e58:	2200      	movs	r2, #0
 8000e5a:	701a      	strb	r2, [r3, #0]
    bno085_dbg.cmd_status = SH2_OK;
 8000e5c:	4b06      	ldr	r3, [pc, #24]	@ (8000e78 <run_command+0xf4>)
 8000e5e:	2200      	movs	r2, #0
 8000e60:	67da      	str	r2, [r3, #124]	@ 0x7c
    break;
 8000e62:	e004      	b.n	8000e6e <run_command+0xea>

  default:
    bno085_dbg.cmd_status = SH2_ERR_BAD_PARAM;
 8000e64:	4b04      	ldr	r3, [pc, #16]	@ (8000e78 <run_command+0xf4>)
 8000e66:	f06f 0201 	mvn.w	r2, #1
 8000e6a:	67da      	str	r2, [r3, #124]	@ 0x7c
    break;
 8000e6c:	bf00      	nop
  }
}
 8000e6e:	bf00      	nop
 8000e70:	3708      	adds	r7, #8
 8000e72:	46bd      	mov	sp, r7
 8000e74:	bd80      	pop	{r7, pc}
 8000e76:	bf00      	nop
 8000e78:	20000000 	.word	0x20000000
 8000e7c:	20000434 	.word	0x20000434
 8000e80:	08000c0d 	.word	0x08000c0d
 8000e84:	2000014c 	.word	0x2000014c
 8000e88:	20000160 	.word	0x20000160
 8000e8c:	08000c55 	.word	0x08000c55
 8000e90:	20000435 	.word	0x20000435

08000e94 <CEVA_BNO085_Init>:

void CEVA_BNO085_Init(void)
{
 8000e94:	b580      	push	{r7, lr}
 8000e96:	af00      	add	r7, sp, #0
  memset((void *)&bno085_dbg, 0, sizeof(bno085_dbg));
 8000e98:	22c0      	movs	r2, #192	@ 0xc0
 8000e9a:	2100      	movs	r1, #0
 8000e9c:	4817      	ldr	r0, [pc, #92]	@ (8000efc <CEVA_BNO085_Init+0x68>)
 8000e9e:	f006 f94c 	bl	800713a <memset>
  bno085_dbg.open_status = 999;
 8000ea2:	4b16      	ldr	r3, [pc, #88]	@ (8000efc <CEVA_BNO085_Init+0x68>)
 8000ea4:	f240 32e7 	movw	r2, #999	@ 0x3e7
 8000ea8:	601a      	str	r2, [r3, #0]
  bno085_dbg.prod_status = 999;
 8000eaa:	4b14      	ldr	r3, [pc, #80]	@ (8000efc <CEVA_BNO085_Init+0x68>)
 8000eac:	f240 32e7 	movw	r2, #999	@ 0x3e7
 8000eb0:	605a      	str	r2, [r3, #4]
  bno085_dbg.enable_status = 999;
 8000eb2:	4b12      	ldr	r3, [pc, #72]	@ (8000efc <CEVA_BNO085_Init+0x68>)
 8000eb4:	f240 32e7 	movw	r2, #999	@ 0x3e7
 8000eb8:	609a      	str	r2, [r3, #8]
  bno085_dbg.decode_status = 999;
 8000eba:	4b10      	ldr	r3, [pc, #64]	@ (8000efc <CEVA_BNO085_Init+0x68>)
 8000ebc:	f240 32e7 	movw	r2, #999	@ 0x3e7
 8000ec0:	60da      	str	r2, [r3, #12]
  bno085_dbg.cmd_status = 999;
 8000ec2:	4b0e      	ldr	r3, [pc, #56]	@ (8000efc <CEVA_BNO085_Init+0x68>)
 8000ec4:	f240 32e7 	movw	r2, #999	@ 0x3e7
 8000ec8:	67da      	str	r2, [r3, #124]	@ 0x7c

  sh2_hal.open = hal_open;
 8000eca:	4b0d      	ldr	r3, [pc, #52]	@ (8000f00 <CEVA_BNO085_Init+0x6c>)
 8000ecc:	4a0d      	ldr	r2, [pc, #52]	@ (8000f04 <CEVA_BNO085_Init+0x70>)
 8000ece:	601a      	str	r2, [r3, #0]
  sh2_hal.close = hal_close;
 8000ed0:	4b0b      	ldr	r3, [pc, #44]	@ (8000f00 <CEVA_BNO085_Init+0x6c>)
 8000ed2:	4a0d      	ldr	r2, [pc, #52]	@ (8000f08 <CEVA_BNO085_Init+0x74>)
 8000ed4:	605a      	str	r2, [r3, #4]
  sh2_hal.read = hal_read;
 8000ed6:	4b0a      	ldr	r3, [pc, #40]	@ (8000f00 <CEVA_BNO085_Init+0x6c>)
 8000ed8:	4a0c      	ldr	r2, [pc, #48]	@ (8000f0c <CEVA_BNO085_Init+0x78>)
 8000eda:	609a      	str	r2, [r3, #8]
  sh2_hal.write = hal_write;
 8000edc:	4b08      	ldr	r3, [pc, #32]	@ (8000f00 <CEVA_BNO085_Init+0x6c>)
 8000ede:	4a0c      	ldr	r2, [pc, #48]	@ (8000f10 <CEVA_BNO085_Init+0x7c>)
 8000ee0:	60da      	str	r2, [r3, #12]
  sh2_hal.getTimeUs = hal_get_time_us;
 8000ee2:	4b07      	ldr	r3, [pc, #28]	@ (8000f00 <CEVA_BNO085_Init+0x6c>)
 8000ee4:	4a0b      	ldr	r2, [pc, #44]	@ (8000f14 <CEVA_BNO085_Init+0x80>)
 8000ee6:	611a      	str	r2, [r3, #16]

  csn(true);
 8000ee8:	2001      	movs	r0, #1
 8000eea:	f7ff fb3d 	bl	8000568 <csn>
  rstn(true);
 8000eee:	2001      	movs	r0, #1
 8000ef0:	f7ff fb4c 	bl	800058c <rstn>
  update_io_debug();
 8000ef4:	f7ff fb7a 	bl	80005ec <update_io_debug>
}
 8000ef8:	bf00      	nop
 8000efa:	bd80      	pop	{r7, pc}
 8000efc:	20000000 	.word	0x20000000
 8000f00:	2000014c 	.word	0x2000014c
 8000f04:	080008a1 	.word	0x080008a1
 8000f08:	080008c5 	.word	0x080008c5
 8000f0c:	080008f9 	.word	0x080008f9
 8000f10:	080009e9 	.word	0x080009e9
 8000f14:	08000a61 	.word	0x08000a61

08000f18 <CEVA_BNO085_Service>:

void CEVA_BNO085_Service(void)
{
 8000f18:	b580      	push	{r7, lr}
 8000f1a:	b082      	sub	sp, #8
 8000f1c:	af00      	add	r7, sp, #0
  uint32_t cmd = bno085_cmd;
 8000f1e:	4b10      	ldr	r3, [pc, #64]	@ (8000f60 <CEVA_BNO085_Service+0x48>)
 8000f20:	681b      	ldr	r3, [r3, #0]
 8000f22:	607b      	str	r3, [r7, #4]

  if (cmd != 0U) {
 8000f24:	687b      	ldr	r3, [r7, #4]
 8000f26:	2b00      	cmp	r3, #0
 8000f28:	d005      	beq.n	8000f36 <CEVA_BNO085_Service+0x1e>
    bno085_cmd = 0U;
 8000f2a:	4b0d      	ldr	r3, [pc, #52]	@ (8000f60 <CEVA_BNO085_Service+0x48>)
 8000f2c:	2200      	movs	r2, #0
 8000f2e:	601a      	str	r2, [r3, #0]
    run_command(cmd);
 8000f30:	6878      	ldr	r0, [r7, #4]
 8000f32:	f7ff ff27 	bl	8000d84 <run_command>
  }

  if (stream_enabled && sh2_is_open) {
 8000f36:	4b0b      	ldr	r3, [pc, #44]	@ (8000f64 <CEVA_BNO085_Service+0x4c>)
 8000f38:	781b      	ldrb	r3, [r3, #0]
 8000f3a:	2b00      	cmp	r3, #0
 8000f3c:	d00a      	beq.n	8000f54 <CEVA_BNO085_Service+0x3c>
 8000f3e:	4b0a      	ldr	r3, [pc, #40]	@ (8000f68 <CEVA_BNO085_Service+0x50>)
 8000f40:	781b      	ldrb	r3, [r3, #0]
 8000f42:	2b00      	cmp	r3, #0
 8000f44:	d006      	beq.n	8000f54 <CEVA_BNO085_Service+0x3c>
    sh2_service();
 8000f46:	f000 fde3 	bl	8001b10 <sh2_service>
    bno085_dbg.service_count++;
 8000f4a:	4b08      	ldr	r3, [pc, #32]	@ (8000f6c <CEVA_BNO085_Service+0x54>)
 8000f4c:	69db      	ldr	r3, [r3, #28]
 8000f4e:	3301      	adds	r3, #1
 8000f50:	4a06      	ldr	r2, [pc, #24]	@ (8000f6c <CEVA_BNO085_Service+0x54>)
 8000f52:	61d3      	str	r3, [r2, #28]
  }

  update_io_debug();
 8000f54:	f7ff fb4a 	bl	80005ec <update_io_debug>
}
 8000f58:	bf00      	nop
 8000f5a:	3708      	adds	r7, #8
 8000f5c:	46bd      	mov	sp, r7
 8000f5e:	bd80      	pop	{r7, pc}
 8000f60:	20000438 	.word	0x20000438
 8000f64:	20000435 	.word	0x20000435
 8000f68:	20000434 	.word	0x20000434
 8000f6c:	20000000 	.word	0x20000000

08000f70 <opStart>:
// ------------------------------------------------------------------------
// Private functions

// SH-2 transaction phases
static int opStart(sh2_t *pSh2, const sh2_Op_t *pOp)
{
 8000f70:	b580      	push	{r7, lr}
 8000f72:	b084      	sub	sp, #16
 8000f74:	af00      	add	r7, sp, #0
 8000f76:	6078      	str	r0, [r7, #4]
 8000f78:	6039      	str	r1, [r7, #0]
    // return error if another operation already in progress
    if (pSh2->pOp) return SH2_ERR_OP_IN_PROGRESS;
 8000f7a:	687b      	ldr	r3, [r7, #4]
 8000f7c:	f8d3 30a0 	ldr.w	r3, [r3, #160]	@ 0xa0
 8000f80:	2b00      	cmp	r3, #0
 8000f82:	d002      	beq.n	8000f8a <opStart+0x1a>
 8000f84:	f06f 0302 	mvn.w	r3, #2
 8000f88:	e018      	b.n	8000fbc <opStart+0x4c>

    // Establish this operation as the new operation in progress
    pSh2->pOp = pOp;
 8000f8a:	687b      	ldr	r3, [r7, #4]
 8000f8c:	683a      	ldr	r2, [r7, #0]
 8000f8e:	f8c3 20a0 	str.w	r2, [r3, #160]	@ 0xa0
    pSh2->opStatus = SH2_OK;
 8000f92:	687b      	ldr	r3, [r7, #4]
 8000f94:	2200      	movs	r2, #0
 8000f96:	f8c3 20a4 	str.w	r2, [r3, #164]	@ 0xa4
    int rc = pOp->start(pSh2);  // Call start method
 8000f9a:	683b      	ldr	r3, [r7, #0]
 8000f9c:	685b      	ldr	r3, [r3, #4]
 8000f9e:	6878      	ldr	r0, [r7, #4]
 8000fa0:	4798      	blx	r3
 8000fa2:	60f8      	str	r0, [r7, #12]
    if (rc != SH2_OK) {
 8000fa4:	68fb      	ldr	r3, [r7, #12]
 8000fa6:	2b00      	cmp	r3, #0
 8000fa8:	d007      	beq.n	8000fba <opStart+0x4a>
        // Unregister this operation
        pSh2->opStatus = rc;
 8000faa:	687b      	ldr	r3, [r7, #4]
 8000fac:	68fa      	ldr	r2, [r7, #12]
 8000fae:	f8c3 20a4 	str.w	r2, [r3, #164]	@ 0xa4
        pSh2->pOp = 0;
 8000fb2:	687b      	ldr	r3, [r7, #4]
 8000fb4:	2200      	movs	r2, #0
 8000fb6:	f8c3 20a0 	str.w	r2, [r3, #160]	@ 0xa0
    }

    return rc;
 8000fba:	68fb      	ldr	r3, [r7, #12]
}
 8000fbc:	4618      	mov	r0, r3
 8000fbe:	3710      	adds	r7, #16
 8000fc0:	46bd      	mov	sp, r7
 8000fc2:	bd80      	pop	{r7, pc}

08000fc4 <opRx>:

static void opRx(sh2_t *pSh2, const uint8_t *payload, uint16_t len)
{ 
 8000fc4:	b580      	push	{r7, lr}
 8000fc6:	b084      	sub	sp, #16
 8000fc8:	af00      	add	r7, sp, #0
 8000fca:	60f8      	str	r0, [r7, #12]
 8000fcc:	60b9      	str	r1, [r7, #8]
 8000fce:	4613      	mov	r3, r2
 8000fd0:	80fb      	strh	r3, [r7, #6]
    if ((pSh2->pOp != 0) &&                      // An operation is in progress
 8000fd2:	68fb      	ldr	r3, [r7, #12]
 8000fd4:	f8d3 30a0 	ldr.w	r3, [r3, #160]	@ 0xa0
 8000fd8:	2b00      	cmp	r3, #0
 8000fda:	d00d      	beq.n	8000ff8 <opRx+0x34>
        (pSh2->pOp->rx != 0)) {                  // and it has an rx method
 8000fdc:	68fb      	ldr	r3, [r7, #12]
 8000fde:	f8d3 30a0 	ldr.w	r3, [r3, #160]	@ 0xa0
 8000fe2:	689b      	ldr	r3, [r3, #8]
    if ((pSh2->pOp != 0) &&                      // An operation is in progress
 8000fe4:	2b00      	cmp	r3, #0
 8000fe6:	d007      	beq.n	8000ff8 <opRx+0x34>
        pSh2->pOp->rx(pSh2, payload, len);  // Call receive method
 8000fe8:	68fb      	ldr	r3, [r7, #12]
 8000fea:	f8d3 30a0 	ldr.w	r3, [r3, #160]	@ 0xa0
 8000fee:	689b      	ldr	r3, [r3, #8]
 8000ff0:	88fa      	ldrh	r2, [r7, #6]
 8000ff2:	68b9      	ldr	r1, [r7, #8]
 8000ff4:	68f8      	ldr	r0, [r7, #12]
 8000ff6:	4798      	blx	r3
    }
}
 8000ff8:	bf00      	nop
 8000ffa:	3710      	adds	r7, #16
 8000ffc:	46bd      	mov	sp, r7
 8000ffe:	bd80      	pop	{r7, pc}

08001000 <sensorhubAdvertHdlr>:

static void sensorhubAdvertHdlr(void *cookie, uint8_t tag, uint8_t len, uint8_t *value)
{
 8001000:	b580      	push	{r7, lr}
 8001002:	b088      	sub	sp, #32
 8001004:	af00      	add	r7, sp, #0
 8001006:	60f8      	str	r0, [r7, #12]
 8001008:	607b      	str	r3, [r7, #4]
 800100a:	460b      	mov	r3, r1
 800100c:	72fb      	strb	r3, [r7, #11]
 800100e:	4613      	mov	r3, r2
 8001010:	72bb      	strb	r3, [r7, #10]
    sh2_t *pSh2 = (sh2_t *)cookie;
 8001012:	68fb      	ldr	r3, [r7, #12]
 8001014:	617b      	str	r3, [r7, #20]
    
    switch (tag) {
 8001016:	7afb      	ldrb	r3, [r7, #11]
 8001018:	2b81      	cmp	r3, #129	@ 0x81
 800101a:	d00c      	beq.n	8001036 <sensorhubAdvertHdlr+0x36>
 800101c:	2b81      	cmp	r3, #129	@ 0x81
 800101e:	dc51      	bgt.n	80010c4 <sensorhubAdvertHdlr+0xc4>
 8001020:	2b00      	cmp	r3, #0
 8001022:	d035      	beq.n	8001090 <sensorhubAdvertHdlr+0x90>
 8001024:	2b80      	cmp	r3, #128	@ 0x80
 8001026:	d14d      	bne.n	80010c4 <sensorhubAdvertHdlr+0xc4>
        case TAG_SH2_VERSION:
            strcpy(pSh2->version, (const char *)value);
 8001028:	697b      	ldr	r3, [r7, #20]
 800102a:	330c      	adds	r3, #12
 800102c:	6879      	ldr	r1, [r7, #4]
 800102e:	4618      	mov	r0, r3
 8001030:	f006 f8b6 	bl	80071a0 <strcpy>
            break;
 8001034:	e047      	b.n	80010c6 <sensorhubAdvertHdlr+0xc6>

        case TAG_SH2_REPORT_LENGTHS:
        {
            uint8_t reports = len/2;
 8001036:	7abb      	ldrb	r3, [r7, #10]
 8001038:	085b      	lsrs	r3, r3, #1
 800103a:	77fb      	strb	r3, [r7, #31]
            if (reports > SH2_MAX_REPORT_IDS) {
 800103c:	7ffb      	ldrb	r3, [r7, #31]
 800103e:	2b40      	cmp	r3, #64	@ 0x40
 8001040:	d901      	bls.n	8001046 <sensorhubAdvertHdlr+0x46>
                // Hub gave us more report lengths than we can store!
                reports = SH2_MAX_REPORT_IDS;
 8001042:	2340      	movs	r3, #64	@ 0x40
 8001044:	77fb      	strb	r3, [r7, #31]
            }
        
            for (int n = 0; n < reports; n++) {
 8001046:	2300      	movs	r3, #0
 8001048:	61bb      	str	r3, [r7, #24]
 800104a:	e01c      	b.n	8001086 <sensorhubAdvertHdlr+0x86>
                pSh2->report[n].id = value[n*2];
 800104c:	69bb      	ldr	r3, [r7, #24]
 800104e:	005b      	lsls	r3, r3, #1
 8001050:	461a      	mov	r2, r3
 8001052:	687b      	ldr	r3, [r7, #4]
 8001054:	4413      	add	r3, r2
 8001056:	7819      	ldrb	r1, [r3, #0]
 8001058:	697a      	ldr	r2, [r7, #20]
 800105a:	69bb      	ldr	r3, [r7, #24]
 800105c:	330c      	adds	r3, #12
 800105e:	005b      	lsls	r3, r3, #1
 8001060:	4413      	add	r3, r2
 8001062:	460a      	mov	r2, r1
 8001064:	715a      	strb	r2, [r3, #5]
                pSh2->report[n].len = value[n*2 + 1];
 8001066:	69bb      	ldr	r3, [r7, #24]
 8001068:	005b      	lsls	r3, r3, #1
 800106a:	3301      	adds	r3, #1
 800106c:	687a      	ldr	r2, [r7, #4]
 800106e:	4413      	add	r3, r2
 8001070:	7819      	ldrb	r1, [r3, #0]
 8001072:	697a      	ldr	r2, [r7, #20]
 8001074:	69bb      	ldr	r3, [r7, #24]
 8001076:	330c      	adds	r3, #12
 8001078:	005b      	lsls	r3, r3, #1
 800107a:	4413      	add	r3, r2
 800107c:	460a      	mov	r2, r1
 800107e:	719a      	strb	r2, [r3, #6]
            for (int n = 0; n < reports; n++) {
 8001080:	69bb      	ldr	r3, [r7, #24]
 8001082:	3301      	adds	r3, #1
 8001084:	61bb      	str	r3, [r7, #24]
 8001086:	7ffb      	ldrb	r3, [r7, #31]
 8001088:	69ba      	ldr	r2, [r7, #24]
 800108a:	429a      	cmp	r2, r3
 800108c:	dbde      	blt.n	800104c <sensorhubAdvertHdlr+0x4c>
            }
            break;
 800108e:	e01a      	b.n	80010c6 <sensorhubAdvertHdlr+0xc6>
    
        case 0:
        {
            // 0 tag indicates end of advertisements for this app
            // At this time, the SHTP layer can give us our channel numbers
            pSh2->executableChan = shtp_chanNo(pSh2->pShtp, "executable", "device");
 8001090:	697b      	ldr	r3, [r7, #20]
 8001092:	685b      	ldr	r3, [r3, #4]
 8001094:	4a0e      	ldr	r2, [pc, #56]	@ (80010d0 <sensorhubAdvertHdlr+0xd0>)
 8001096:	490f      	ldr	r1, [pc, #60]	@ (80010d4 <sensorhubAdvertHdlr+0xd4>)
 8001098:	4618      	mov	r0, r3
 800109a:	f002 fce3 	bl	8003a64 <shtp_chanNo>
 800109e:	4603      	mov	r3, r0
 80010a0:	461a      	mov	r2, r3
 80010a2:	697b      	ldr	r3, [r7, #20]
 80010a4:	729a      	strb	r2, [r3, #10]
            pSh2->controlChan = shtp_chanNo(pSh2->pShtp, "sensorhub", "control");
 80010a6:	697b      	ldr	r3, [r7, #20]
 80010a8:	685b      	ldr	r3, [r3, #4]
 80010aa:	4a0b      	ldr	r2, [pc, #44]	@ (80010d8 <sensorhubAdvertHdlr+0xd8>)
 80010ac:	490b      	ldr	r1, [pc, #44]	@ (80010dc <sensorhubAdvertHdlr+0xdc>)
 80010ae:	4618      	mov	r0, r3
 80010b0:	f002 fcd8 	bl	8003a64 <shtp_chanNo>
 80010b4:	4603      	mov	r3, r0
 80010b6:	461a      	mov	r2, r3
 80010b8:	697b      	ldr	r3, [r7, #20]
 80010ba:	72da      	strb	r2, [r3, #11]

            pSh2->advertDone = true;
 80010bc:	697b      	ldr	r3, [r7, #20]
 80010be:	2201      	movs	r2, #1
 80010c0:	725a      	strb	r2, [r3, #9]
            break;
 80010c2:	e000      	b.n	80010c6 <sensorhubAdvertHdlr+0xc6>
        }
        
        default:
            break;
 80010c4:	bf00      	nop
    }
}
 80010c6:	bf00      	nop
 80010c8:	3720      	adds	r7, #32
 80010ca:	46bd      	mov	sp, r7
 80010cc:	bd80      	pop	{r7, pc}
 80010ce:	bf00      	nop
 80010d0:	08007748 	.word	0x08007748
 80010d4:	08007750 	.word	0x08007750
 80010d8:	0800775c 	.word	0x0800775c
 80010dc:	08007764 	.word	0x08007764

080010e0 <sensorhubControlHdlr>:

static void sensorhubControlHdlr(void *cookie, uint8_t *payload, uint16_t len, uint32_t timestamp)
{
 80010e0:	b580      	push	{r7, lr}
 80010e2:	b08c      	sub	sp, #48	@ 0x30
 80010e4:	af00      	add	r7, sp, #0
 80010e6:	60f8      	str	r0, [r7, #12]
 80010e8:	60b9      	str	r1, [r7, #8]
 80010ea:	603b      	str	r3, [r7, #0]
 80010ec:	4613      	mov	r3, r2
 80010ee:	80fb      	strh	r3, [r7, #6]
    sh2_t *pSh2 = (sh2_t *)cookie;
 80010f0:	68fb      	ldr	r3, [r7, #12]
 80010f2:	61fb      	str	r3, [r7, #28]

    uint16_t cursor = 0;
 80010f4:	2300      	movs	r3, #0
 80010f6:	85fb      	strh	r3, [r7, #46]	@ 0x2e
    uint32_t count = 0;
 80010f8:	2300      	movs	r3, #0
 80010fa:	62bb      	str	r3, [r7, #40]	@ 0x28
    CommandResp_t * pResp = 0;
 80010fc:	2300      	movs	r3, #0
 80010fe:	61bb      	str	r3, [r7, #24]
    
    if (len == 0) {
 8001100:	88fb      	ldrh	r3, [r7, #6]
 8001102:	2b00      	cmp	r3, #0
 8001104:	f040 80ae 	bne.w	8001264 <sensorhubControlHdlr+0x184>
        pSh2->emptyPayloads++;
 8001108:	69fb      	ldr	r3, [r7, #28]
 800110a:	f8d3 31f4 	ldr.w	r3, [r3, #500]	@ 0x1f4
 800110e:	1c5a      	adds	r2, r3, #1
 8001110:	69fb      	ldr	r3, [r7, #28]
 8001112:	f8c3 21f4 	str.w	r2, [r3, #500]	@ 0x1f4
        return;
 8001116:	e0aa      	b.n	800126e <sensorhubControlHdlr+0x18e>
    }

    while (cursor < len) {
        // Get next report id
        count++;
 8001118:	6abb      	ldr	r3, [r7, #40]	@ 0x28
 800111a:	3301      	adds	r3, #1
 800111c:	62bb      	str	r3, [r7, #40]	@ 0x28
        uint8_t reportId = payload[cursor];
 800111e:	8dfb      	ldrh	r3, [r7, #46]	@ 0x2e
 8001120:	68ba      	ldr	r2, [r7, #8]
 8001122:	4413      	add	r3, r2
 8001124:	781b      	ldrb	r3, [r3, #0]
 8001126:	75fb      	strb	r3, [r7, #23]

        // Determine report length
        uint8_t reportLen = 0;
 8001128:	2300      	movs	r3, #0
 800112a:	f887 3027 	strb.w	r3, [r7, #39]	@ 0x27
        for (int n = 0; n < SH2_MAX_REPORT_IDS; n++) {
 800112e:	2300      	movs	r3, #0
 8001130:	623b      	str	r3, [r7, #32]
 8001132:	e014      	b.n	800115e <sensorhubControlHdlr+0x7e>
            if (pSh2->report[n].id == reportId) {
 8001134:	69fa      	ldr	r2, [r7, #28]
 8001136:	6a3b      	ldr	r3, [r7, #32]
 8001138:	330c      	adds	r3, #12
 800113a:	005b      	lsls	r3, r3, #1
 800113c:	4413      	add	r3, r2
 800113e:	795b      	ldrb	r3, [r3, #5]
 8001140:	7dfa      	ldrb	r2, [r7, #23]
 8001142:	429a      	cmp	r2, r3
 8001144:	d108      	bne.n	8001158 <sensorhubControlHdlr+0x78>
                reportLen = pSh2->report[n].len;
 8001146:	69fa      	ldr	r2, [r7, #28]
 8001148:	6a3b      	ldr	r3, [r7, #32]
 800114a:	330c      	adds	r3, #12
 800114c:	005b      	lsls	r3, r3, #1
 800114e:	4413      	add	r3, r2
 8001150:	799b      	ldrb	r3, [r3, #6]
 8001152:	f887 3027 	strb.w	r3, [r7, #39]	@ 0x27
                break;
 8001156:	e005      	b.n	8001164 <sensorhubControlHdlr+0x84>
        for (int n = 0; n < SH2_MAX_REPORT_IDS; n++) {
 8001158:	6a3b      	ldr	r3, [r7, #32]
 800115a:	3301      	adds	r3, #1
 800115c:	623b      	str	r3, [r7, #32]
 800115e:	6a3b      	ldr	r3, [r7, #32]
 8001160:	2b3f      	cmp	r3, #63	@ 0x3f
 8001162:	dde7      	ble.n	8001134 <sensorhubControlHdlr+0x54>
            }
        }
        if (reportLen == 0) {
 8001164:	f897 3027 	ldrb.w	r3, [r7, #39]	@ 0x27
 8001168:	2b00      	cmp	r3, #0
 800116a:	d107      	bne.n	800117c <sensorhubControlHdlr+0x9c>
            // An unrecognized report id
            pSh2->unknownReportIds++;
 800116c:	69fb      	ldr	r3, [r7, #28]
 800116e:	f8d3 31f8 	ldr.w	r3, [r3, #504]	@ 0x1f8
 8001172:	1c5a      	adds	r2, r3, #1
 8001174:	69fb      	ldr	r3, [r7, #28]
 8001176:	f8c3 21f8 	str.w	r2, [r3, #504]	@ 0x1f8
            return;
 800117a:	e078      	b.n	800126e <sensorhubControlHdlr+0x18e>
        }
        else {
            // Check for unsolicited initialize response
            if (reportId == SENSORHUB_COMMAND_RESP) {
 800117c:	7dfb      	ldrb	r3, [r7, #23]
 800117e:	2bf1      	cmp	r3, #241	@ 0xf1
 8001180:	d107      	bne.n	8001192 <sensorhubControlHdlr+0xb2>
                pResp = (CommandResp_t *)(payload+cursor);
 8001182:	8dfb      	ldrh	r3, [r7, #46]	@ 0x2e
 8001184:	68ba      	ldr	r2, [r7, #8]
 8001186:	4413      	add	r3, r2
 8001188:	61bb      	str	r3, [r7, #24]
                if ((pResp->command == (SH2_CMD_INITIALIZE | SH2_INIT_UNSOLICITED)) &&
 800118a:	69bb      	ldr	r3, [r7, #24]
 800118c:	789b      	ldrb	r3, [r3, #2]
 800118e:	2b84      	cmp	r3, #132	@ 0x84
 8001190:	e058      	b.n	8001244 <sensorhubControlHdlr+0x164>
                    // This is an unsolicited INIT message.
                    // Is it time to call reset callback?
                }

            } // Check for Get Feature Response
            else if (reportId == SENSORHUB_GET_FEATURE_RESP) {
 8001192:	7dfb      	ldrb	r3, [r7, #23]
 8001194:	2bfc      	cmp	r3, #252	@ 0xfc
 8001196:	d155      	bne.n	8001244 <sensorhubControlHdlr+0x164>
                if (pSh2->eventCallback) {
 8001198:	69fb      	ldr	r3, [r7, #28]
 800119a:	f8d3 30bc 	ldr.w	r3, [r3, #188]	@ 0xbc
 800119e:	2b00      	cmp	r3, #0
 80011a0:	d050      	beq.n	8001244 <sensorhubControlHdlr+0x164>
                    GetFeatureResp_t * pGetFeatureResp;
                    pGetFeatureResp = (GetFeatureResp_t *)(payload + cursor);
 80011a2:	8dfb      	ldrh	r3, [r7, #46]	@ 0x2e
 80011a4:	68ba      	ldr	r2, [r7, #8]
 80011a6:	4413      	add	r3, r2
 80011a8:	613b      	str	r3, [r7, #16]

                    sh2AsyncEvent.eventId = SH2_GET_FEATURE_RESP;
 80011aa:	4b32      	ldr	r3, [pc, #200]	@ (8001274 <sensorhubControlHdlr+0x194>)
 80011ac:	2202      	movs	r2, #2
 80011ae:	601a      	str	r2, [r3, #0]
                    sh2AsyncEvent.sh2SensorConfigResp.sensorId = pGetFeatureResp->featureReportId;
 80011b0:	693b      	ldr	r3, [r7, #16]
 80011b2:	785a      	ldrb	r2, [r3, #1]
 80011b4:	4b2f      	ldr	r3, [pc, #188]	@ (8001274 <sensorhubControlHdlr+0x194>)
 80011b6:	711a      	strb	r2, [r3, #4]
                    sh2AsyncEvent.sh2SensorConfigResp.sensorConfig.changeSensitivityEnabled = ((pGetFeatureResp->flags & FEAT_CHANGE_SENSITIVITY_ENABLED) != 0);
 80011b8:	693b      	ldr	r3, [r7, #16]
 80011ba:	789b      	ldrb	r3, [r3, #2]
 80011bc:	f003 0302 	and.w	r3, r3, #2
 80011c0:	2b00      	cmp	r3, #0
 80011c2:	bf14      	ite	ne
 80011c4:	2301      	movne	r3, #1
 80011c6:	2300      	moveq	r3, #0
 80011c8:	b2da      	uxtb	r2, r3
 80011ca:	4b2a      	ldr	r3, [pc, #168]	@ (8001274 <sensorhubControlHdlr+0x194>)
 80011cc:	721a      	strb	r2, [r3, #8]
                    sh2AsyncEvent.sh2SensorConfigResp.sensorConfig.changeSensitivityRelative = ((pGetFeatureResp->flags & FEAT_CHANGE_SENSITIVITY_RELATIVE) != 0);
 80011ce:	693b      	ldr	r3, [r7, #16]
 80011d0:	789b      	ldrb	r3, [r3, #2]
 80011d2:	f003 0301 	and.w	r3, r3, #1
 80011d6:	b2da      	uxtb	r2, r3
 80011d8:	4b26      	ldr	r3, [pc, #152]	@ (8001274 <sensorhubControlHdlr+0x194>)
 80011da:	725a      	strb	r2, [r3, #9]
                    sh2AsyncEvent.sh2SensorConfigResp.sensorConfig.wakeupEnabled = ((pGetFeatureResp->flags & FEAT_WAKE_ENABLED) != 0);
 80011dc:	693b      	ldr	r3, [r7, #16]
 80011de:	789b      	ldrb	r3, [r3, #2]
 80011e0:	f003 0304 	and.w	r3, r3, #4
 80011e4:	2b00      	cmp	r3, #0
 80011e6:	bf14      	ite	ne
 80011e8:	2301      	movne	r3, #1
 80011ea:	2300      	moveq	r3, #0
 80011ec:	b2da      	uxtb	r2, r3
 80011ee:	4b21      	ldr	r3, [pc, #132]	@ (8001274 <sensorhubControlHdlr+0x194>)
 80011f0:	729a      	strb	r2, [r3, #10]
                    sh2AsyncEvent.sh2SensorConfigResp.sensorConfig.alwaysOnEnabled = ((pGetFeatureResp->flags & FEAT_ALWAYS_ON_ENABLED) != 0);
 80011f2:	693b      	ldr	r3, [r7, #16]
 80011f4:	789b      	ldrb	r3, [r3, #2]
 80011f6:	f003 0308 	and.w	r3, r3, #8
 80011fa:	2b00      	cmp	r3, #0
 80011fc:	bf14      	ite	ne
 80011fe:	2301      	movne	r3, #1
 8001200:	2300      	moveq	r3, #0
 8001202:	b2da      	uxtb	r2, r3
 8001204:	4b1b      	ldr	r3, [pc, #108]	@ (8001274 <sensorhubControlHdlr+0x194>)
 8001206:	72da      	strb	r2, [r3, #11]
                    sh2AsyncEvent.sh2SensorConfigResp.sensorConfig.changeSensitivity = pGetFeatureResp->changeSensitivity;
 8001208:	693b      	ldr	r3, [r7, #16]
 800120a:	f8b3 3003 	ldrh.w	r3, [r3, #3]
 800120e:	b29a      	uxth	r2, r3
 8001210:	4b18      	ldr	r3, [pc, #96]	@ (8001274 <sensorhubControlHdlr+0x194>)
 8001212:	819a      	strh	r2, [r3, #12]
                    sh2AsyncEvent.sh2SensorConfigResp.sensorConfig.reportInterval_us = pGetFeatureResp->reportInterval_uS;
 8001214:	693b      	ldr	r3, [r7, #16]
 8001216:	f8d3 3005 	ldr.w	r3, [r3, #5]
 800121a:	4a16      	ldr	r2, [pc, #88]	@ (8001274 <sensorhubControlHdlr+0x194>)
 800121c:	6113      	str	r3, [r2, #16]
                    sh2AsyncEvent.sh2SensorConfigResp.sensorConfig.batchInterval_us = pGetFeatureResp->batchInterval_uS;
 800121e:	693b      	ldr	r3, [r7, #16]
 8001220:	f8d3 3009 	ldr.w	r3, [r3, #9]
 8001224:	4a13      	ldr	r2, [pc, #76]	@ (8001274 <sensorhubControlHdlr+0x194>)
 8001226:	6153      	str	r3, [r2, #20]
                    sh2AsyncEvent.sh2SensorConfigResp.sensorConfig.sensorSpecific = pGetFeatureResp->sensorSpecific;
 8001228:	693b      	ldr	r3, [r7, #16]
 800122a:	f8d3 300d 	ldr.w	r3, [r3, #13]
 800122e:	4a11      	ldr	r2, [pc, #68]	@ (8001274 <sensorhubControlHdlr+0x194>)
 8001230:	6193      	str	r3, [r2, #24]

                    pSh2->eventCallback(pSh2->eventCookie, &sh2AsyncEvent);
 8001232:	69fb      	ldr	r3, [r7, #28]
 8001234:	f8d3 30bc 	ldr.w	r3, [r3, #188]	@ 0xbc
 8001238:	69fa      	ldr	r2, [r7, #28]
 800123a:	f8d2 20c0 	ldr.w	r2, [r2, #192]	@ 0xc0
 800123e:	490d      	ldr	r1, [pc, #52]	@ (8001274 <sensorhubControlHdlr+0x194>)
 8001240:	4610      	mov	r0, r2
 8001242:	4798      	blx	r3
                }
            }

            // Hand off to operation in progress, if any
            opRx(pSh2, payload+cursor, reportLen);
 8001244:	8dfb      	ldrh	r3, [r7, #46]	@ 0x2e
 8001246:	68ba      	ldr	r2, [r7, #8]
 8001248:	4413      	add	r3, r2
 800124a:	f897 2027 	ldrb.w	r2, [r7, #39]	@ 0x27
 800124e:	b292      	uxth	r2, r2
 8001250:	4619      	mov	r1, r3
 8001252:	69f8      	ldr	r0, [r7, #28]
 8001254:	f7ff feb6 	bl	8000fc4 <opRx>
            cursor += reportLen;
 8001258:	f897 3027 	ldrb.w	r3, [r7, #39]	@ 0x27
 800125c:	b29a      	uxth	r2, r3
 800125e:	8dfb      	ldrh	r3, [r7, #46]	@ 0x2e
 8001260:	4413      	add	r3, r2
 8001262:	85fb      	strh	r3, [r7, #46]	@ 0x2e
    while (cursor < len) {
 8001264:	8dfa      	ldrh	r2, [r7, #46]	@ 0x2e
 8001266:	88fb      	ldrh	r3, [r7, #6]
 8001268:	429a      	cmp	r2, r3
 800126a:	f4ff af55 	bcc.w	8001118 <sensorhubControlHdlr+0x38>
        }
    }
}
 800126e:	3730      	adds	r7, #48	@ 0x30
 8001270:	46bd      	mov	sp, r7
 8001272:	bd80      	pop	{r7, pc}
 8001274:	20000638 	.word	0x20000638

08001278 <opCompleted>:

static int opCompleted(sh2_t *pSh2, int status)
{
 8001278:	b480      	push	{r7}
 800127a:	b083      	sub	sp, #12
 800127c:	af00      	add	r7, sp, #0
 800127e:	6078      	str	r0, [r7, #4]
 8001280:	6039      	str	r1, [r7, #0]
    // Record status
    pSh2->opStatus = status;
 8001282:	687b      	ldr	r3, [r7, #4]
 8001284:	683a      	ldr	r2, [r7, #0]
 8001286:	f8c3 20a4 	str.w	r2, [r3, #164]	@ 0xa4

    // Signal that op is done.
    pSh2->pOp = 0;
 800128a:	687b      	ldr	r3, [r7, #4]
 800128c:	2200      	movs	r2, #0
 800128e:	f8c3 20a0 	str.w	r2, [r3, #160]	@ 0xa0

    return SH2_OK;
 8001292:	2300      	movs	r3, #0
}
 8001294:	4618      	mov	r0, r3
 8001296:	370c      	adds	r7, #12
 8001298:	46bd      	mov	sp, r7
 800129a:	f85d 7b04 	ldr.w	r7, [sp], #4
 800129e:	4770      	bx	lr

080012a0 <opProcess>:

static int opProcess(sh2_t *pSh2, const sh2_Op_t *pOp)
{
 80012a0:	b580      	push	{r7, lr}
 80012a2:	b086      	sub	sp, #24
 80012a4:	af00      	add	r7, sp, #0
 80012a6:	6078      	str	r0, [r7, #4]
 80012a8:	6039      	str	r1, [r7, #0]
    int status = SH2_OK;
 80012aa:	2300      	movs	r3, #0
 80012ac:	613b      	str	r3, [r7, #16]
    uint32_t start_us = 0;
 80012ae:	2300      	movs	r3, #0
 80012b0:	60fb      	str	r3, [r7, #12]

    start_us = pSh2->pHal->getTimeUs(pSh2->pHal);
 80012b2:	687b      	ldr	r3, [r7, #4]
 80012b4:	681b      	ldr	r3, [r3, #0]
 80012b6:	691b      	ldr	r3, [r3, #16]
 80012b8:	687a      	ldr	r2, [r7, #4]
 80012ba:	6812      	ldr	r2, [r2, #0]
 80012bc:	4610      	mov	r0, r2
 80012be:	4798      	blx	r3
 80012c0:	60f8      	str	r0, [r7, #12]
    
    status = opStart(&_sh2, pOp);
 80012c2:	6839      	ldr	r1, [r7, #0]
 80012c4:	481e      	ldr	r0, [pc, #120]	@ (8001340 <opProcess+0xa0>)
 80012c6:	f7ff fe53 	bl	8000f70 <opStart>
 80012ca:	6138      	str	r0, [r7, #16]
    if (status != SH2_OK) {
 80012cc:	693b      	ldr	r3, [r7, #16]
 80012ce:	2b00      	cmp	r3, #0
 80012d0:	d001      	beq.n	80012d6 <opProcess+0x36>
        return status;
 80012d2:	693b      	ldr	r3, [r7, #16]
 80012d4:	e030      	b.n	8001338 <opProcess+0x98>
    }

    uint32_t now_us = start_us;
 80012d6:	68fb      	ldr	r3, [r7, #12]
 80012d8:	617b      	str	r3, [r7, #20]
    
    // While op not complete and not timed out.
    while ((pSh2->pOp != 0) &&
 80012da:	e00c      	b.n	80012f6 <opProcess+0x56>
           ((pOp->timeout_us == 0) ||
            ((now_us-start_us) < pOp->timeout_us))) {
        // Service SHTP to poll the device.
        shtp_service(pSh2->pShtp);
 80012dc:	687b      	ldr	r3, [r7, #4]
 80012de:	685b      	ldr	r3, [r3, #4]
 80012e0:	4618      	mov	r0, r3
 80012e2:	f002 fc55 	bl	8003b90 <shtp_service>

        // Update the time
        now_us = pSh2->pHal->getTimeUs(pSh2->pHal);
 80012e6:	687b      	ldr	r3, [r7, #4]
 80012e8:	681b      	ldr	r3, [r3, #0]
 80012ea:	691b      	ldr	r3, [r3, #16]
 80012ec:	687a      	ldr	r2, [r7, #4]
 80012ee:	6812      	ldr	r2, [r2, #0]
 80012f0:	4610      	mov	r0, r2
 80012f2:	4798      	blx	r3
 80012f4:	6178      	str	r0, [r7, #20]
    while ((pSh2->pOp != 0) &&
 80012f6:	687b      	ldr	r3, [r7, #4]
 80012f8:	f8d3 30a0 	ldr.w	r3, [r3, #160]	@ 0xa0
 80012fc:	2b00      	cmp	r3, #0
 80012fe:	d00a      	beq.n	8001316 <opProcess+0x76>
           ((pOp->timeout_us == 0) ||
 8001300:	683b      	ldr	r3, [r7, #0]
 8001302:	681b      	ldr	r3, [r3, #0]
    while ((pSh2->pOp != 0) &&
 8001304:	2b00      	cmp	r3, #0
 8001306:	d0e9      	beq.n	80012dc <opProcess+0x3c>
            ((now_us-start_us) < pOp->timeout_us))) {
 8001308:	697a      	ldr	r2, [r7, #20]
 800130a:	68fb      	ldr	r3, [r7, #12]
 800130c:	1ad2      	subs	r2, r2, r3
 800130e:	683b      	ldr	r3, [r7, #0]
 8001310:	681b      	ldr	r3, [r3, #0]
           ((pOp->timeout_us == 0) ||
 8001312:	429a      	cmp	r2, r3
 8001314:	d3e2      	bcc.n	80012dc <opProcess+0x3c>
    }

    if (pSh2->pOp != 0) {
 8001316:	687b      	ldr	r3, [r7, #4]
 8001318:	f8d3 30a0 	ldr.w	r3, [r3, #160]	@ 0xa0
 800131c:	2b00      	cmp	r3, #0
 800131e:	d008      	beq.n	8001332 <opProcess+0x92>
        // Operation has timed out.  Clean up.
        pSh2->pOp = 0;
 8001320:	687b      	ldr	r3, [r7, #4]
 8001322:	2200      	movs	r2, #0
 8001324:	f8c3 20a0 	str.w	r2, [r3, #160]	@ 0xa0
        pSh2->opStatus = SH2_ERR_TIMEOUT;
 8001328:	687b      	ldr	r3, [r7, #4]
 800132a:	f06f 0205 	mvn.w	r2, #5
 800132e:	f8c3 20a4 	str.w	r2, [r3, #164]	@ 0xa4
    }

    return pSh2->opStatus;
 8001332:	687b      	ldr	r3, [r7, #4]
 8001334:	f8d3 30a4 	ldr.w	r3, [r3, #164]	@ 0xa4
}
 8001338:	4618      	mov	r0, r3
 800133a:	3718      	adds	r7, #24
 800133c:	46bd      	mov	sp, r7
 800133e:	bd80      	pop	{r7, pc}
 8001340:	2000043c 	.word	0x2000043c

08001344 <getReportLen>:

static uint8_t getReportLen(sh2_t *pSh2, uint8_t reportId)
{
 8001344:	b480      	push	{r7}
 8001346:	b085      	sub	sp, #20
 8001348:	af00      	add	r7, sp, #0
 800134a:	6078      	str	r0, [r7, #4]
 800134c:	460b      	mov	r3, r1
 800134e:	70fb      	strb	r3, [r7, #3]
    for (int n = 0; n < SH2_MAX_REPORT_IDS; n++) {
 8001350:	2300      	movs	r3, #0
 8001352:	60fb      	str	r3, [r7, #12]
 8001354:	e012      	b.n	800137c <getReportLen+0x38>
        if (pSh2->report[n].id == reportId) {
 8001356:	687a      	ldr	r2, [r7, #4]
 8001358:	68fb      	ldr	r3, [r7, #12]
 800135a:	330c      	adds	r3, #12
 800135c:	005b      	lsls	r3, r3, #1
 800135e:	4413      	add	r3, r2
 8001360:	795b      	ldrb	r3, [r3, #5]
 8001362:	78fa      	ldrb	r2, [r7, #3]
 8001364:	429a      	cmp	r2, r3
 8001366:	d106      	bne.n	8001376 <getReportLen+0x32>
            return pSh2->report[n].len;
 8001368:	687a      	ldr	r2, [r7, #4]
 800136a:	68fb      	ldr	r3, [r7, #12]
 800136c:	330c      	adds	r3, #12
 800136e:	005b      	lsls	r3, r3, #1
 8001370:	4413      	add	r3, r2
 8001372:	799b      	ldrb	r3, [r3, #6]
 8001374:	e006      	b.n	8001384 <getReportLen+0x40>
    for (int n = 0; n < SH2_MAX_REPORT_IDS; n++) {
 8001376:	68fb      	ldr	r3, [r7, #12]
 8001378:	3301      	adds	r3, #1
 800137a:	60fb      	str	r3, [r7, #12]
 800137c:	68fb      	ldr	r3, [r7, #12]
 800137e:	2b3f      	cmp	r3, #63	@ 0x3f
 8001380:	dde9      	ble.n	8001356 <getReportLen+0x12>
        }
    }

    return 0;
 8001382:	2300      	movs	r3, #0
}
 8001384:	4618      	mov	r0, r3
 8001386:	3714      	adds	r7, #20
 8001388:	46bd      	mov	sp, r7
 800138a:	f85d 7b04 	ldr.w	r7, [sp], #4
 800138e:	4770      	bx	lr

08001390 <touSTimestamp>:

// Produce 64-bit microsecond timestamp for a sensor event
static uint64_t touSTimestamp(uint32_t hostInt, int32_t referenceDelta, uint16_t delay)
{
 8001390:	e92d 0fb0 	stmdb	sp!, {r4, r5, r7, r8, r9, sl, fp}
 8001394:	b087      	sub	sp, #28
 8001396:	af00      	add	r7, sp, #0
 8001398:	60f8      	str	r0, [r7, #12]
 800139a:	60b9      	str	r1, [r7, #8]
 800139c:	4613      	mov	r3, r2
 800139e:	80fb      	strh	r3, [r7, #6]
    static uint32_t lastHostInt = 0;
    static uint32_t rollovers = 0;
    uint64_t timestamp;

    // Count times hostInt timestamps rolled over to produce upper bits
    if (hostInt < lastHostInt) {
 80013a0:	4b1b      	ldr	r3, [pc, #108]	@ (8001410 <touSTimestamp+0x80>)
 80013a2:	681b      	ldr	r3, [r3, #0]
 80013a4:	68fa      	ldr	r2, [r7, #12]
 80013a6:	429a      	cmp	r2, r3
 80013a8:	d204      	bcs.n	80013b4 <touSTimestamp+0x24>
        rollovers++;
 80013aa:	4b1a      	ldr	r3, [pc, #104]	@ (8001414 <touSTimestamp+0x84>)
 80013ac:	681b      	ldr	r3, [r3, #0]
 80013ae:	3301      	adds	r3, #1
 80013b0:	4a18      	ldr	r2, [pc, #96]	@ (8001414 <touSTimestamp+0x84>)
 80013b2:	6013      	str	r3, [r2, #0]
    }
    lastHostInt = hostInt;
 80013b4:	4a16      	ldr	r2, [pc, #88]	@ (8001410 <touSTimestamp+0x80>)
 80013b6:	68fb      	ldr	r3, [r7, #12]
 80013b8:	6013      	str	r3, [r2, #0]
    
    timestamp = ((uint64_t)rollovers << 32);
 80013ba:	4b16      	ldr	r3, [pc, #88]	@ (8001414 <touSTimestamp+0x84>)
 80013bc:	681b      	ldr	r3, [r3, #0]
 80013be:	2200      	movs	r2, #0
 80013c0:	469a      	mov	sl, r3
 80013c2:	4693      	mov	fp, r2
 80013c4:	f04f 0200 	mov.w	r2, #0
 80013c8:	f04f 0300 	mov.w	r3, #0
 80013cc:	4653      	mov	r3, sl
 80013ce:	2200      	movs	r2, #0
 80013d0:	e9c7 2304 	strd	r2, r3, [r7, #16]
    timestamp += hostInt + (referenceDelta + delay) * 100;
 80013d4:	88fa      	ldrh	r2, [r7, #6]
 80013d6:	68bb      	ldr	r3, [r7, #8]
 80013d8:	4413      	add	r3, r2
 80013da:	2264      	movs	r2, #100	@ 0x64
 80013dc:	fb02 f303 	mul.w	r3, r2, r3
 80013e0:	461a      	mov	r2, r3
 80013e2:	68fb      	ldr	r3, [r7, #12]
 80013e4:	4413      	add	r3, r2
 80013e6:	2200      	movs	r2, #0
 80013e8:	461c      	mov	r4, r3
 80013ea:	4615      	mov	r5, r2
 80013ec:	e9d7 2304 	ldrd	r2, r3, [r7, #16]
 80013f0:	eb12 0804 	adds.w	r8, r2, r4
 80013f4:	eb43 0905 	adc.w	r9, r3, r5
 80013f8:	e9c7 8904 	strd	r8, r9, [r7, #16]

    return timestamp;
 80013fc:	e9d7 2304 	ldrd	r2, r3, [r7, #16]
}
 8001400:	4610      	mov	r0, r2
 8001402:	4619      	mov	r1, r3
 8001404:	371c      	adds	r7, #28
 8001406:	46bd      	mov	sp, r7
 8001408:	e8bd 0fb0 	ldmia.w	sp!, {r4, r5, r7, r8, r9, sl, fp}
 800140c:	4770      	bx	lr
 800140e:	bf00      	nop
 8001410:	20000654 	.word	0x20000654
 8001414:	20000658 	.word	0x20000658

08001418 <sensorhubInputHdlr>:

static void sensorhubInputHdlr(sh2_t *pSh2, uint8_t *payload, uint16_t len, uint32_t timestamp)
{
 8001418:	b580      	push	{r7, lr}
 800141a:	b094      	sub	sp, #80	@ 0x50
 800141c:	af00      	add	r7, sp, #0
 800141e:	60f8      	str	r0, [r7, #12]
 8001420:	60b9      	str	r1, [r7, #8]
 8001422:	603b      	str	r3, [r7, #0]
 8001424:	4613      	mov	r3, r2
 8001426:	80fb      	strh	r3, [r7, #6]
    sh2_SensorEvent_t event;
    uint16_t cursor = 0;
 8001428:	2300      	movs	r3, #0
 800142a:	f8a7 304e 	strh.w	r3, [r7, #78]	@ 0x4e

    uint32_t referenceDelta;

    referenceDelta = 0;
 800142e:	2300      	movs	r3, #0
 8001430:	64bb      	str	r3, [r7, #72]	@ 0x48

    while (cursor < len) {
 8001432:	e08d      	b.n	8001550 <sensorhubInputHdlr+0x138>
        // Get next report id
        uint8_t reportId = payload[cursor];
 8001434:	f8b7 304e 	ldrh.w	r3, [r7, #78]	@ 0x4e
 8001438:	68ba      	ldr	r2, [r7, #8]
 800143a:	4413      	add	r3, r2
 800143c:	781b      	ldrb	r3, [r3, #0]
 800143e:	f887 3047 	strb.w	r3, [r7, #71]	@ 0x47

        // Determine report length
        uint8_t reportLen = getReportLen(pSh2, reportId);
 8001442:	f897 3047 	ldrb.w	r3, [r7, #71]	@ 0x47
 8001446:	4619      	mov	r1, r3
 8001448:	68f8      	ldr	r0, [r7, #12]
 800144a:	f7ff ff7b 	bl	8001344 <getReportLen>
 800144e:	4603      	mov	r3, r0
 8001450:	f887 3046 	strb.w	r3, [r7, #70]	@ 0x46
        if (reportLen == 0) {
 8001454:	f897 3046 	ldrb.w	r3, [r7, #70]	@ 0x46
 8001458:	2b00      	cmp	r3, #0
 800145a:	d107      	bne.n	800146c <sensorhubInputHdlr+0x54>
            // An unrecognized report id
            pSh2->unknownReportIds++;
 800145c:	68fb      	ldr	r3, [r7, #12]
 800145e:	f8d3 31f8 	ldr.w	r3, [r3, #504]	@ 0x1f8
 8001462:	1c5a      	adds	r2, r3, #1
 8001464:	68fb      	ldr	r3, [r7, #12]
 8001466:	f8c3 21f8 	str.w	r2, [r3, #504]	@ 0x1f8
 800146a:	e077      	b.n	800155c <sensorhubInputHdlr+0x144>
            return;
        }
        else {
            if (reportId == SENSORHUB_BASE_TIMESTAMP_REF) {
 800146c:	f897 3047 	ldrb.w	r3, [r7, #71]	@ 0x47
 8001470:	2bfb      	cmp	r3, #251	@ 0xfb
 8001472:	d10a      	bne.n	800148a <sensorhubInputHdlr+0x72>
                const BaseTimestampRef_t *rpt = (const BaseTimestampRef_t *)(payload+cursor);
 8001474:	f8b7 304e 	ldrh.w	r3, [r7, #78]	@ 0x4e
 8001478:	68ba      	ldr	r2, [r7, #8]
 800147a:	4413      	add	r3, r2
 800147c:	637b      	str	r3, [r7, #52]	@ 0x34
                
                // store base timestamp reference
                referenceDelta = -rpt->timebase;
 800147e:	6b7b      	ldr	r3, [r7, #52]	@ 0x34
 8001480:	f8d3 3001 	ldr.w	r3, [r3, #1]
 8001484:	425b      	negs	r3, r3
 8001486:	64bb      	str	r3, [r7, #72]	@ 0x48
 8001488:	e05a      	b.n	8001540 <sensorhubInputHdlr+0x128>
            }
            else if (reportId == SENSORHUB_TIMESTAMP_REBASE) {
 800148a:	f897 3047 	ldrb.w	r3, [r7, #71]	@ 0x47
 800148e:	2bfa      	cmp	r3, #250	@ 0xfa
 8001490:	d10c      	bne.n	80014ac <sensorhubInputHdlr+0x94>
                const TimestampRebase_t *rpt = (const TimestampRebase_t *)(payload+cursor);
 8001492:	f8b7 304e 	ldrh.w	r3, [r7, #78]	@ 0x4e
 8001496:	68ba      	ldr	r2, [r7, #8]
 8001498:	4413      	add	r3, r2
 800149a:	63bb      	str	r3, [r7, #56]	@ 0x38

                referenceDelta += rpt->timebase;
 800149c:	6bbb      	ldr	r3, [r7, #56]	@ 0x38
 800149e:	f8d3 3001 	ldr.w	r3, [r3, #1]
 80014a2:	461a      	mov	r2, r3
 80014a4:	6cbb      	ldr	r3, [r7, #72]	@ 0x48
 80014a6:	4413      	add	r3, r2
 80014a8:	64bb      	str	r3, [r7, #72]	@ 0x48
 80014aa:	e049      	b.n	8001540 <sensorhubInputHdlr+0x128>
            }
            else if (reportId == SENSORHUB_FLUSH_COMPLETED) {
 80014ac:	f897 3047 	ldrb.w	r3, [r7, #71]	@ 0x47
 80014b0:	2bef      	cmp	r3, #239	@ 0xef
 80014b2:	d10b      	bne.n	80014cc <sensorhubInputHdlr+0xb4>
                // Route this as if it arrived on command channel.
                opRx(pSh2, payload+cursor, reportLen);
 80014b4:	f8b7 304e 	ldrh.w	r3, [r7, #78]	@ 0x4e
 80014b8:	68ba      	ldr	r2, [r7, #8]
 80014ba:	4413      	add	r3, r2
 80014bc:	f897 2046 	ldrb.w	r2, [r7, #70]	@ 0x46
 80014c0:	b292      	uxth	r2, r2
 80014c2:	4619      	mov	r1, r3
 80014c4:	68f8      	ldr	r0, [r7, #12]
 80014c6:	f7ff fd7d 	bl	8000fc4 <opRx>
 80014ca:	e039      	b.n	8001540 <sensorhubInputHdlr+0x128>
            }
            else {
                uint8_t *pReport = payload+cursor;
 80014cc:	f8b7 304e 	ldrh.w	r3, [r7, #78]	@ 0x4e
 80014d0:	68ba      	ldr	r2, [r7, #8]
 80014d2:	4413      	add	r3, r2
 80014d4:	643b      	str	r3, [r7, #64]	@ 0x40
                uint16_t delay = ((pReport[2] & 0xFC) << 6) + pReport[3];
 80014d6:	6c3b      	ldr	r3, [r7, #64]	@ 0x40
 80014d8:	3302      	adds	r3, #2
 80014da:	781b      	ldrb	r3, [r3, #0]
 80014dc:	019b      	lsls	r3, r3, #6
 80014de:	b29b      	uxth	r3, r3
 80014e0:	f403 537c 	and.w	r3, r3, #16128	@ 0x3f00
 80014e4:	b29b      	uxth	r3, r3
 80014e6:	6c3a      	ldr	r2, [r7, #64]	@ 0x40
 80014e8:	3203      	adds	r2, #3
 80014ea:	7812      	ldrb	r2, [r2, #0]
 80014ec:	4413      	add	r3, r2
 80014ee:	87fb      	strh	r3, [r7, #62]	@ 0x3e
                event.timestamp_uS = touSTimestamp(timestamp, referenceDelta, delay);
 80014f0:	6cbb      	ldr	r3, [r7, #72]	@ 0x48
 80014f2:	8ffa      	ldrh	r2, [r7, #62]	@ 0x3e
 80014f4:	4619      	mov	r1, r3
 80014f6:	6838      	ldr	r0, [r7, #0]
 80014f8:	f7ff ff4a 	bl	8001390 <touSTimestamp>
 80014fc:	4602      	mov	r2, r0
 80014fe:	460b      	mov	r3, r1
 8001500:	e9c7 2304 	strd	r2, r3, [r7, #16]
                event.reportId = reportId;
 8001504:	f897 3047 	ldrb.w	r3, [r7, #71]	@ 0x47
 8001508:	767b      	strb	r3, [r7, #25]
                memcpy(event.report, pReport, reportLen);
 800150a:	f897 2046 	ldrb.w	r2, [r7, #70]	@ 0x46
 800150e:	f107 0310 	add.w	r3, r7, #16
 8001512:	330a      	adds	r3, #10
 8001514:	6c39      	ldr	r1, [r7, #64]	@ 0x40
 8001516:	4618      	mov	r0, r3
 8001518:	f005 fe4a 	bl	80071b0 <memcpy>
                event.len = reportLen;
 800151c:	f897 3046 	ldrb.w	r3, [r7, #70]	@ 0x46
 8001520:	763b      	strb	r3, [r7, #24]
                if (pSh2->sensorCallback != 0) {
 8001522:	68fb      	ldr	r3, [r7, #12]
 8001524:	f8d3 30c4 	ldr.w	r3, [r3, #196]	@ 0xc4
 8001528:	2b00      	cmp	r3, #0
 800152a:	d009      	beq.n	8001540 <sensorhubInputHdlr+0x128>
                    pSh2->sensorCallback(pSh2->sensorCookie, &event);
 800152c:	68fb      	ldr	r3, [r7, #12]
 800152e:	f8d3 30c4 	ldr.w	r3, [r3, #196]	@ 0xc4
 8001532:	68fa      	ldr	r2, [r7, #12]
 8001534:	f8d2 20c8 	ldr.w	r2, [r2, #200]	@ 0xc8
 8001538:	f107 0110 	add.w	r1, r7, #16
 800153c:	4610      	mov	r0, r2
 800153e:	4798      	blx	r3
                }
            }
            cursor += reportLen;
 8001540:	f897 3046 	ldrb.w	r3, [r7, #70]	@ 0x46
 8001544:	b29a      	uxth	r2, r3
 8001546:	f8b7 304e 	ldrh.w	r3, [r7, #78]	@ 0x4e
 800154a:	4413      	add	r3, r2
 800154c:	f8a7 304e 	strh.w	r3, [r7, #78]	@ 0x4e
    while (cursor < len) {
 8001550:	f8b7 204e 	ldrh.w	r2, [r7, #78]	@ 0x4e
 8001554:	88fb      	ldrh	r3, [r7, #6]
 8001556:	429a      	cmp	r2, r3
 8001558:	f4ff af6c 	bcc.w	8001434 <sensorhubInputHdlr+0x1c>
        }
    }
}
 800155c:	3750      	adds	r7, #80	@ 0x50
 800155e:	46bd      	mov	sp, r7
 8001560:	bd80      	pop	{r7, pc}

08001562 <sensorhubInputNormalHdlr>:

static void sensorhubInputNormalHdlr(void *cookie, uint8_t *payload, uint16_t len, uint32_t timestamp)
{
 8001562:	b580      	push	{r7, lr}
 8001564:	b086      	sub	sp, #24
 8001566:	af00      	add	r7, sp, #0
 8001568:	60f8      	str	r0, [r7, #12]
 800156a:	60b9      	str	r1, [r7, #8]
 800156c:	603b      	str	r3, [r7, #0]
 800156e:	4613      	mov	r3, r2
 8001570:	80fb      	strh	r3, [r7, #6]
    sh2_t *pSh2 = (sh2_t *)cookie;
 8001572:	68fb      	ldr	r3, [r7, #12]
 8001574:	617b      	str	r3, [r7, #20]

    sensorhubInputHdlr(pSh2, payload, len, timestamp);
 8001576:	88fa      	ldrh	r2, [r7, #6]
 8001578:	683b      	ldr	r3, [r7, #0]
 800157a:	68b9      	ldr	r1, [r7, #8]
 800157c:	6978      	ldr	r0, [r7, #20]
 800157e:	f7ff ff4b 	bl	8001418 <sensorhubInputHdlr>
}
 8001582:	bf00      	nop
 8001584:	3718      	adds	r7, #24
 8001586:	46bd      	mov	sp, r7
 8001588:	bd80      	pop	{r7, pc}

0800158a <sensorhubInputWakeHdlr>:

static void sensorhubInputWakeHdlr(void *cookie, uint8_t *payload, uint16_t len, uint32_t timestamp)
{
 800158a:	b580      	push	{r7, lr}
 800158c:	b086      	sub	sp, #24
 800158e:	af00      	add	r7, sp, #0
 8001590:	60f8      	str	r0, [r7, #12]
 8001592:	60b9      	str	r1, [r7, #8]
 8001594:	603b      	str	r3, [r7, #0]
 8001596:	4613      	mov	r3, r2
 8001598:	80fb      	strh	r3, [r7, #6]
    sh2_t *pSh2 = (sh2_t *)cookie;
 800159a:	68fb      	ldr	r3, [r7, #12]
 800159c:	617b      	str	r3, [r7, #20]
    
    sensorhubInputHdlr(pSh2, payload, len, timestamp);
 800159e:	88fa      	ldrh	r2, [r7, #6]
 80015a0:	683b      	ldr	r3, [r7, #0]
 80015a2:	68b9      	ldr	r1, [r7, #8]
 80015a4:	6978      	ldr	r0, [r7, #20]
 80015a6:	f7ff ff37 	bl	8001418 <sensorhubInputHdlr>
}
 80015aa:	bf00      	nop
 80015ac:	3718      	adds	r7, #24
 80015ae:	46bd      	mov	sp, r7
 80015b0:	bd80      	pop	{r7, pc}

080015b2 <sensorhubInputGyroRvHdlr>:

static void sensorhubInputGyroRvHdlr(void *cookie, uint8_t *payload, uint16_t len, uint32_t timestamp)
{
 80015b2:	b5b0      	push	{r4, r5, r7, lr}
 80015b4:	b090      	sub	sp, #64	@ 0x40
 80015b6:	af00      	add	r7, sp, #0
 80015b8:	60f8      	str	r0, [r7, #12]
 80015ba:	60b9      	str	r1, [r7, #8]
 80015bc:	603b      	str	r3, [r7, #0]
 80015be:	4613      	mov	r3, r2
 80015c0:	80fb      	strh	r3, [r7, #6]
    sh2_t *pSh2 = (sh2_t *)cookie;
 80015c2:	68fb      	ldr	r3, [r7, #12]
 80015c4:	63bb      	str	r3, [r7, #56]	@ 0x38
    sh2_SensorEvent_t event;
    uint16_t cursor = 0;
 80015c6:	2300      	movs	r3, #0
 80015c8:	87fb      	strh	r3, [r7, #62]	@ 0x3e

    uint8_t reportId = SH2_GYRO_INTEGRATED_RV;
 80015ca:	232a      	movs	r3, #42	@ 0x2a
 80015cc:	f887 3037 	strb.w	r3, [r7, #55]	@ 0x37
    uint8_t reportLen = getReportLen(pSh2, reportId);
 80015d0:	f897 3037 	ldrb.w	r3, [r7, #55]	@ 0x37
 80015d4:	4619      	mov	r1, r3
 80015d6:	6bb8      	ldr	r0, [r7, #56]	@ 0x38
 80015d8:	f7ff feb4 	bl	8001344 <getReportLen>
 80015dc:	4603      	mov	r3, r0
 80015de:	f887 3036 	strb.w	r3, [r7, #54]	@ 0x36

    while (cursor < len) {
 80015e2:	e02b      	b.n	800163c <sensorhubInputGyroRvHdlr+0x8a>
        event.timestamp_uS = timestamp;
 80015e4:	683b      	ldr	r3, [r7, #0]
 80015e6:	2200      	movs	r2, #0
 80015e8:	461c      	mov	r4, r3
 80015ea:	4615      	mov	r5, r2
 80015ec:	e9c7 4504 	strd	r4, r5, [r7, #16]
        event.reportId = reportId;
 80015f0:	f897 3037 	ldrb.w	r3, [r7, #55]	@ 0x37
 80015f4:	767b      	strb	r3, [r7, #25]
        memcpy(event.report, payload+cursor, reportLen);
 80015f6:	8ffb      	ldrh	r3, [r7, #62]	@ 0x3e
 80015f8:	68ba      	ldr	r2, [r7, #8]
 80015fa:	18d1      	adds	r1, r2, r3
 80015fc:	f897 2036 	ldrb.w	r2, [r7, #54]	@ 0x36
 8001600:	f107 0310 	add.w	r3, r7, #16
 8001604:	330a      	adds	r3, #10
 8001606:	4618      	mov	r0, r3
 8001608:	f005 fdd2 	bl	80071b0 <memcpy>
        event.len = reportLen;
 800160c:	f897 3036 	ldrb.w	r3, [r7, #54]	@ 0x36
 8001610:	763b      	strb	r3, [r7, #24]

        if (pSh2->sensorCallback != 0) {
 8001612:	6bbb      	ldr	r3, [r7, #56]	@ 0x38
 8001614:	f8d3 30c4 	ldr.w	r3, [r3, #196]	@ 0xc4
 8001618:	2b00      	cmp	r3, #0
 800161a:	d009      	beq.n	8001630 <sensorhubInputGyroRvHdlr+0x7e>
            pSh2->sensorCallback(pSh2->sensorCookie, &event);
 800161c:	6bbb      	ldr	r3, [r7, #56]	@ 0x38
 800161e:	f8d3 30c4 	ldr.w	r3, [r3, #196]	@ 0xc4
 8001622:	6bba      	ldr	r2, [r7, #56]	@ 0x38
 8001624:	f8d2 20c8 	ldr.w	r2, [r2, #200]	@ 0xc8
 8001628:	f107 0110 	add.w	r1, r7, #16
 800162c:	4610      	mov	r0, r2
 800162e:	4798      	blx	r3
        }

        cursor += reportLen;
 8001630:	f897 3036 	ldrb.w	r3, [r7, #54]	@ 0x36
 8001634:	b29a      	uxth	r2, r3
 8001636:	8ffb      	ldrh	r3, [r7, #62]	@ 0x3e
 8001638:	4413      	add	r3, r2
 800163a:	87fb      	strh	r3, [r7, #62]	@ 0x3e
    while (cursor < len) {
 800163c:	8ffa      	ldrh	r2, [r7, #62]	@ 0x3e
 800163e:	88fb      	ldrh	r3, [r7, #6]
 8001640:	429a      	cmp	r2, r3
 8001642:	d3cf      	bcc.n	80015e4 <sensorhubInputGyroRvHdlr+0x32>
    }
}
 8001644:	bf00      	nop
 8001646:	bf00      	nop
 8001648:	3740      	adds	r7, #64	@ 0x40
 800164a:	46bd      	mov	sp, r7
 800164c:	bdb0      	pop	{r4, r5, r7, pc}

0800164e <executableAdvertHdlr>:

static void executableAdvertHdlr(void *cookie, uint8_t tag, uint8_t len, uint8_t *value)
{
 800164e:	b480      	push	{r7}
 8001650:	b085      	sub	sp, #20
 8001652:	af00      	add	r7, sp, #0
 8001654:	60f8      	str	r0, [r7, #12]
 8001656:	607b      	str	r3, [r7, #4]
 8001658:	460b      	mov	r3, r1
 800165a:	72fb      	strb	r3, [r7, #11]
 800165c:	4613      	mov	r3, r2
 800165e:	72bb      	strb	r3, [r7, #10]
    // Ignore.  No known TLV tags for this app.
}
 8001660:	bf00      	nop
 8001662:	3714      	adds	r7, #20
 8001664:	46bd      	mov	sp, r7
 8001666:	f85d 7b04 	ldr.w	r7, [sp], #4
 800166a:	4770      	bx	lr

0800166c <executableDeviceHdlr>:

static void executableDeviceHdlr(void *cookie, uint8_t *payload, uint16_t len, uint32_t timestamp)
{
 800166c:	b580      	push	{r7, lr}
 800166e:	b086      	sub	sp, #24
 8001670:	af00      	add	r7, sp, #0
 8001672:	60f8      	str	r0, [r7, #12]
 8001674:	60b9      	str	r1, [r7, #8]
 8001676:	603b      	str	r3, [r7, #0]
 8001678:	4613      	mov	r3, r2
 800167a:	80fb      	strh	r3, [r7, #6]
    sh2_t *pSh2 = (sh2_t *)cookie;
 800167c:	68fb      	ldr	r3, [r7, #12]
 800167e:	617b      	str	r3, [r7, #20]

    // Discard if length is bad
    if (len != 1) {
 8001680:	88fb      	ldrh	r3, [r7, #6]
 8001682:	2b01      	cmp	r3, #1
 8001684:	d007      	beq.n	8001696 <executableDeviceHdlr+0x2a>
        pSh2->execBadPayload++;
 8001686:	697b      	ldr	r3, [r7, #20]
 8001688:	f8d3 31f0 	ldr.w	r3, [r3, #496]	@ 0x1f0
 800168c:	1c5a      	adds	r2, r3, #1
 800168e:	697b      	ldr	r3, [r7, #20]
 8001690:	f8c3 21f0 	str.w	r2, [r3, #496]	@ 0x1f0
        return;
 8001694:	e021      	b.n	80016da <executableDeviceHdlr+0x6e>
    }
    
    switch (payload[0]) {
 8001696:	68bb      	ldr	r3, [r7, #8]
 8001698:	781b      	ldrb	r3, [r3, #0]
 800169a:	2b01      	cmp	r3, #1
 800169c:	d114      	bne.n	80016c8 <executableDeviceHdlr+0x5c>
        case EXECUTABLE_DEVICE_RESP_RESET_COMPLETE:
            // reset process is now done.
            pSh2->resetComplete = true;
 800169e:	697b      	ldr	r3, [r7, #20]
 80016a0:	2201      	movs	r2, #1
 80016a2:	721a      	strb	r2, [r3, #8]
            
            // Notify client that reset is complete.
            sh2AsyncEvent.eventId = SH2_RESET;
 80016a4:	4b0e      	ldr	r3, [pc, #56]	@ (80016e0 <executableDeviceHdlr+0x74>)
 80016a6:	2200      	movs	r2, #0
 80016a8:	601a      	str	r2, [r3, #0]
            if (pSh2->eventCallback) {
 80016aa:	697b      	ldr	r3, [r7, #20]
 80016ac:	f8d3 30bc 	ldr.w	r3, [r3, #188]	@ 0xbc
 80016b0:	2b00      	cmp	r3, #0
 80016b2:	d011      	beq.n	80016d8 <executableDeviceHdlr+0x6c>
                pSh2->eventCallback(pSh2->eventCookie, &sh2AsyncEvent);
 80016b4:	697b      	ldr	r3, [r7, #20]
 80016b6:	f8d3 30bc 	ldr.w	r3, [r3, #188]	@ 0xbc
 80016ba:	697a      	ldr	r2, [r7, #20]
 80016bc:	f8d2 20c0 	ldr.w	r2, [r2, #192]	@ 0xc0
 80016c0:	4907      	ldr	r1, [pc, #28]	@ (80016e0 <executableDeviceHdlr+0x74>)
 80016c2:	4610      	mov	r0, r2
 80016c4:	4798      	blx	r3
            }
            break;
 80016c6:	e007      	b.n	80016d8 <executableDeviceHdlr+0x6c>
        default:
            pSh2->execBadPayload++;
 80016c8:	697b      	ldr	r3, [r7, #20]
 80016ca:	f8d3 31f0 	ldr.w	r3, [r3, #496]	@ 0x1f0
 80016ce:	1c5a      	adds	r2, r3, #1
 80016d0:	697b      	ldr	r3, [r7, #20]
 80016d2:	f8c3 21f0 	str.w	r2, [r3, #496]	@ 0x1f0
            break;
 80016d6:	e000      	b.n	80016da <executableDeviceHdlr+0x6e>
            break;
 80016d8:	bf00      	nop
    }
}
 80016da:	3718      	adds	r7, #24
 80016dc:	46bd      	mov	sp, r7
 80016de:	bd80      	pop	{r7, pc}
 80016e0:	20000638 	.word	0x20000638

080016e4 <sendCtrl>:
{
    return shtp_send(pSh2->pShtp, pSh2->executableChan, &cmd, 1);
}

static int sendCtrl(sh2_t *pSh2, const uint8_t *data, uint16_t len)
{
 80016e4:	b580      	push	{r7, lr}
 80016e6:	b084      	sub	sp, #16
 80016e8:	af00      	add	r7, sp, #0
 80016ea:	60f8      	str	r0, [r7, #12]
 80016ec:	60b9      	str	r1, [r7, #8]
 80016ee:	4613      	mov	r3, r2
 80016f0:	80fb      	strh	r3, [r7, #6]
    return shtp_send(pSh2->pShtp, pSh2->controlChan, data, len);
 80016f2:	68fb      	ldr	r3, [r7, #12]
 80016f4:	6858      	ldr	r0, [r3, #4]
 80016f6:	68fb      	ldr	r3, [r7, #12]
 80016f8:	7ad9      	ldrb	r1, [r3, #11]
 80016fa:	88fb      	ldrh	r3, [r7, #6]
 80016fc:	68ba      	ldr	r2, [r7, #8]
 80016fe:	f002 fa17 	bl	8003b30 <shtp_send>
 8001702:	4603      	mov	r3, r0
}
 8001704:	4618      	mov	r0, r3
 8001706:	3710      	adds	r7, #16
 8001708:	46bd      	mov	sp, r7
 800170a:	bd80      	pop	{r7, pc}

0800170c <getProdIdStart>:
// ------------------------------------------------------------------------
// Get Product ID support

// Get Product ID Op handler
static int getProdIdStart(sh2_t *pSh2)
{
 800170c:	b580      	push	{r7, lr}
 800170e:	b084      	sub	sp, #16
 8001710:	af00      	add	r7, sp, #0
 8001712:	6078      	str	r0, [r7, #4]
    int rc = SH2_OK;
 8001714:	2300      	movs	r3, #0
 8001716:	60fb      	str	r3, [r7, #12]
    ProdIdReq_t req;
    
    pSh2->opData.getProdIds.nextEntry = 0;
 8001718:	687b      	ldr	r3, [r7, #4]
 800171a:	2200      	movs	r2, #0
 800171c:	f883 20ac 	strb.w	r2, [r3, #172]	@ 0xac
    pSh2->opData.getProdIds.expectedEntries = 4;  // Most products supply 4 product ids.
 8001720:	687b      	ldr	r3, [r7, #4]
 8001722:	2204      	movs	r2, #4
 8001724:	f883 20ad 	strb.w	r2, [r3, #173]	@ 0xad
                                                // When the first arrives, we'll know if
                                                // we need to adjust this.
    
    // Set up request to issue
    memset(&req, 0, sizeof(req));
 8001728:	f107 0308 	add.w	r3, r7, #8
 800172c:	2202      	movs	r2, #2
 800172e:	2100      	movs	r1, #0
 8001730:	4618      	mov	r0, r3
 8001732:	f005 fd02 	bl	800713a <memset>
    req.reportId = SENSORHUB_PROD_ID_REQ;
 8001736:	23f9      	movs	r3, #249	@ 0xf9
 8001738:	723b      	strb	r3, [r7, #8]
    rc = sendCtrl(pSh2, (uint8_t *)&req, sizeof(req));
 800173a:	f107 0308 	add.w	r3, r7, #8
 800173e:	2202      	movs	r2, #2
 8001740:	4619      	mov	r1, r3
 8001742:	6878      	ldr	r0, [r7, #4]
 8001744:	f7ff ffce 	bl	80016e4 <sendCtrl>
 8001748:	60f8      	str	r0, [r7, #12]

    return rc;
 800174a:	68fb      	ldr	r3, [r7, #12]
}
 800174c:	4618      	mov	r0, r3
 800174e:	3710      	adds	r7, #16
 8001750:	46bd      	mov	sp, r7
 8001752:	bd80      	pop	{r7, pc}

08001754 <getProdIdRx>:

static void getProdIdRx(sh2_t *pSh2, const uint8_t *payload, uint16_t len)
{
 8001754:	b580      	push	{r7, lr}
 8001756:	b088      	sub	sp, #32
 8001758:	af00      	add	r7, sp, #0
 800175a:	60f8      	str	r0, [r7, #12]
 800175c:	60b9      	str	r1, [r7, #8]
 800175e:	4613      	mov	r3, r2
 8001760:	80fb      	strh	r3, [r7, #6]
    ProdIdResp_t *resp = (ProdIdResp_t *)payload;
 8001762:	68bb      	ldr	r3, [r7, #8]
 8001764:	61fb      	str	r3, [r7, #28]
    
    // skip this if it isn't the product id response.
    if (resp->reportId != SENSORHUB_PROD_ID_RESP) return;
 8001766:	69fb      	ldr	r3, [r7, #28]
 8001768:	781b      	ldrb	r3, [r3, #0]
 800176a:	2bf8      	cmp	r3, #248	@ 0xf8
 800176c:	d161      	bne.n	8001832 <getProdIdRx+0xde>

    // Store this product id, if we can
    sh2_ProductIds_t *pProdIds = pSh2->opData.getProdIds.pProdIds;
 800176e:	68fb      	ldr	r3, [r7, #12]
 8001770:	f8d3 30a8 	ldr.w	r3, [r3, #168]	@ 0xa8
 8001774:	61bb      	str	r3, [r7, #24]
    
    if (pProdIds) {
 8001776:	69bb      	ldr	r3, [r7, #24]
 8001778:	2b00      	cmp	r3, #0
 800177a:	d040      	beq.n	80017fe <getProdIdRx+0xaa>
        // Store the product id response
        if (pSh2->opData.getProdIds.nextEntry < pSh2->opData.getProdIds.expectedEntries) {
 800177c:	68fb      	ldr	r3, [r7, #12]
 800177e:	f893 20ac 	ldrb.w	r2, [r3, #172]	@ 0xac
 8001782:	68fb      	ldr	r3, [r7, #12]
 8001784:	f893 30ad 	ldrb.w	r3, [r3, #173]	@ 0xad
 8001788:	429a      	cmp	r2, r3
 800178a:	d238      	bcs.n	80017fe <getProdIdRx+0xaa>
            sh2_ProductId_t *pProdId = &pProdIds->entry[pSh2->opData.getProdIds.nextEntry];
 800178c:	68fb      	ldr	r3, [r7, #12]
 800178e:	f893 30ac 	ldrb.w	r3, [r3, #172]	@ 0xac
 8001792:	011b      	lsls	r3, r3, #4
 8001794:	69ba      	ldr	r2, [r7, #24]
 8001796:	4413      	add	r3, r2
 8001798:	617b      	str	r3, [r7, #20]
            
            pProdId->resetCause = resp->resetCause;
 800179a:	69fb      	ldr	r3, [r7, #28]
 800179c:	785a      	ldrb	r2, [r3, #1]
 800179e:	697b      	ldr	r3, [r7, #20]
 80017a0:	701a      	strb	r2, [r3, #0]
            pProdId->swVersionMajor = resp->swVerMajor;
 80017a2:	69fb      	ldr	r3, [r7, #28]
 80017a4:	789a      	ldrb	r2, [r3, #2]
 80017a6:	697b      	ldr	r3, [r7, #20]
 80017a8:	705a      	strb	r2, [r3, #1]
            pProdId->swVersionMinor = resp->swVerMinor;
 80017aa:	69fb      	ldr	r3, [r7, #28]
 80017ac:	78da      	ldrb	r2, [r3, #3]
 80017ae:	697b      	ldr	r3, [r7, #20]
 80017b0:	709a      	strb	r2, [r3, #2]
            pProdId->swPartNumber = resp->swPartNumber;
 80017b2:	69fb      	ldr	r3, [r7, #28]
 80017b4:	685a      	ldr	r2, [r3, #4]
 80017b6:	697b      	ldr	r3, [r7, #20]
 80017b8:	605a      	str	r2, [r3, #4]
            pProdId->swBuildNumber = resp->swBuildNumber;
 80017ba:	69fb      	ldr	r3, [r7, #28]
 80017bc:	689a      	ldr	r2, [r3, #8]
 80017be:	697b      	ldr	r3, [r7, #20]
 80017c0:	609a      	str	r2, [r3, #8]
            pProdId->swVersionPatch = resp->swVerPatch;
 80017c2:	69fb      	ldr	r3, [r7, #28]
 80017c4:	899b      	ldrh	r3, [r3, #12]
 80017c6:	b29a      	uxth	r2, r3
 80017c8:	697b      	ldr	r3, [r7, #20]
 80017ca:	819a      	strh	r2, [r3, #12]
            pProdId->reserved0 = resp->reserved0;
 80017cc:	69fb      	ldr	r3, [r7, #28]
 80017ce:	7b9a      	ldrb	r2, [r3, #14]
 80017d0:	697b      	ldr	r3, [r7, #20]
 80017d2:	739a      	strb	r2, [r3, #14]
            pProdId->reserved1 = resp->reserved1;
 80017d4:	69fb      	ldr	r3, [r7, #28]
 80017d6:	7bda      	ldrb	r2, [r3, #15]
 80017d8:	697b      	ldr	r3, [r7, #20]
 80017da:	73da      	strb	r2, [r3, #15]

            if (pProdId->swPartNumber == 10004095) {
 80017dc:	697b      	ldr	r3, [r7, #20]
 80017de:	685b      	ldr	r3, [r3, #4]
 80017e0:	4a17      	ldr	r2, [pc, #92]	@ (8001840 <getProdIdRx+0xec>)
 80017e2:	4293      	cmp	r3, r2
 80017e4:	d103      	bne.n	80017ee <getProdIdRx+0x9a>
                // FSP200 has 5 product id entries
                pSh2->opData.getProdIds.expectedEntries = 5;
 80017e6:	68fb      	ldr	r3, [r7, #12]
 80017e8:	2205      	movs	r2, #5
 80017ea:	f883 20ad 	strb.w	r2, [r3, #173]	@ 0xad
            }


            pSh2->opData.getProdIds.nextEntry++;
 80017ee:	68fb      	ldr	r3, [r7, #12]
 80017f0:	f893 30ac 	ldrb.w	r3, [r3, #172]	@ 0xac
 80017f4:	3301      	adds	r3, #1
 80017f6:	b2da      	uxtb	r2, r3
 80017f8:	68fb      	ldr	r3, [r7, #12]
 80017fa:	f883 20ac 	strb.w	r2, [r3, #172]	@ 0xac
        }
    }

    // Complete this operation if there is no storage for more product ids
    if ((pSh2->opData.getProdIds.pProdIds == 0) ||
 80017fe:	68fb      	ldr	r3, [r7, #12]
 8001800:	f8d3 30a8 	ldr.w	r3, [r3, #168]	@ 0xa8
 8001804:	2b00      	cmp	r3, #0
 8001806:	d007      	beq.n	8001818 <getProdIdRx+0xc4>
        (pSh2->opData.getProdIds.nextEntry >= pSh2->opData.getProdIds.expectedEntries)) {
 8001808:	68fb      	ldr	r3, [r7, #12]
 800180a:	f893 20ac 	ldrb.w	r2, [r3, #172]	@ 0xac
 800180e:	68fb      	ldr	r3, [r7, #12]
 8001810:	f893 30ad 	ldrb.w	r3, [r3, #173]	@ 0xad
    if ((pSh2->opData.getProdIds.pProdIds == 0) ||
 8001814:	429a      	cmp	r2, r3
 8001816:	d30e      	bcc.n	8001836 <getProdIdRx+0xe2>
        
        pSh2->opData.getProdIds.pProdIds->numEntries = pSh2->opData.getProdIds.nextEntry;
 8001818:	68fb      	ldr	r3, [r7, #12]
 800181a:	f8d3 30a8 	ldr.w	r3, [r3, #168]	@ 0xa8
 800181e:	68fa      	ldr	r2, [r7, #12]
 8001820:	f892 20ac 	ldrb.w	r2, [r2, #172]	@ 0xac
 8001824:	f883 2050 	strb.w	r2, [r3, #80]	@ 0x50
        opCompleted(pSh2, SH2_OK);
 8001828:	2100      	movs	r1, #0
 800182a:	68f8      	ldr	r0, [r7, #12]
 800182c:	f7ff fd24 	bl	8001278 <opCompleted>
    }

    return;
 8001830:	e001      	b.n	8001836 <getProdIdRx+0xe2>
    if (resp->reportId != SENSORHUB_PROD_ID_RESP) return;
 8001832:	bf00      	nop
 8001834:	e000      	b.n	8001838 <getProdIdRx+0xe4>
    return;
 8001836:	bf00      	nop
}
 8001838:	3720      	adds	r7, #32
 800183a:	46bd      	mov	sp, r7
 800183c:	bd80      	pop	{r7, pc}
 800183e:	bf00      	nop
 8001840:	0098a67f 	.word	0x0098a67f

08001844 <setSensorConfigStart>:
    uint32_t batchInterval_uS;
    uint32_t sensorSpecific;
} SetFeatureReport_t;

static int setSensorConfigStart(sh2_t *pSh2)
{
 8001844:	b580      	push	{r7, lr}
 8001846:	b08a      	sub	sp, #40	@ 0x28
 8001848:	af00      	add	r7, sp, #0
 800184a:	6078      	str	r0, [r7, #4]
    SetFeatureReport_t req;
    uint8_t flags = 0;
 800184c:	2300      	movs	r3, #0
 800184e:	f887 3027 	strb.w	r3, [r7, #39]	@ 0x27
    int rc;
    sh2_SensorConfig_t *pConfig = pSh2->opData.getSensorConfig.pConfig;
 8001852:	687b      	ldr	r3, [r7, #4]
 8001854:	f8d3 30a8 	ldr.w	r3, [r3, #168]	@ 0xa8
 8001858:	623b      	str	r3, [r7, #32]
    
    if (pConfig->changeSensitivityEnabled)  flags |= FEAT_CHANGE_SENSITIVITY_ENABLED;
 800185a:	6a3b      	ldr	r3, [r7, #32]
 800185c:	781b      	ldrb	r3, [r3, #0]
 800185e:	2b00      	cmp	r3, #0
 8001860:	d005      	beq.n	800186e <setSensorConfigStart+0x2a>
 8001862:	f897 3027 	ldrb.w	r3, [r7, #39]	@ 0x27
 8001866:	f043 0302 	orr.w	r3, r3, #2
 800186a:	f887 3027 	strb.w	r3, [r7, #39]	@ 0x27
    if (pConfig->changeSensitivityRelative) flags |= FEAT_CHANGE_SENSITIVITY_RELATIVE;
 800186e:	6a3b      	ldr	r3, [r7, #32]
 8001870:	785b      	ldrb	r3, [r3, #1]
 8001872:	2b00      	cmp	r3, #0
 8001874:	d005      	beq.n	8001882 <setSensorConfigStart+0x3e>
 8001876:	f897 3027 	ldrb.w	r3, [r7, #39]	@ 0x27
 800187a:	f043 0301 	orr.w	r3, r3, #1
 800187e:	f887 3027 	strb.w	r3, [r7, #39]	@ 0x27
    if (pConfig->wakeupEnabled)             flags |= FEAT_WAKE_ENABLED;
 8001882:	6a3b      	ldr	r3, [r7, #32]
 8001884:	789b      	ldrb	r3, [r3, #2]
 8001886:	2b00      	cmp	r3, #0
 8001888:	d005      	beq.n	8001896 <setSensorConfigStart+0x52>
 800188a:	f897 3027 	ldrb.w	r3, [r7, #39]	@ 0x27
 800188e:	f043 0304 	orr.w	r3, r3, #4
 8001892:	f887 3027 	strb.w	r3, [r7, #39]	@ 0x27
    if (pConfig->alwaysOnEnabled)           flags |= FEAT_ALWAYS_ON_ENABLED;
 8001896:	6a3b      	ldr	r3, [r7, #32]
 8001898:	78db      	ldrb	r3, [r3, #3]
 800189a:	2b00      	cmp	r3, #0
 800189c:	d005      	beq.n	80018aa <setSensorConfigStart+0x66>
 800189e:	f897 3027 	ldrb.w	r3, [r7, #39]	@ 0x27
 80018a2:	f043 0308 	orr.w	r3, r3, #8
 80018a6:	f887 3027 	strb.w	r3, [r7, #39]	@ 0x27

    memset(&req, 0, sizeof(req));
 80018aa:	f107 0308 	add.w	r3, r7, #8
 80018ae:	2211      	movs	r2, #17
 80018b0:	2100      	movs	r1, #0
 80018b2:	4618      	mov	r0, r3
 80018b4:	f005 fc41 	bl	800713a <memset>
    req.reportId = SENSORHUB_SET_FEATURE_CMD;
 80018b8:	23fd      	movs	r3, #253	@ 0xfd
 80018ba:	723b      	strb	r3, [r7, #8]
    req.featureReportId = pSh2->opData.setSensorConfig.sensorId;
 80018bc:	687b      	ldr	r3, [r7, #4]
 80018be:	f893 30ac 	ldrb.w	r3, [r3, #172]	@ 0xac
 80018c2:	727b      	strb	r3, [r7, #9]
    req.flags = flags;
 80018c4:	f897 3027 	ldrb.w	r3, [r7, #39]	@ 0x27
 80018c8:	72bb      	strb	r3, [r7, #10]
    req.changeSensitivity = pConfig->changeSensitivity;
 80018ca:	6a3b      	ldr	r3, [r7, #32]
 80018cc:	889b      	ldrh	r3, [r3, #4]
 80018ce:	f8a7 300b 	strh.w	r3, [r7, #11]
    req.reportInterval_uS = pConfig->reportInterval_us;
 80018d2:	6a3b      	ldr	r3, [r7, #32]
 80018d4:	689b      	ldr	r3, [r3, #8]
 80018d6:	f8c7 300d 	str.w	r3, [r7, #13]
    req.batchInterval_uS = pConfig->batchInterval_us;
 80018da:	6a3b      	ldr	r3, [r7, #32]
 80018dc:	68db      	ldr	r3, [r3, #12]
 80018de:	f8c7 3011 	str.w	r3, [r7, #17]
    req.sensorSpecific = pConfig->sensorSpecific;
 80018e2:	6a3b      	ldr	r3, [r7, #32]
 80018e4:	691b      	ldr	r3, [r3, #16]
 80018e6:	f8c7 3015 	str.w	r3, [r7, #21]

    rc = sendCtrl(pSh2, (uint8_t *)&req, sizeof(req));
 80018ea:	f107 0308 	add.w	r3, r7, #8
 80018ee:	2211      	movs	r2, #17
 80018f0:	4619      	mov	r1, r3
 80018f2:	6878      	ldr	r0, [r7, #4]
 80018f4:	f7ff fef6 	bl	80016e4 <sendCtrl>
 80018f8:	61f8      	str	r0, [r7, #28]
    opCompleted(pSh2, rc);
 80018fa:	69f9      	ldr	r1, [r7, #28]
 80018fc:	6878      	ldr	r0, [r7, #4]
 80018fe:	f7ff fcbb 	bl	8001278 <opCompleted>

    return rc;
 8001902:	69fb      	ldr	r3, [r7, #28]
}
 8001904:	4618      	mov	r0, r3
 8001906:	3728      	adds	r7, #40	@ 0x28
 8001908:	46bd      	mov	sp, r7
 800190a:	bd80      	pop	{r7, pc}

0800190c <shtpEventCallback>:


// ------------------------------------------------------------------------
// SHTP Event Callback

static void shtpEventCallback(void *cookie, shtp_Event_t shtpEvent) {
 800190c:	b580      	push	{r7, lr}
 800190e:	b084      	sub	sp, #16
 8001910:	af00      	add	r7, sp, #0
 8001912:	6078      	str	r0, [r7, #4]
 8001914:	460b      	mov	r3, r1
 8001916:	70fb      	strb	r3, [r7, #3]
    sh2_t *pSh2 = &_sh2;
 8001918:	4b0c      	ldr	r3, [pc, #48]	@ (800194c <shtpEventCallback+0x40>)
 800191a:	60fb      	str	r3, [r7, #12]

    sh2AsyncEvent.eventId = SH2_SHTP_EVENT;
 800191c:	4b0c      	ldr	r3, [pc, #48]	@ (8001950 <shtpEventCallback+0x44>)
 800191e:	2201      	movs	r2, #1
 8001920:	601a      	str	r2, [r3, #0]
    sh2AsyncEvent.shtpEvent = shtpEvent;
 8001922:	4a0b      	ldr	r2, [pc, #44]	@ (8001950 <shtpEventCallback+0x44>)
 8001924:	78fb      	ldrb	r3, [r7, #3]
 8001926:	7113      	strb	r3, [r2, #4]
    if (pSh2->eventCallback) {
 8001928:	68fb      	ldr	r3, [r7, #12]
 800192a:	f8d3 30bc 	ldr.w	r3, [r3, #188]	@ 0xbc
 800192e:	2b00      	cmp	r3, #0
 8001930:	d008      	beq.n	8001944 <shtpEventCallback+0x38>
        pSh2->eventCallback(pSh2->eventCookie, &sh2AsyncEvent);
 8001932:	68fb      	ldr	r3, [r7, #12]
 8001934:	f8d3 30bc 	ldr.w	r3, [r3, #188]	@ 0xbc
 8001938:	68fa      	ldr	r2, [r7, #12]
 800193a:	f8d2 20c0 	ldr.w	r2, [r2, #192]	@ 0xc0
 800193e:	4904      	ldr	r1, [pc, #16]	@ (8001950 <shtpEventCallback+0x44>)
 8001940:	4610      	mov	r0, r2
 8001942:	4798      	blx	r3
    }
}
 8001944:	bf00      	nop
 8001946:	3710      	adds	r7, #16
 8001948:	46bd      	mov	sp, r7
 800194a:	bd80      	pop	{r7, pc}
 800194c:	2000043c 	.word	0x2000043c
 8001950:	20000638 	.word	0x20000638

08001954 <sh2_open>:
 * @param  eventCookie Will be passed to eventCallback.
 * @return SH2_OK (0), on success.  Negative value from sh2_err.h on error.
 */
int sh2_open(sh2_Hal_t *pHal,
             sh2_EventCallback_t *eventCallback, void *eventCookie)
{
 8001954:	b580      	push	{r7, lr}
 8001956:	b08a      	sub	sp, #40	@ 0x28
 8001958:	af02      	add	r7, sp, #8
 800195a:	60f8      	str	r0, [r7, #12]
 800195c:	60b9      	str	r1, [r7, #8]
 800195e:	607a      	str	r2, [r7, #4]
    sh2_t *pSh2 = &_sh2;
 8001960:	4b51      	ldr	r3, [pc, #324]	@ (8001aa8 <sh2_open+0x154>)
 8001962:	61bb      	str	r3, [r7, #24]
    
    // Validate parameters
    if (pHal == 0) return SH2_ERR_BAD_PARAM;
 8001964:	68fb      	ldr	r3, [r7, #12]
 8001966:	2b00      	cmp	r3, #0
 8001968:	d102      	bne.n	8001970 <sh2_open+0x1c>
 800196a:	f06f 0301 	mvn.w	r3, #1
 800196e:	e096      	b.n	8001a9e <sh2_open+0x14a>

    // Clear everything in sh2 structure.
    memset(&_sh2, 0, sizeof(_sh2));
 8001970:	f44f 72fe 	mov.w	r2, #508	@ 0x1fc
 8001974:	2100      	movs	r1, #0
 8001976:	484c      	ldr	r0, [pc, #304]	@ (8001aa8 <sh2_open+0x154>)
 8001978:	f005 fbdf 	bl	800713a <memset>
        
    pSh2->resetComplete = false;  // will go true after reset response from SH.
 800197c:	69bb      	ldr	r3, [r7, #24]
 800197e:	2200      	movs	r2, #0
 8001980:	721a      	strb	r2, [r3, #8]
    pSh2->controlChan = 0xFF;  // An invalid value since we don't know yet.
 8001982:	69bb      	ldr	r3, [r7, #24]
 8001984:	22ff      	movs	r2, #255	@ 0xff
 8001986:	72da      	strb	r2, [r3, #11]
    
    // Store reference to HAL for future use.
    pSh2->pHal = pHal;
 8001988:	69bb      	ldr	r3, [r7, #24]
 800198a:	68fa      	ldr	r2, [r7, #12]
 800198c:	601a      	str	r2, [r3, #0]
    pSh2->eventCallback = eventCallback;
 800198e:	69bb      	ldr	r3, [r7, #24]
 8001990:	68ba      	ldr	r2, [r7, #8]
 8001992:	f8c3 20bc 	str.w	r2, [r3, #188]	@ 0xbc
    pSh2->eventCookie = eventCookie;
 8001996:	69bb      	ldr	r3, [r7, #24]
 8001998:	687a      	ldr	r2, [r7, #4]
 800199a:	f8c3 20c0 	str.w	r2, [r3, #192]	@ 0xc0
    pSh2->sensorCallback = 0;
 800199e:	69bb      	ldr	r3, [r7, #24]
 80019a0:	2200      	movs	r2, #0
 80019a2:	f8c3 20c4 	str.w	r2, [r3, #196]	@ 0xc4
    pSh2->sensorCookie = 0;
 80019a6:	69bb      	ldr	r3, [r7, #24]
 80019a8:	2200      	movs	r2, #0
 80019aa:	f8c3 20c8 	str.w	r2, [r3, #200]	@ 0xc8

    // Open SHTP layer
    pSh2->pShtp = shtp_open(pSh2->pHal);
 80019ae:	69bb      	ldr	r3, [r7, #24]
 80019b0:	681b      	ldr	r3, [r3, #0]
 80019b2:	4618      	mov	r0, r3
 80019b4:	f001 ff8c 	bl	80038d0 <shtp_open>
 80019b8:	4602      	mov	r2, r0
 80019ba:	69bb      	ldr	r3, [r7, #24]
 80019bc:	605a      	str	r2, [r3, #4]
    if (pSh2->pShtp == 0) {
 80019be:	69bb      	ldr	r3, [r7, #24]
 80019c0:	685b      	ldr	r3, [r3, #4]
 80019c2:	2b00      	cmp	r3, #0
 80019c4:	d102      	bne.n	80019cc <sh2_open+0x78>
        // Error opening SHTP
        return SH2_ERR;
 80019c6:	f04f 33ff 	mov.w	r3, #4294967295	@ 0xffffffff
 80019ca:	e068      	b.n	8001a9e <sh2_open+0x14a>
    }

    // Register SHTP event callback
    shtp_setEventCallback(pSh2->pShtp, shtpEventCallback, &_sh2);
 80019cc:	69bb      	ldr	r3, [r7, #24]
 80019ce:	685b      	ldr	r3, [r3, #4]
 80019d0:	4a35      	ldr	r2, [pc, #212]	@ (8001aa8 <sh2_open+0x154>)
 80019d2:	4936      	ldr	r1, [pc, #216]	@ (8001aac <sh2_open+0x158>)
 80019d4:	4618      	mov	r0, r3
 80019d6:	f001 fff2 	bl	80039be <shtp_setEventCallback>

    // Register with SHTP
    // Register SH2 handlers
    shtp_listenAdvert(pSh2->pShtp, GUID_SENSORHUB, sensorhubAdvertHdlr, &_sh2);
 80019da:	69bb      	ldr	r3, [r7, #24]
 80019dc:	6858      	ldr	r0, [r3, #4]
 80019de:	4b32      	ldr	r3, [pc, #200]	@ (8001aa8 <sh2_open+0x154>)
 80019e0:	4a33      	ldr	r2, [pc, #204]	@ (8001ab0 <sh2_open+0x15c>)
 80019e2:	2102      	movs	r1, #2
 80019e4:	f002 f820 	bl	8003a28 <shtp_listenAdvert>
    shtp_listenChan(pSh2->pShtp, GUID_SENSORHUB, "control", sensorhubControlHdlr, &_sh2);
 80019e8:	69bb      	ldr	r3, [r7, #24]
 80019ea:	6858      	ldr	r0, [r3, #4]
 80019ec:	4b2e      	ldr	r3, [pc, #184]	@ (8001aa8 <sh2_open+0x154>)
 80019ee:	9300      	str	r3, [sp, #0]
 80019f0:	4b30      	ldr	r3, [pc, #192]	@ (8001ab4 <sh2_open+0x160>)
 80019f2:	4a31      	ldr	r2, [pc, #196]	@ (8001ab8 <sh2_open+0x164>)
 80019f4:	2102      	movs	r1, #2
 80019f6:	f001 fff6 	bl	80039e6 <shtp_listenChan>
    shtp_listenChan(pSh2->pShtp, GUID_SENSORHUB, "inputNormal", sensorhubInputNormalHdlr, &_sh2);
 80019fa:	69bb      	ldr	r3, [r7, #24]
 80019fc:	6858      	ldr	r0, [r3, #4]
 80019fe:	4b2a      	ldr	r3, [pc, #168]	@ (8001aa8 <sh2_open+0x154>)
 8001a00:	9300      	str	r3, [sp, #0]
 8001a02:	4b2e      	ldr	r3, [pc, #184]	@ (8001abc <sh2_open+0x168>)
 8001a04:	4a2e      	ldr	r2, [pc, #184]	@ (8001ac0 <sh2_open+0x16c>)
 8001a06:	2102      	movs	r1, #2
 8001a08:	f001 ffed 	bl	80039e6 <shtp_listenChan>
    shtp_listenChan(pSh2->pShtp, GUID_SENSORHUB, "inputWake", sensorhubInputWakeHdlr, &_sh2);
 8001a0c:	69bb      	ldr	r3, [r7, #24]
 8001a0e:	6858      	ldr	r0, [r3, #4]
 8001a10:	4b25      	ldr	r3, [pc, #148]	@ (8001aa8 <sh2_open+0x154>)
 8001a12:	9300      	str	r3, [sp, #0]
 8001a14:	4b2b      	ldr	r3, [pc, #172]	@ (8001ac4 <sh2_open+0x170>)
 8001a16:	4a2c      	ldr	r2, [pc, #176]	@ (8001ac8 <sh2_open+0x174>)
 8001a18:	2102      	movs	r1, #2
 8001a1a:	f001 ffe4 	bl	80039e6 <shtp_listenChan>
    shtp_listenChan(pSh2->pShtp, GUID_SENSORHUB, "inputGyroRv", sensorhubInputGyroRvHdlr, &_sh2);
 8001a1e:	69bb      	ldr	r3, [r7, #24]
 8001a20:	6858      	ldr	r0, [r3, #4]
 8001a22:	4b21      	ldr	r3, [pc, #132]	@ (8001aa8 <sh2_open+0x154>)
 8001a24:	9300      	str	r3, [sp, #0]
 8001a26:	4b29      	ldr	r3, [pc, #164]	@ (8001acc <sh2_open+0x178>)
 8001a28:	4a29      	ldr	r2, [pc, #164]	@ (8001ad0 <sh2_open+0x17c>)
 8001a2a:	2102      	movs	r1, #2
 8001a2c:	f001 ffdb 	bl	80039e6 <shtp_listenChan>

    // Register EXECUTABLE handlers
    shtp_listenAdvert(pSh2->pShtp, GUID_EXECUTABLE, executableAdvertHdlr, &_sh2);
 8001a30:	69bb      	ldr	r3, [r7, #24]
 8001a32:	6858      	ldr	r0, [r3, #4]
 8001a34:	4b1c      	ldr	r3, [pc, #112]	@ (8001aa8 <sh2_open+0x154>)
 8001a36:	4a27      	ldr	r2, [pc, #156]	@ (8001ad4 <sh2_open+0x180>)
 8001a38:	2101      	movs	r1, #1
 8001a3a:	f001 fff5 	bl	8003a28 <shtp_listenAdvert>
    shtp_listenChan(pSh2->pShtp, GUID_EXECUTABLE, "device", executableDeviceHdlr, &_sh2);
 8001a3e:	69bb      	ldr	r3, [r7, #24]
 8001a40:	6858      	ldr	r0, [r3, #4]
 8001a42:	4b19      	ldr	r3, [pc, #100]	@ (8001aa8 <sh2_open+0x154>)
 8001a44:	9300      	str	r3, [sp, #0]
 8001a46:	4b24      	ldr	r3, [pc, #144]	@ (8001ad8 <sh2_open+0x184>)
 8001a48:	4a24      	ldr	r2, [pc, #144]	@ (8001adc <sh2_open+0x188>)
 8001a4a:	2101      	movs	r1, #1
 8001a4c:	f001 ffcb 	bl	80039e6 <shtp_listenChan>

    // Wait for reset notifications to arrive.
    // The client can't talk to the sensor hub until that happens.
    uint32_t start_us = pSh2->pHal->getTimeUs(pSh2->pHal);
 8001a50:	69bb      	ldr	r3, [r7, #24]
 8001a52:	681b      	ldr	r3, [r3, #0]
 8001a54:	691b      	ldr	r3, [r3, #16]
 8001a56:	69ba      	ldr	r2, [r7, #24]
 8001a58:	6812      	ldr	r2, [r2, #0]
 8001a5a:	4610      	mov	r0, r2
 8001a5c:	4798      	blx	r3
 8001a5e:	6178      	str	r0, [r7, #20]
    uint32_t now_us = start_us;
 8001a60:	697b      	ldr	r3, [r7, #20]
 8001a62:	61fb      	str	r3, [r7, #28]
    while (((now_us - start_us) < ADVERT_TIMEOUT_US) &&
 8001a64:	e00c      	b.n	8001a80 <sh2_open+0x12c>
           (!pSh2->resetComplete))
    {
        shtp_service(pSh2->pShtp);
 8001a66:	69bb      	ldr	r3, [r7, #24]
 8001a68:	685b      	ldr	r3, [r3, #4]
 8001a6a:	4618      	mov	r0, r3
 8001a6c:	f002 f890 	bl	8003b90 <shtp_service>
        now_us = pSh2->pHal->getTimeUs(pSh2->pHal);
 8001a70:	69bb      	ldr	r3, [r7, #24]
 8001a72:	681b      	ldr	r3, [r3, #0]
 8001a74:	691b      	ldr	r3, [r3, #16]
 8001a76:	69ba      	ldr	r2, [r7, #24]
 8001a78:	6812      	ldr	r2, [r2, #0]
 8001a7a:	4610      	mov	r0, r2
 8001a7c:	4798      	blx	r3
 8001a7e:	61f8      	str	r0, [r7, #28]
    while (((now_us - start_us) < ADVERT_TIMEOUT_US) &&
 8001a80:	69fa      	ldr	r2, [r7, #28]
 8001a82:	697b      	ldr	r3, [r7, #20]
 8001a84:	1ad3      	subs	r3, r2, r3
 8001a86:	4a16      	ldr	r2, [pc, #88]	@ (8001ae0 <sh2_open+0x18c>)
 8001a88:	4293      	cmp	r3, r2
 8001a8a:	d807      	bhi.n	8001a9c <sh2_open+0x148>
           (!pSh2->resetComplete))
 8001a8c:	69bb      	ldr	r3, [r7, #24]
 8001a8e:	7a1b      	ldrb	r3, [r3, #8]
 8001a90:	b2db      	uxtb	r3, r3
 8001a92:	f083 0301 	eor.w	r3, r3, #1
 8001a96:	b2db      	uxtb	r3, r3
    while (((now_us - start_us) < ADVERT_TIMEOUT_US) &&
 8001a98:	2b00      	cmp	r3, #0
 8001a9a:	d1e4      	bne.n	8001a66 <sh2_open+0x112>
    }
    
    // No errors.
    return SH2_OK;
 8001a9c:	2300      	movs	r3, #0
}
 8001a9e:	4618      	mov	r0, r3
 8001aa0:	3720      	adds	r7, #32
 8001aa2:	46bd      	mov	sp, r7
 8001aa4:	bd80      	pop	{r7, pc}
 8001aa6:	bf00      	nop
 8001aa8:	2000043c 	.word	0x2000043c
 8001aac:	0800190d 	.word	0x0800190d
 8001ab0:	08001001 	.word	0x08001001
 8001ab4:	080010e1 	.word	0x080010e1
 8001ab8:	0800775c 	.word	0x0800775c
 8001abc:	08001563 	.word	0x08001563
 8001ac0:	08007770 	.word	0x08007770
 8001ac4:	0800158b 	.word	0x0800158b
 8001ac8:	0800777c 	.word	0x0800777c
 8001acc:	080015b3 	.word	0x080015b3
 8001ad0:	08007788 	.word	0x08007788
 8001ad4:	0800164f 	.word	0x0800164f
 8001ad8:	0800166d 	.word	0x0800166d
 8001adc:	08007748 	.word	0x08007748
 8001ae0:	00030d3f 	.word	0x00030d3f

08001ae4 <sh2_close>:
 *
 * This should be called at the end of a sensor hub session.  
 * The underlying SHTP and HAL instances will be closed.
 */
void sh2_close(void)
{
 8001ae4:	b580      	push	{r7, lr}
 8001ae6:	b082      	sub	sp, #8
 8001ae8:	af00      	add	r7, sp, #0
    sh2_t *pSh2 = &_sh2;
 8001aea:	4b08      	ldr	r3, [pc, #32]	@ (8001b0c <sh2_close+0x28>)
 8001aec:	607b      	str	r3, [r7, #4]
    
    shtp_close(pSh2->pShtp);
 8001aee:	687b      	ldr	r3, [r7, #4]
 8001af0:	685b      	ldr	r3, [r3, #4]
 8001af2:	4618      	mov	r0, r3
 8001af4:	f001 ff4c 	bl	8003990 <shtp_close>

    // Clear everything in sh2 structure.
    memset(pSh2, 0, sizeof(sh2_t));
 8001af8:	f44f 72fe 	mov.w	r2, #508	@ 0x1fc
 8001afc:	2100      	movs	r1, #0
 8001afe:	6878      	ldr	r0, [r7, #4]
 8001b00:	f005 fb1b 	bl	800713a <memset>
}
 8001b04:	bf00      	nop
 8001b06:	3708      	adds	r7, #8
 8001b08:	46bd      	mov	sp, r7
 8001b0a:	bd80      	pop	{r7, pc}
 8001b0c:	2000043c 	.word	0x2000043c

08001b10 <sh2_service>:
 * @brief Service the SH2 device, reading any data that is available and dispatching callbacks.
 *
 * This function should be called periodically by the host system to service an open sensor hub.
 */
void sh2_service(void)
{
 8001b10:	b580      	push	{r7, lr}
 8001b12:	b082      	sub	sp, #8
 8001b14:	af00      	add	r7, sp, #0
    sh2_t *pSh2 = &_sh2;
 8001b16:	4b05      	ldr	r3, [pc, #20]	@ (8001b2c <sh2_service+0x1c>)
 8001b18:	607b      	str	r3, [r7, #4]
    
    shtp_service(pSh2->pShtp);
 8001b1a:	687b      	ldr	r3, [r7, #4]
 8001b1c:	685b      	ldr	r3, [r3, #4]
 8001b1e:	4618      	mov	r0, r3
 8001b20:	f002 f836 	bl	8003b90 <shtp_service>
}
 8001b24:	bf00      	nop
 8001b26:	3708      	adds	r7, #8
 8001b28:	46bd      	mov	sp, r7
 8001b2a:	bd80      	pop	{r7, pc}
 8001b2c:	2000043c 	.word	0x2000043c

08001b30 <sh2_setSensorCallback>:
 * @param  callback A function that will be called each time a sensor event is received.
 * @param  cookie  A value that will be passed to the sensor callback function.
 * @return SH2_OK (0), on success.  Negative value from sh2_err.h on error.
 */
int sh2_setSensorCallback(sh2_SensorCallback_t *callback, void *cookie)
{
 8001b30:	b480      	push	{r7}
 8001b32:	b085      	sub	sp, #20
 8001b34:	af00      	add	r7, sp, #0
 8001b36:	6078      	str	r0, [r7, #4]
 8001b38:	6039      	str	r1, [r7, #0]
    sh2_t *pSh2 = &_sh2;
 8001b3a:	4b08      	ldr	r3, [pc, #32]	@ (8001b5c <sh2_setSensorCallback+0x2c>)
 8001b3c:	60fb      	str	r3, [r7, #12]
    
    pSh2->sensorCallback = callback;
 8001b3e:	68fb      	ldr	r3, [r7, #12]
 8001b40:	687a      	ldr	r2, [r7, #4]
 8001b42:	f8c3 20c4 	str.w	r2, [r3, #196]	@ 0xc4
    pSh2->sensorCookie = cookie;
 8001b46:	68fb      	ldr	r3, [r7, #12]
 8001b48:	683a      	ldr	r2, [r7, #0]
 8001b4a:	f8c3 20c8 	str.w	r2, [r3, #200]	@ 0xc8

    return SH2_OK;
 8001b4e:	2300      	movs	r3, #0
}
 8001b50:	4618      	mov	r0, r3
 8001b52:	3714      	adds	r7, #20
 8001b54:	46bd      	mov	sp, r7
 8001b56:	f85d 7b04 	ldr.w	r7, [sp], #4
 8001b5a:	4770      	bx	lr
 8001b5c:	2000043c 	.word	0x2000043c

08001b60 <sh2_getProdIds>:
 *
 * @param  prodIds Pointer to structure that will receive results.
 * @return SH2_OK (0), on success.  Negative value from sh2_err.h on error.
 */
int sh2_getProdIds(sh2_ProductIds_t *prodIds)
{
 8001b60:	b580      	push	{r7, lr}
 8001b62:	b084      	sub	sp, #16
 8001b64:	af00      	add	r7, sp, #0
 8001b66:	6078      	str	r0, [r7, #4]
    sh2_t *pSh2 = &_sh2;
 8001b68:	4b0a      	ldr	r3, [pc, #40]	@ (8001b94 <sh2_getProdIds+0x34>)
 8001b6a:	60fb      	str	r3, [r7, #12]
    
    // clear opData
    memset(&pSh2->opData, 0, sizeof(sh2_OpData_t));
 8001b6c:	68fb      	ldr	r3, [r7, #12]
 8001b6e:	33a8      	adds	r3, #168	@ 0xa8
 8001b70:	2210      	movs	r2, #16
 8001b72:	2100      	movs	r1, #0
 8001b74:	4618      	mov	r0, r3
 8001b76:	f005 fae0 	bl	800713a <memset>
    
    pSh2->opData.getProdIds.pProdIds = prodIds;
 8001b7a:	68fb      	ldr	r3, [r7, #12]
 8001b7c:	687a      	ldr	r2, [r7, #4]
 8001b7e:	f8c3 20a8 	str.w	r2, [r3, #168]	@ 0xa8

    return opProcess(pSh2, &getProdIdOp);
 8001b82:	4905      	ldr	r1, [pc, #20]	@ (8001b98 <sh2_getProdIds+0x38>)
 8001b84:	68f8      	ldr	r0, [r7, #12]
 8001b86:	f7ff fb8b 	bl	80012a0 <opProcess>
 8001b8a:	4603      	mov	r3, r0
}
 8001b8c:	4618      	mov	r0, r3
 8001b8e:	3710      	adds	r7, #16
 8001b90:	46bd      	mov	sp, r7
 8001b92:	bd80      	pop	{r7, pc}
 8001b94:	2000043c 	.word	0x2000043c
 8001b98:	0800779c 	.word	0x0800779c

08001b9c <sh2_setSensorConfig>:
 * @param  sensorId Which sensor to configure.
 * @param  pConfig Pointer to structure holding sensor configuration.
 * @return SH2_OK (0), on success.  Negative value from sh2_err.h on error.
 */
int sh2_setSensorConfig(sh2_SensorId_t sensorId, const sh2_SensorConfig_t *pConfig)
{
 8001b9c:	b580      	push	{r7, lr}
 8001b9e:	b084      	sub	sp, #16
 8001ba0:	af00      	add	r7, sp, #0
 8001ba2:	4603      	mov	r3, r0
 8001ba4:	6039      	str	r1, [r7, #0]
 8001ba6:	71fb      	strb	r3, [r7, #7]
    sh2_t *pSh2 = &_sh2;
 8001ba8:	4b0c      	ldr	r3, [pc, #48]	@ (8001bdc <sh2_setSensorConfig+0x40>)
 8001baa:	60fb      	str	r3, [r7, #12]
    
    // clear opData
    memset(&pSh2->opData, 0, sizeof(sh2_OpData_t));
 8001bac:	68fb      	ldr	r3, [r7, #12]
 8001bae:	33a8      	adds	r3, #168	@ 0xa8
 8001bb0:	2210      	movs	r2, #16
 8001bb2:	2100      	movs	r1, #0
 8001bb4:	4618      	mov	r0, r3
 8001bb6:	f005 fac0 	bl	800713a <memset>
    
    // Set up operation
    pSh2->opData.setSensorConfig.sensorId = sensorId;
 8001bba:	68fb      	ldr	r3, [r7, #12]
 8001bbc:	79fa      	ldrb	r2, [r7, #7]
 8001bbe:	f883 20ac 	strb.w	r2, [r3, #172]	@ 0xac
    pSh2->opData.setSensorConfig.pConfig = pConfig;
 8001bc2:	68fb      	ldr	r3, [r7, #12]
 8001bc4:	683a      	ldr	r2, [r7, #0]
 8001bc6:	f8c3 20a8 	str.w	r2, [r3, #168]	@ 0xa8

    return opProcess(pSh2, &setSensorConfigOp);
 8001bca:	4905      	ldr	r1, [pc, #20]	@ (8001be0 <sh2_setSensorConfig+0x44>)
 8001bcc:	68f8      	ldr	r0, [r7, #12]
 8001bce:	f7ff fb67 	bl	80012a0 <opProcess>
 8001bd2:	4603      	mov	r3, r0
}
 8001bd4:	4618      	mov	r0, r3
 8001bd6:	3710      	adds	r7, #16
 8001bd8:	46bd      	mov	sp, r7
 8001bda:	bd80      	pop	{r7, pc}
 8001bdc:	2000043c 	.word	0x2000043c
 8001be0:	080077a8 	.word	0x080077a8

08001be4 <sh2_decodeSensorEvent>:

// ------------------------------------------------------------------------
// Public API

int sh2_decodeSensorEvent(sh2_SensorValue_t *value, const sh2_SensorEvent_t *event)
{
 8001be4:	b580      	push	{r7, lr}
 8001be6:	b084      	sub	sp, #16
 8001be8:	af00      	add	r7, sp, #0
 8001bea:	6078      	str	r0, [r7, #4]
 8001bec:	6039      	str	r1, [r7, #0]
    // Fill out fields of *value based on *event, converting data from message representation
    // to natural representation.

    int rc = SH2_OK;
 8001bee:	2300      	movs	r3, #0
 8001bf0:	60fb      	str	r3, [r7, #12]

    value->sensorId = event->reportId;
 8001bf2:	683b      	ldr	r3, [r7, #0]
 8001bf4:	7a5a      	ldrb	r2, [r3, #9]
 8001bf6:	687b      	ldr	r3, [r7, #4]
 8001bf8:	701a      	strb	r2, [r3, #0]
    value->timestamp = event->timestamp_uS;
 8001bfa:	683b      	ldr	r3, [r7, #0]
 8001bfc:	e9d3 2300 	ldrd	r2, r3, [r3]
 8001c00:	6879      	ldr	r1, [r7, #4]
 8001c02:	e9c1 2302 	strd	r2, r3, [r1, #8]

    if (value->sensorId != SH2_GYRO_INTEGRATED_RV) {
 8001c06:	687b      	ldr	r3, [r7, #4]
 8001c08:	781b      	ldrb	r3, [r3, #0]
 8001c0a:	2b2a      	cmp	r3, #42	@ 0x2a
 8001c0c:	d00b      	beq.n	8001c26 <sh2_decodeSensorEvent+0x42>
        value->sequence = event->report[1];
 8001c0e:	683b      	ldr	r3, [r7, #0]
 8001c10:	7ada      	ldrb	r2, [r3, #11]
 8001c12:	687b      	ldr	r3, [r7, #4]
 8001c14:	705a      	strb	r2, [r3, #1]
        value->status = event->report[2] & 0x03;
 8001c16:	683b      	ldr	r3, [r7, #0]
 8001c18:	7b1b      	ldrb	r3, [r3, #12]
 8001c1a:	f003 0303 	and.w	r3, r3, #3
 8001c1e:	b2da      	uxtb	r2, r3
 8001c20:	687b      	ldr	r3, [r7, #4]
 8001c22:	709a      	strb	r2, [r3, #2]
 8001c24:	e005      	b.n	8001c32 <sh2_decodeSensorEvent+0x4e>
    }
    else {
        value->sequence = 0;
 8001c26:	687b      	ldr	r3, [r7, #4]
 8001c28:	2200      	movs	r2, #0
 8001c2a:	705a      	strb	r2, [r3, #1]
        value->status = 0;
 8001c2c:	687b      	ldr	r3, [r7, #4]
 8001c2e:	2200      	movs	r2, #0
 8001c30:	709a      	strb	r2, [r3, #2]
    }

    // extract delay field (100uS units)
    
    
    switch (value->sensorId) {
 8001c32:	687b      	ldr	r3, [r7, #4]
 8001c34:	781b      	ldrb	r3, [r3, #0]
 8001c36:	3b01      	subs	r3, #1
 8001c38:	2b2a      	cmp	r3, #42	@ 0x2a
 8001c3a:	f200 813d 	bhi.w	8001eb8 <sh2_decodeSensorEvent+0x2d4>
 8001c3e:	a201      	add	r2, pc, #4	@ (adr r2, 8001c44 <sh2_decodeSensorEvent+0x60>)
 8001c40:	f852 f023 	ldr.w	pc, [r2, r3, lsl #2]
 8001c44:	08001cfd 	.word	0x08001cfd
 8001c48:	08001d2d 	.word	0x08001d2d
 8001c4c:	08001d51 	.word	0x08001d51
 8001c50:	08001d09 	.word	0x08001d09
 8001c54:	08001d69 	.word	0x08001d69
 8001c58:	08001d15 	.word	0x08001d15
 8001c5c:	08001d39 	.word	0x08001d39
 8001c60:	08001d75 	.word	0x08001d75
 8001c64:	08001d81 	.word	0x08001d81
 8001c68:	08001d8d 	.word	0x08001d8d
 8001c6c:	08001d99 	.word	0x08001d99
 8001c70:	08001da5 	.word	0x08001da5
 8001c74:	08001db1 	.word	0x08001db1
 8001c78:	08001dbd 	.word	0x08001dbd
 8001c7c:	08001d5d 	.word	0x08001d5d
 8001c80:	08001dd5 	.word	0x08001dd5
 8001c84:	08001ded 	.word	0x08001ded
 8001c88:	08001df9 	.word	0x08001df9
 8001c8c:	08001e05 	.word	0x08001e05
 8001c90:	08001cf1 	.word	0x08001cf1
 8001c94:	08001d21 	.word	0x08001d21
 8001c98:	08001d45 	.word	0x08001d45
 8001c9c:	08001dc9 	.word	0x08001dc9
 8001ca0:	08001de1 	.word	0x08001de1
 8001ca4:	08001e11 	.word	0x08001e11
 8001ca8:	08001e1d 	.word	0x08001e1d
 8001cac:	08001e29 	.word	0x08001e29
 8001cb0:	08001e35 	.word	0x08001e35
 8001cb4:	08001eb9 	.word	0x08001eb9
 8001cb8:	08001e41 	.word	0x08001e41
 8001cbc:	08001e4d 	.word	0x08001e4d
 8001cc0:	08001e59 	.word	0x08001e59
 8001cc4:	08001e65 	.word	0x08001e65
 8001cc8:	08001e71 	.word	0x08001e71
 8001ccc:	08001e7d 	.word	0x08001e7d
 8001cd0:	08001eb9 	.word	0x08001eb9
 8001cd4:	08001eb9 	.word	0x08001eb9
 8001cd8:	08001eb9 	.word	0x08001eb9
 8001cdc:	08001eb9 	.word	0x08001eb9
 8001ce0:	08001e89 	.word	0x08001e89
 8001ce4:	08001e95 	.word	0x08001e95
 8001ce8:	08001ea1 	.word	0x08001ea1
 8001cec:	08001ead 	.word	0x08001ead
        case SH2_RAW_ACCELEROMETER:
            rc = decodeRawAccelerometer(value, event);
 8001cf0:	6839      	ldr	r1, [r7, #0]
 8001cf2:	6878      	ldr	r0, [r7, #4]
 8001cf4:	f000 f8ea 	bl	8001ecc <decodeRawAccelerometer>
 8001cf8:	60f8      	str	r0, [r7, #12]
            break;
 8001cfa:	e0e1      	b.n	8001ec0 <sh2_decodeSensorEvent+0x2dc>
        case SH2_ACCELEROMETER:
            rc = decodeAccelerometer(value, event);
 8001cfc:	6839      	ldr	r1, [r7, #0]
 8001cfe:	6878      	ldr	r0, [r7, #4]
 8001d00:	f000 f912 	bl	8001f28 <decodeAccelerometer>
 8001d04:	60f8      	str	r0, [r7, #12]
            break;
 8001d06:	e0db      	b.n	8001ec0 <sh2_decodeSensorEvent+0x2dc>
        case SH2_LINEAR_ACCELERATION:
            rc = decodeLinearAcceleration(value, event);
 8001d08:	6839      	ldr	r1, [r7, #0]
 8001d0a:	6878      	ldr	r0, [r7, #4]
 8001d0c:	f000 f94c 	bl	8001fa8 <decodeLinearAcceleration>
 8001d10:	60f8      	str	r0, [r7, #12]
            break;
 8001d12:	e0d5      	b.n	8001ec0 <sh2_decodeSensorEvent+0x2dc>
        case SH2_GRAVITY:
            rc = decodeGravity(value, event);
 8001d14:	6839      	ldr	r1, [r7, #0]
 8001d16:	6878      	ldr	r0, [r7, #4]
 8001d18:	f000 f986 	bl	8002028 <decodeGravity>
 8001d1c:	60f8      	str	r0, [r7, #12]
            break;
 8001d1e:	e0cf      	b.n	8001ec0 <sh2_decodeSensorEvent+0x2dc>
        case SH2_RAW_GYROSCOPE:
            rc = decodeRawGyroscope(value, event);
 8001d20:	6839      	ldr	r1, [r7, #0]
 8001d22:	6878      	ldr	r0, [r7, #4]
 8001d24:	f000 f9c0 	bl	80020a8 <decodeRawGyroscope>
 8001d28:	60f8      	str	r0, [r7, #12]
            break;
 8001d2a:	e0c9      	b.n	8001ec0 <sh2_decodeSensorEvent+0x2dc>
        case SH2_GYROSCOPE_CALIBRATED:
            rc = decodeGyroscopeCalibrated(value, event);
 8001d2c:	6839      	ldr	r1, [r7, #0]
 8001d2e:	6878      	ldr	r0, [r7, #4]
 8001d30:	f000 f9f2 	bl	8002118 <decodeGyroscopeCalibrated>
 8001d34:	60f8      	str	r0, [r7, #12]
            break;
 8001d36:	e0c3      	b.n	8001ec0 <sh2_decodeSensorEvent+0x2dc>
        case SH2_GYROSCOPE_UNCALIBRATED:
            rc = decodeGyroscopeUncal(value, event);
 8001d38:	6839      	ldr	r1, [r7, #0]
 8001d3a:	6878      	ldr	r0, [r7, #4]
 8001d3c:	f000 fa2c 	bl	8002198 <decodeGyroscopeUncal>
 8001d40:	60f8      	str	r0, [r7, #12]
            break;
 8001d42:	e0bd      	b.n	8001ec0 <sh2_decodeSensorEvent+0x2dc>
        case SH2_RAW_MAGNETOMETER:
            rc = decodeRawMagnetometer(value, event);
 8001d44:	6839      	ldr	r1, [r7, #0]
 8001d46:	6878      	ldr	r0, [r7, #4]
 8001d48:	f000 fa98 	bl	800227c <decodeRawMagnetometer>
 8001d4c:	60f8      	str	r0, [r7, #12]
            break;
 8001d4e:	e0b7      	b.n	8001ec0 <sh2_decodeSensorEvent+0x2dc>
        case SH2_MAGNETIC_FIELD_CALIBRATED:
            rc = decodeMagneticFieldCalibrated(value, event);
 8001d50:	6839      	ldr	r1, [r7, #0]
 8001d52:	6878      	ldr	r0, [r7, #4]
 8001d54:	f000 fac0 	bl	80022d8 <decodeMagneticFieldCalibrated>
 8001d58:	60f8      	str	r0, [r7, #12]
            break;
 8001d5a:	e0b1      	b.n	8001ec0 <sh2_decodeSensorEvent+0x2dc>
        case SH2_MAGNETIC_FIELD_UNCALIBRATED:
            rc = decodeMagneticFieldUncal(value, event);
 8001d5c:	6839      	ldr	r1, [r7, #0]
 8001d5e:	6878      	ldr	r0, [r7, #4]
 8001d60:	f000 fafa 	bl	8002358 <decodeMagneticFieldUncal>
 8001d64:	60f8      	str	r0, [r7, #12]
            break;
 8001d66:	e0ab      	b.n	8001ec0 <sh2_decodeSensorEvent+0x2dc>
        case SH2_ROTATION_VECTOR:
            rc = decodeRotationVector(value, event);
 8001d68:	6839      	ldr	r1, [r7, #0]
 8001d6a:	6878      	ldr	r0, [r7, #4]
 8001d6c:	f000 fb66 	bl	800243c <decodeRotationVector>
 8001d70:	60f8      	str	r0, [r7, #12]
            break;
 8001d72:	e0a5      	b.n	8001ec0 <sh2_decodeSensorEvent+0x2dc>
        case SH2_GAME_ROTATION_VECTOR:
            rc = decodeGameRotationVector(value, event);
 8001d74:	6839      	ldr	r1, [r7, #0]
 8001d76:	6878      	ldr	r0, [r7, #4]
 8001d78:	f000 fbc4 	bl	8002504 <decodeGameRotationVector>
 8001d7c:	60f8      	str	r0, [r7, #12]
            break;
 8001d7e:	e09f      	b.n	8001ec0 <sh2_decodeSensorEvent+0x2dc>
        case SH2_GEOMAGNETIC_ROTATION_VECTOR:
            rc = decodeGeomagneticRotationVector(value, event);
 8001d80:	6839      	ldr	r1, [r7, #0]
 8001d82:	6878      	ldr	r0, [r7, #4]
 8001d84:	f000 fc0e 	bl	80025a4 <decodeGeomagneticRotationVector>
 8001d88:	60f8      	str	r0, [r7, #12]
            break;
 8001d8a:	e099      	b.n	8001ec0 <sh2_decodeSensorEvent+0x2dc>
        case SH2_PRESSURE:
            rc = decodePressure(value, event);
 8001d8c:	6839      	ldr	r1, [r7, #0]
 8001d8e:	6878      	ldr	r0, [r7, #4]
 8001d90:	f000 fc6c 	bl	800266c <decodePressure>
 8001d94:	60f8      	str	r0, [r7, #12]
            break;
 8001d96:	e093      	b.n	8001ec0 <sh2_decodeSensorEvent+0x2dc>
        case SH2_AMBIENT_LIGHT:
            rc = decodeAmbientLight(value, event);
 8001d98:	6839      	ldr	r1, [r7, #0]
 8001d9a:	6878      	ldr	r0, [r7, #4]
 8001d9c:	f000 fc82 	bl	80026a4 <decodeAmbientLight>
 8001da0:	60f8      	str	r0, [r7, #12]
            break;
 8001da2:	e08d      	b.n	8001ec0 <sh2_decodeSensorEvent+0x2dc>
        case SH2_HUMIDITY:
            rc = decodeHumidity(value, event);
 8001da4:	6839      	ldr	r1, [r7, #0]
 8001da6:	6878      	ldr	r0, [r7, #4]
 8001da8:	f000 fc98 	bl	80026dc <decodeHumidity>
 8001dac:	60f8      	str	r0, [r7, #12]
            break;
 8001dae:	e087      	b.n	8001ec0 <sh2_decodeSensorEvent+0x2dc>
        case SH2_PROXIMITY:
            rc = decodeProximity(value, event);
 8001db0:	6839      	ldr	r1, [r7, #0]
 8001db2:	6878      	ldr	r0, [r7, #4]
 8001db4:	f000 fcb0 	bl	8002718 <decodeProximity>
 8001db8:	60f8      	str	r0, [r7, #12]
            break;
 8001dba:	e081      	b.n	8001ec0 <sh2_decodeSensorEvent+0x2dc>
        case SH2_TEMPERATURE:
            rc = decodeTemperature(value, event);
 8001dbc:	6839      	ldr	r1, [r7, #0]
 8001dbe:	6878      	ldr	r0, [r7, #4]
 8001dc0:	f000 fcc8 	bl	8002754 <decodeTemperature>
 8001dc4:	60f8      	str	r0, [r7, #12]
            break;
 8001dc6:	e07b      	b.n	8001ec0 <sh2_decodeSensorEvent+0x2dc>
        case SH2_RESERVED:
            rc = decodeReserved(value, event);
 8001dc8:	6839      	ldr	r1, [r7, #0]
 8001dca:	6878      	ldr	r0, [r7, #4]
 8001dcc:	f000 fce0 	bl	8002790 <decodeReserved>
 8001dd0:	60f8      	str	r0, [r7, #12]
            break;
 8001dd2:	e075      	b.n	8001ec0 <sh2_decodeSensorEvent+0x2dc>
        case SH2_TAP_DETECTOR:
            rc = decodeTapDetector(value, event);
 8001dd4:	6839      	ldr	r1, [r7, #0]
 8001dd6:	6878      	ldr	r0, [r7, #4]
 8001dd8:	f000 fcf8 	bl	80027cc <decodeTapDetector>
 8001ddc:	60f8      	str	r0, [r7, #12]
            break;
 8001dde:	e06f      	b.n	8001ec0 <sh2_decodeSensorEvent+0x2dc>
        case SH2_STEP_DETECTOR:
            rc = decodeStepDetector(value, event);
 8001de0:	6839      	ldr	r1, [r7, #0]
 8001de2:	6878      	ldr	r0, [r7, #4]
 8001de4:	f000 fd02 	bl	80027ec <decodeStepDetector>
 8001de8:	60f8      	str	r0, [r7, #12]
            break;
 8001dea:	e069      	b.n	8001ec0 <sh2_decodeSensorEvent+0x2dc>
        case SH2_STEP_COUNTER:
            rc = decodeStepCounter(value, event);
 8001dec:	6839      	ldr	r1, [r7, #0]
 8001dee:	6878      	ldr	r0, [r7, #4]
 8001df0:	f000 fd0e 	bl	8002810 <decodeStepCounter>
 8001df4:	60f8      	str	r0, [r7, #12]
            break;
 8001df6:	e063      	b.n	8001ec0 <sh2_decodeSensorEvent+0x2dc>
        case SH2_SIGNIFICANT_MOTION:
            rc = decodeSignificantMotion(value, event);
 8001df8:	6839      	ldr	r1, [r7, #0]
 8001dfa:	6878      	ldr	r0, [r7, #4]
 8001dfc:	f000 fd23 	bl	8002846 <decodeSignificantMotion>
 8001e00:	60f8      	str	r0, [r7, #12]
            break;
 8001e02:	e05d      	b.n	8001ec0 <sh2_decodeSensorEvent+0x2dc>
        case SH2_STABILITY_CLASSIFIER:
            rc = decodeStabilityClassifier(value, event);
 8001e04:	6839      	ldr	r1, [r7, #0]
 8001e06:	6878      	ldr	r0, [r7, #4]
 8001e08:	f000 fd30 	bl	800286c <decodeStabilityClassifier>
 8001e0c:	60f8      	str	r0, [r7, #12]
            break;
 8001e0e:	e057      	b.n	8001ec0 <sh2_decodeSensorEvent+0x2dc>
        case SH2_SHAKE_DETECTOR:
            rc = decodeShakeDetector(value, event);
 8001e10:	6839      	ldr	r1, [r7, #0]
 8001e12:	6878      	ldr	r0, [r7, #4]
 8001e14:	f000 fd3a 	bl	800288c <decodeShakeDetector>
 8001e18:	60f8      	str	r0, [r7, #12]
            break;
 8001e1a:	e051      	b.n	8001ec0 <sh2_decodeSensorEvent+0x2dc>
        case SH2_FLIP_DETECTOR:
            rc = decodeFlipDetector(value, event);
 8001e1c:	6839      	ldr	r1, [r7, #0]
 8001e1e:	6878      	ldr	r0, [r7, #4]
 8001e20:	f000 fd47 	bl	80028b2 <decodeFlipDetector>
 8001e24:	60f8      	str	r0, [r7, #12]
            break;
 8001e26:	e04b      	b.n	8001ec0 <sh2_decodeSensorEvent+0x2dc>
        case SH2_PICKUP_DETECTOR:
            rc = decodePickupDetector(value, event);
 8001e28:	6839      	ldr	r1, [r7, #0]
 8001e2a:	6878      	ldr	r0, [r7, #4]
 8001e2c:	f000 fd54 	bl	80028d8 <decodePickupDetector>
 8001e30:	60f8      	str	r0, [r7, #12]
            break;
 8001e32:	e045      	b.n	8001ec0 <sh2_decodeSensorEvent+0x2dc>
        case SH2_STABILITY_DETECTOR:
            rc = decodeStabilityDetector(value, event);
 8001e34:	6839      	ldr	r1, [r7, #0]
 8001e36:	6878      	ldr	r0, [r7, #4]
 8001e38:	f000 fd61 	bl	80028fe <decodeStabilityDetector>
 8001e3c:	60f8      	str	r0, [r7, #12]
            break;
 8001e3e:	e03f      	b.n	8001ec0 <sh2_decodeSensorEvent+0x2dc>
        case SH2_PERSONAL_ACTIVITY_CLASSIFIER:
            rc = decodePersonalActivityClassifier(value, event);
 8001e40:	6839      	ldr	r1, [r7, #0]
 8001e42:	6878      	ldr	r0, [r7, #4]
 8001e44:	f000 fd6e 	bl	8002924 <decodePersonalActivityClassifier>
 8001e48:	60f8      	str	r0, [r7, #12]
            break;
 8001e4a:	e039      	b.n	8001ec0 <sh2_decodeSensorEvent+0x2dc>
        case SH2_SLEEP_DETECTOR:
            rc = decodeSleepDetector(value, event);
 8001e4c:	6839      	ldr	r1, [r7, #0]
 8001e4e:	6878      	ldr	r0, [r7, #4]
 8001e50:	f000 fd9b 	bl	800298a <decodeSleepDetector>
 8001e54:	60f8      	str	r0, [r7, #12]
            break;
 8001e56:	e033      	b.n	8001ec0 <sh2_decodeSensorEvent+0x2dc>
        case SH2_TILT_DETECTOR:
            rc = decodeTiltDetector(value, event);
 8001e58:	6839      	ldr	r1, [r7, #0]
 8001e5a:	6878      	ldr	r0, [r7, #4]
 8001e5c:	f000 fda5 	bl	80029aa <decodeTiltDetector>
 8001e60:	60f8      	str	r0, [r7, #12]
            break;
 8001e62:	e02d      	b.n	8001ec0 <sh2_decodeSensorEvent+0x2dc>
        case SH2_POCKET_DETECTOR:
            rc = decodePocketDetector(value, event);
 8001e64:	6839      	ldr	r1, [r7, #0]
 8001e66:	6878      	ldr	r0, [r7, #4]
 8001e68:	f000 fdb2 	bl	80029d0 <decodePocketDetector>
 8001e6c:	60f8      	str	r0, [r7, #12]
            break;
 8001e6e:	e027      	b.n	8001ec0 <sh2_decodeSensorEvent+0x2dc>
        case SH2_CIRCLE_DETECTOR:
            rc = decodeCircleDetector(value, event);
 8001e70:	6839      	ldr	r1, [r7, #0]
 8001e72:	6878      	ldr	r0, [r7, #4]
 8001e74:	f000 fdbf 	bl	80029f6 <decodeCircleDetector>
 8001e78:	60f8      	str	r0, [r7, #12]
            break;
 8001e7a:	e021      	b.n	8001ec0 <sh2_decodeSensorEvent+0x2dc>
        case SH2_HEART_RATE_MONITOR:
            rc = decodeHeartRateMonitor(value, event);
 8001e7c:	6839      	ldr	r1, [r7, #0]
 8001e7e:	6878      	ldr	r0, [r7, #4]
 8001e80:	f000 fdcc 	bl	8002a1c <decodeHeartRateMonitor>
 8001e84:	60f8      	str	r0, [r7, #12]
            break;
 8001e86:	e01b      	b.n	8001ec0 <sh2_decodeSensorEvent+0x2dc>
        case SH2_ARVR_STABILIZED_RV:
            rc = decodeArvrStabilizedRV(value, event);
 8001e88:	6839      	ldr	r1, [r7, #0]
 8001e8a:	6878      	ldr	r0, [r7, #4]
 8001e8c:	f000 fdda 	bl	8002a44 <decodeArvrStabilizedRV>
 8001e90:	60f8      	str	r0, [r7, #12]
            break;
 8001e92:	e015      	b.n	8001ec0 <sh2_decodeSensorEvent+0x2dc>
        case SH2_ARVR_STABILIZED_GRV:
            rc = decodeArvrStabilizedGRV(value, event);
 8001e94:	6839      	ldr	r1, [r7, #0]
 8001e96:	6878      	ldr	r0, [r7, #4]
 8001e98:	f000 fe38 	bl	8002b0c <decodeArvrStabilizedGRV>
 8001e9c:	60f8      	str	r0, [r7, #12]
            break;
 8001e9e:	e00f      	b.n	8001ec0 <sh2_decodeSensorEvent+0x2dc>
        case SH2_GYRO_INTEGRATED_RV:
            rc = decodeGyroIntegratedRV(value, event);
 8001ea0:	6839      	ldr	r1, [r7, #0]
 8001ea2:	6878      	ldr	r0, [r7, #4]
 8001ea4:	f000 fe82 	bl	8002bac <decodeGyroIntegratedRV>
 8001ea8:	60f8      	str	r0, [r7, #12]
            break;
 8001eaa:	e009      	b.n	8001ec0 <sh2_decodeSensorEvent+0x2dc>
        case SH2_IZRO_MOTION_REQUEST:
            rc = decodeIZroRequest(value, event);
 8001eac:	6839      	ldr	r1, [r7, #0]
 8001eae:	6878      	ldr	r0, [r7, #4]
 8001eb0:	f000 ff02 	bl	8002cb8 <decodeIZroRequest>
 8001eb4:	60f8      	str	r0, [r7, #12]
            break;
 8001eb6:	e003      	b.n	8001ec0 <sh2_decodeSensorEvent+0x2dc>
        default:
            // Unknown report id
            rc = SH2_ERR;
 8001eb8:	f04f 33ff 	mov.w	r3, #4294967295	@ 0xffffffff
 8001ebc:	60fb      	str	r3, [r7, #12]
            break;
 8001ebe:	bf00      	nop
    }

    return rc;
 8001ec0:	68fb      	ldr	r3, [r7, #12]
}
 8001ec2:	4618      	mov	r0, r3
 8001ec4:	3710      	adds	r7, #16
 8001ec6:	46bd      	mov	sp, r7
 8001ec8:	bd80      	pop	{r7, pc}
 8001eca:	bf00      	nop

08001ecc <decodeRawAccelerometer>:

// ------------------------------------------------------------------------
// Private utility functions

static int decodeRawAccelerometer(sh2_SensorValue_t *value, const sh2_SensorEvent_t *event)
{
 8001ecc:	b580      	push	{r7, lr}
 8001ece:	b082      	sub	sp, #8
 8001ed0:	af00      	add	r7, sp, #0
 8001ed2:	6078      	str	r0, [r7, #4]
 8001ed4:	6039      	str	r1, [r7, #0]
    value->un.rawAccelerometer.x = read16(&event->report[4]);
 8001ed6:	683b      	ldr	r3, [r7, #0]
 8001ed8:	330e      	adds	r3, #14
 8001eda:	4618      	mov	r0, r3
 8001edc:	f000 ff43 	bl	8002d66 <read16>
 8001ee0:	4603      	mov	r3, r0
 8001ee2:	461a      	mov	r2, r3
 8001ee4:	687b      	ldr	r3, [r7, #4]
 8001ee6:	829a      	strh	r2, [r3, #20]
    value->un.rawAccelerometer.y = read16(&event->report[6]);
 8001ee8:	683b      	ldr	r3, [r7, #0]
 8001eea:	3310      	adds	r3, #16
 8001eec:	4618      	mov	r0, r3
 8001eee:	f000 ff3a 	bl	8002d66 <read16>
 8001ef2:	4603      	mov	r3, r0
 8001ef4:	461a      	mov	r2, r3
 8001ef6:	687b      	ldr	r3, [r7, #4]
 8001ef8:	82da      	strh	r2, [r3, #22]
    value->un.rawAccelerometer.z = read16(&event->report[8]);
 8001efa:	683b      	ldr	r3, [r7, #0]
 8001efc:	3312      	adds	r3, #18
 8001efe:	4618      	mov	r0, r3
 8001f00:	f000 ff31 	bl	8002d66 <read16>
 8001f04:	4603      	mov	r3, r0
 8001f06:	461a      	mov	r2, r3
 8001f08:	687b      	ldr	r3, [r7, #4]
 8001f0a:	831a      	strh	r2, [r3, #24]
    value->un.rawAccelerometer.timestamp = read32(&event->report[12]);
 8001f0c:	683b      	ldr	r3, [r7, #0]
 8001f0e:	3316      	adds	r3, #22
 8001f10:	4618      	mov	r0, r3
 8001f12:	f000 ff3f 	bl	8002d94 <read32>
 8001f16:	4603      	mov	r3, r0
 8001f18:	461a      	mov	r2, r3
 8001f1a:	687b      	ldr	r3, [r7, #4]
 8001f1c:	61da      	str	r2, [r3, #28]

    return SH2_OK;
 8001f1e:	2300      	movs	r3, #0
}
 8001f20:	4618      	mov	r0, r3
 8001f22:	3708      	adds	r7, #8
 8001f24:	46bd      	mov	sp, r7
 8001f26:	bd80      	pop	{r7, pc}

08001f28 <decodeAccelerometer>:

static int decodeAccelerometer(sh2_SensorValue_t *value, const sh2_SensorEvent_t *event)
{
 8001f28:	b580      	push	{r7, lr}
 8001f2a:	b082      	sub	sp, #8
 8001f2c:	af00      	add	r7, sp, #0
 8001f2e:	6078      	str	r0, [r7, #4]
 8001f30:	6039      	str	r1, [r7, #0]
    value->un.accelerometer.x = read16(&event->report[4]) * SCALE_Q(8);
 8001f32:	683b      	ldr	r3, [r7, #0]
 8001f34:	330e      	adds	r3, #14
 8001f36:	4618      	mov	r0, r3
 8001f38:	f000 ff15 	bl	8002d66 <read16>
 8001f3c:	4603      	mov	r3, r0
 8001f3e:	ee07 3a90 	vmov	s15, r3
 8001f42:	eef8 7ae7 	vcvt.f32.s32	s15, s15
 8001f46:	ed9f 7a17 	vldr	s14, [pc, #92]	@ 8001fa4 <decodeAccelerometer+0x7c>
 8001f4a:	ee67 7a87 	vmul.f32	s15, s15, s14
 8001f4e:	687b      	ldr	r3, [r7, #4]
 8001f50:	edc3 7a05 	vstr	s15, [r3, #20]
    value->un.accelerometer.y = read16(&event->report[6]) * SCALE_Q(8);
 8001f54:	683b      	ldr	r3, [r7, #0]
 8001f56:	3310      	adds	r3, #16
 8001f58:	4618      	mov	r0, r3
 8001f5a:	f000 ff04 	bl	8002d66 <read16>
 8001f5e:	4603      	mov	r3, r0
 8001f60:	ee07 3a90 	vmov	s15, r3
 8001f64:	eef8 7ae7 	vcvt.f32.s32	s15, s15
 8001f68:	ed9f 7a0e 	vldr	s14, [pc, #56]	@ 8001fa4 <decodeAccelerometer+0x7c>
 8001f6c:	ee67 7a87 	vmul.f32	s15, s15, s14
 8001f70:	687b      	ldr	r3, [r7, #4]
 8001f72:	edc3 7a06 	vstr	s15, [r3, #24]
    value->un.accelerometer.z = read16(&event->report[8]) * SCALE_Q(8);
 8001f76:	683b      	ldr	r3, [r7, #0]
 8001f78:	3312      	adds	r3, #18
 8001f7a:	4618      	mov	r0, r3
 8001f7c:	f000 fef3 	bl	8002d66 <read16>
 8001f80:	4603      	mov	r3, r0
 8001f82:	ee07 3a90 	vmov	s15, r3
 8001f86:	eef8 7ae7 	vcvt.f32.s32	s15, s15
 8001f8a:	ed9f 7a06 	vldr	s14, [pc, #24]	@ 8001fa4 <decodeAccelerometer+0x7c>
 8001f8e:	ee67 7a87 	vmul.f32	s15, s15, s14
 8001f92:	687b      	ldr	r3, [r7, #4]
 8001f94:	edc3 7a07 	vstr	s15, [r3, #28]

    return SH2_OK;
 8001f98:	2300      	movs	r3, #0
}
 8001f9a:	4618      	mov	r0, r3
 8001f9c:	3708      	adds	r7, #8
 8001f9e:	46bd      	mov	sp, r7
 8001fa0:	bd80      	pop	{r7, pc}
 8001fa2:	bf00      	nop
 8001fa4:	3b800000 	.word	0x3b800000

08001fa8 <decodeLinearAcceleration>:

static int decodeLinearAcceleration(sh2_SensorValue_t *value, const sh2_SensorEvent_t *event)
{
 8001fa8:	b580      	push	{r7, lr}
 8001faa:	b082      	sub	sp, #8
 8001fac:	af00      	add	r7, sp, #0
 8001fae:	6078      	str	r0, [r7, #4]
 8001fb0:	6039      	str	r1, [r7, #0]
    value->un.linearAcceleration.x = read16(&event->report[4]) * SCALE_Q(8);
 8001fb2:	683b      	ldr	r3, [r7, #0]
 8001fb4:	330e      	adds	r3, #14
 8001fb6:	4618      	mov	r0, r3
 8001fb8:	f000 fed5 	bl	8002d66 <read16>
 8001fbc:	4603      	mov	r3, r0
 8001fbe:	ee07 3a90 	vmov	s15, r3
 8001fc2:	eef8 7ae7 	vcvt.f32.s32	s15, s15
 8001fc6:	ed9f 7a17 	vldr	s14, [pc, #92]	@ 8002024 <decodeLinearAcceleration+0x7c>
 8001fca:	ee67 7a87 	vmul.f32	s15, s15, s14
 8001fce:	687b      	ldr	r3, [r7, #4]
 8001fd0:	edc3 7a05 	vstr	s15, [r3, #20]
    value->un.linearAcceleration.y = read16(&event->report[6]) * SCALE_Q(8);
 8001fd4:	683b      	ldr	r3, [r7, #0]
 8001fd6:	3310      	adds	r3, #16
 8001fd8:	4618      	mov	r0, r3
 8001fda:	f000 fec4 	bl	8002d66 <read16>
 8001fde:	4603      	mov	r3, r0
 8001fe0:	ee07 3a90 	vmov	s15, r3
 8001fe4:	eef8 7ae7 	vcvt.f32.s32	s15, s15
 8001fe8:	ed9f 7a0e 	vldr	s14, [pc, #56]	@ 8002024 <decodeLinearAcceleration+0x7c>
 8001fec:	ee67 7a87 	vmul.f32	s15, s15, s14
 8001ff0:	687b      	ldr	r3, [r7, #4]
 8001ff2:	edc3 7a06 	vstr	s15, [r3, #24]
    value->un.linearAcceleration.z = read16(&event->report[8]) * SCALE_Q(8);
 8001ff6:	683b      	ldr	r3, [r7, #0]
 8001ff8:	3312      	adds	r3, #18
 8001ffa:	4618      	mov	r0, r3
 8001ffc:	f000 feb3 	bl	8002d66 <read16>
 8002000:	4603      	mov	r3, r0
 8002002:	ee07 3a90 	vmov	s15, r3
 8002006:	eef8 7ae7 	vcvt.f32.s32	s15, s15
 800200a:	ed9f 7a06 	vldr	s14, [pc, #24]	@ 8002024 <decodeLinearAcceleration+0x7c>
 800200e:	ee67 7a87 	vmul.f32	s15, s15, s14
 8002012:	687b      	ldr	r3, [r7, #4]
 8002014:	edc3 7a07 	vstr	s15, [r3, #28]

    return SH2_OK;
 8002018:	2300      	movs	r3, #0
}
 800201a:	4618      	mov	r0, r3
 800201c:	3708      	adds	r7, #8
 800201e:	46bd      	mov	sp, r7
 8002020:	bd80      	pop	{r7, pc}
 8002022:	bf00      	nop
 8002024:	3b800000 	.word	0x3b800000

08002028 <decodeGravity>:

static int decodeGravity(sh2_SensorValue_t *value, const sh2_SensorEvent_t *event)
{
 8002028:	b580      	push	{r7, lr}
 800202a:	b082      	sub	sp, #8
 800202c:	af00      	add	r7, sp, #0
 800202e:	6078      	str	r0, [r7, #4]
 8002030:	6039      	str	r1, [r7, #0]
    value->un.gravity.x = read16(&event->report[4]) * SCALE_Q(8);
 8002032:	683b      	ldr	r3, [r7, #0]
 8002034:	330e      	adds	r3, #14
 8002036:	4618      	mov	r0, r3
 8002038:	f000 fe95 	bl	8002d66 <read16>
 800203c:	4603      	mov	r3, r0
 800203e:	ee07 3a90 	vmov	s15, r3
 8002042:	eef8 7ae7 	vcvt.f32.s32	s15, s15
 8002046:	ed9f 7a17 	vldr	s14, [pc, #92]	@ 80020a4 <decodeGravity+0x7c>
 800204a:	ee67 7a87 	vmul.f32	s15, s15, s14
 800204e:	687b      	ldr	r3, [r7, #4]
 8002050:	edc3 7a05 	vstr	s15, [r3, #20]
    value->un.gravity.y = read16(&event->report[6]) * SCALE_Q(8);
 8002054:	683b      	ldr	r3, [r7, #0]
 8002056:	3310      	adds	r3, #16
 8002058:	4618      	mov	r0, r3
 800205a:	f000 fe84 	bl	8002d66 <read16>
 800205e:	4603      	mov	r3, r0
 8002060:	ee07 3a90 	vmov	s15, r3
 8002064:	eef8 7ae7 	vcvt.f32.s32	s15, s15
 8002068:	ed9f 7a0e 	vldr	s14, [pc, #56]	@ 80020a4 <decodeGravity+0x7c>
 800206c:	ee67 7a87 	vmul.f32	s15, s15, s14
 8002070:	687b      	ldr	r3, [r7, #4]
 8002072:	edc3 7a06 	vstr	s15, [r3, #24]
    value->un.gravity.z = read16(&event->report[8]) * SCALE_Q(8);
 8002076:	683b      	ldr	r3, [r7, #0]
 8002078:	3312      	adds	r3, #18
 800207a:	4618      	mov	r0, r3
 800207c:	f000 fe73 	bl	8002d66 <read16>
 8002080:	4603      	mov	r3, r0
 8002082:	ee07 3a90 	vmov	s15, r3
 8002086:	eef8 7ae7 	vcvt.f32.s32	s15, s15
 800208a:	ed9f 7a06 	vldr	s14, [pc, #24]	@ 80020a4 <decodeGravity+0x7c>
 800208e:	ee67 7a87 	vmul.f32	s15, s15, s14
 8002092:	687b      	ldr	r3, [r7, #4]
 8002094:	edc3 7a07 	vstr	s15, [r3, #28]

    return SH2_OK;
 8002098:	2300      	movs	r3, #0
}
 800209a:	4618      	mov	r0, r3
 800209c:	3708      	adds	r7, #8
 800209e:	46bd      	mov	sp, r7
 80020a0:	bd80      	pop	{r7, pc}
 80020a2:	bf00      	nop
 80020a4:	3b800000 	.word	0x3b800000

080020a8 <decodeRawGyroscope>:

static int decodeRawGyroscope(sh2_SensorValue_t *value, const sh2_SensorEvent_t *event)
{
 80020a8:	b580      	push	{r7, lr}
 80020aa:	b082      	sub	sp, #8
 80020ac:	af00      	add	r7, sp, #0
 80020ae:	6078      	str	r0, [r7, #4]
 80020b0:	6039      	str	r1, [r7, #0]
    value->un.rawGyroscope.x = read16(&event->report[4]);
 80020b2:	683b      	ldr	r3, [r7, #0]
 80020b4:	330e      	adds	r3, #14
 80020b6:	4618      	mov	r0, r3
 80020b8:	f000 fe55 	bl	8002d66 <read16>
 80020bc:	4603      	mov	r3, r0
 80020be:	461a      	mov	r2, r3
 80020c0:	687b      	ldr	r3, [r7, #4]
 80020c2:	829a      	strh	r2, [r3, #20]
    value->un.rawGyroscope.y = read16(&event->report[6]);
 80020c4:	683b      	ldr	r3, [r7, #0]
 80020c6:	3310      	adds	r3, #16
 80020c8:	4618      	mov	r0, r3
 80020ca:	f000 fe4c 	bl	8002d66 <read16>
 80020ce:	4603      	mov	r3, r0
 80020d0:	461a      	mov	r2, r3
 80020d2:	687b      	ldr	r3, [r7, #4]
 80020d4:	82da      	strh	r2, [r3, #22]
    value->un.rawGyroscope.z = read16(&event->report[8]);
 80020d6:	683b      	ldr	r3, [r7, #0]
 80020d8:	3312      	adds	r3, #18
 80020da:	4618      	mov	r0, r3
 80020dc:	f000 fe43 	bl	8002d66 <read16>
 80020e0:	4603      	mov	r3, r0
 80020e2:	461a      	mov	r2, r3
 80020e4:	687b      	ldr	r3, [r7, #4]
 80020e6:	831a      	strh	r2, [r3, #24]
    value->un.rawGyroscope.temperature = read16(&event->report[10]);
 80020e8:	683b      	ldr	r3, [r7, #0]
 80020ea:	3314      	adds	r3, #20
 80020ec:	4618      	mov	r0, r3
 80020ee:	f000 fe3a 	bl	8002d66 <read16>
 80020f2:	4603      	mov	r3, r0
 80020f4:	461a      	mov	r2, r3
 80020f6:	687b      	ldr	r3, [r7, #4]
 80020f8:	835a      	strh	r2, [r3, #26]
    value->un.rawGyroscope.timestamp = read32(&event->report[12]);
 80020fa:	683b      	ldr	r3, [r7, #0]
 80020fc:	3316      	adds	r3, #22
 80020fe:	4618      	mov	r0, r3
 8002100:	f000 fe48 	bl	8002d94 <read32>
 8002104:	4603      	mov	r3, r0
 8002106:	461a      	mov	r2, r3
 8002108:	687b      	ldr	r3, [r7, #4]
 800210a:	61da      	str	r2, [r3, #28]

    return SH2_OK;
 800210c:	2300      	movs	r3, #0
}
 800210e:	4618      	mov	r0, r3
 8002110:	3708      	adds	r7, #8
 8002112:	46bd      	mov	sp, r7
 8002114:	bd80      	pop	{r7, pc}
	...

08002118 <decodeGyroscopeCalibrated>:

static int decodeGyroscopeCalibrated(sh2_SensorValue_t *value, const sh2_SensorEvent_t *event)
{
 8002118:	b580      	push	{r7, lr}
 800211a:	b082      	sub	sp, #8
 800211c:	af00      	add	r7, sp, #0
 800211e:	6078      	str	r0, [r7, #4]
 8002120:	6039      	str	r1, [r7, #0]
    value->un.gyroscope.x = read16(&event->report[4]) * SCALE_Q(9);
 8002122:	683b      	ldr	r3, [r7, #0]
 8002124:	330e      	adds	r3, #14
 8002126:	4618      	mov	r0, r3
 8002128:	f000 fe1d 	bl	8002d66 <read16>
 800212c:	4603      	mov	r3, r0
 800212e:	ee07 3a90 	vmov	s15, r3
 8002132:	eef8 7ae7 	vcvt.f32.s32	s15, s15
 8002136:	ed9f 7a17 	vldr	s14, [pc, #92]	@ 8002194 <decodeGyroscopeCalibrated+0x7c>
 800213a:	ee67 7a87 	vmul.f32	s15, s15, s14
 800213e:	687b      	ldr	r3, [r7, #4]
 8002140:	edc3 7a05 	vstr	s15, [r3, #20]
    value->un.gyroscope.y = read16(&event->report[6]) * SCALE_Q(9);
 8002144:	683b      	ldr	r3, [r7, #0]
 8002146:	3310      	adds	r3, #16
 8002148:	4618      	mov	r0, r3
 800214a:	f000 fe0c 	bl	8002d66 <read16>
 800214e:	4603      	mov	r3, r0
 8002150:	ee07 3a90 	vmov	s15, r3
 8002154:	eef8 7ae7 	vcvt.f32.s32	s15, s15
 8002158:	ed9f 7a0e 	vldr	s14, [pc, #56]	@ 8002194 <decodeGyroscopeCalibrated+0x7c>
 800215c:	ee67 7a87 	vmul.f32	s15, s15, s14
 8002160:	687b      	ldr	r3, [r7, #4]
 8002162:	edc3 7a06 	vstr	s15, [r3, #24]
    value->un.gyroscope.z = read16(&event->report[8]) * SCALE_Q(9);
 8002166:	683b      	ldr	r3, [r7, #0]
 8002168:	3312      	adds	r3, #18
 800216a:	4618      	mov	r0, r3
 800216c:	f000 fdfb 	bl	8002d66 <read16>
 8002170:	4603      	mov	r3, r0
 8002172:	ee07 3a90 	vmov	s15, r3
 8002176:	eef8 7ae7 	vcvt.f32.s32	s15, s15
 800217a:	ed9f 7a06 	vldr	s14, [pc, #24]	@ 8002194 <decodeGyroscopeCalibrated+0x7c>
 800217e:	ee67 7a87 	vmul.f32	s15, s15, s14
 8002182:	687b      	ldr	r3, [r7, #4]
 8002184:	edc3 7a07 	vstr	s15, [r3, #28]

    return SH2_OK;
 8002188:	2300      	movs	r3, #0
}
 800218a:	4618      	mov	r0, r3
 800218c:	3708      	adds	r7, #8
 800218e:	46bd      	mov	sp, r7
 8002190:	bd80      	pop	{r7, pc}
 8002192:	bf00      	nop
 8002194:	3b000000 	.word	0x3b000000

08002198 <decodeGyroscopeUncal>:

static int decodeGyroscopeUncal(sh2_SensorValue_t *value, const sh2_SensorEvent_t *event)
{
 8002198:	b580      	push	{r7, lr}
 800219a:	b082      	sub	sp, #8
 800219c:	af00      	add	r7, sp, #0
 800219e:	6078      	str	r0, [r7, #4]
 80021a0:	6039      	str	r1, [r7, #0]
    value->un.gyroscopeUncal.x = read16(&event->report[4]) * SCALE_Q(9);
 80021a2:	683b      	ldr	r3, [r7, #0]
 80021a4:	330e      	adds	r3, #14
 80021a6:	4618      	mov	r0, r3
 80021a8:	f000 fddd 	bl	8002d66 <read16>
 80021ac:	4603      	mov	r3, r0
 80021ae:	ee07 3a90 	vmov	s15, r3
 80021b2:	eef8 7ae7 	vcvt.f32.s32	s15, s15
 80021b6:	ed9f 7a30 	vldr	s14, [pc, #192]	@ 8002278 <decodeGyroscopeUncal+0xe0>
 80021ba:	ee67 7a87 	vmul.f32	s15, s15, s14
 80021be:	687b      	ldr	r3, [r7, #4]
 80021c0:	edc3 7a05 	vstr	s15, [r3, #20]
    value->un.gyroscopeUncal.y = read16(&event->report[6]) * SCALE_Q(9);
 80021c4:	683b      	ldr	r3, [r7, #0]
 80021c6:	3310      	adds	r3, #16
 80021c8:	4618      	mov	r0, r3
 80021ca:	f000 fdcc 	bl	8002d66 <read16>
 80021ce:	4603      	mov	r3, r0
 80021d0:	ee07 3a90 	vmov	s15, r3
 80021d4:	eef8 7ae7 	vcvt.f32.s32	s15, s15
 80021d8:	ed9f 7a27 	vldr	s14, [pc, #156]	@ 8002278 <decodeGyroscopeUncal+0xe0>
 80021dc:	ee67 7a87 	vmul.f32	s15, s15, s14
 80021e0:	687b      	ldr	r3, [r7, #4]
 80021e2:	edc3 7a06 	vstr	s15, [r3, #24]
    value->un.gyroscopeUncal.z = read16(&event->report[8]) * SCALE_Q(9);
 80021e6:	683b      	ldr	r3, [r7, #0]
 80021e8:	3312      	adds	r3, #18
 80021ea:	4618      	mov	r0, r3
 80021ec:	f000 fdbb 	bl	8002d66 <read16>
 80021f0:	4603      	mov	r3, r0
 80021f2:	ee07 3a90 	vmov	s15, r3
 80021f6:	eef8 7ae7 	vcvt.f32.s32	s15, s15
 80021fa:	ed9f 7a1f 	vldr	s14, [pc, #124]	@ 8002278 <decodeGyroscopeUncal+0xe0>
 80021fe:	ee67 7a87 	vmul.f32	s15, s15, s14
 8002202:	687b      	ldr	r3, [r7, #4]
 8002204:	edc3 7a07 	vstr	s15, [r3, #28]

    value->un.gyroscopeUncal.biasX = read16(&event->report[10]) * SCALE_Q(9);
 8002208:	683b      	ldr	r3, [r7, #0]
 800220a:	3314      	adds	r3, #20
 800220c:	4618      	mov	r0, r3
 800220e:	f000 fdaa 	bl	8002d66 <read16>
 8002212:	4603      	mov	r3, r0
 8002214:	ee07 3a90 	vmov	s15, r3
 8002218:	eef8 7ae7 	vcvt.f32.s32	s15, s15
 800221c:	ed9f 7a16 	vldr	s14, [pc, #88]	@ 8002278 <decodeGyroscopeUncal+0xe0>
 8002220:	ee67 7a87 	vmul.f32	s15, s15, s14
 8002224:	687b      	ldr	r3, [r7, #4]
 8002226:	edc3 7a08 	vstr	s15, [r3, #32]
    value->un.gyroscopeUncal.biasY = read16(&event->report[12]) * SCALE_Q(9);
 800222a:	683b      	ldr	r3, [r7, #0]
 800222c:	3316      	adds	r3, #22
 800222e:	4618      	mov	r0, r3
 8002230:	f000 fd99 	bl	8002d66 <read16>
 8002234:	4603      	mov	r3, r0
 8002236:	ee07 3a90 	vmov	s15, r3
 800223a:	eef8 7ae7 	vcvt.f32.s32	s15, s15
 800223e:	ed9f 7a0e 	vldr	s14, [pc, #56]	@ 8002278 <decodeGyroscopeUncal+0xe0>
 8002242:	ee67 7a87 	vmul.f32	s15, s15, s14
 8002246:	687b      	ldr	r3, [r7, #4]
 8002248:	edc3 7a09 	vstr	s15, [r3, #36]	@ 0x24
    value->un.gyroscopeUncal.biasZ = read16(&event->report[14]) * SCALE_Q(9);
 800224c:	683b      	ldr	r3, [r7, #0]
 800224e:	3318      	adds	r3, #24
 8002250:	4618      	mov	r0, r3
 8002252:	f000 fd88 	bl	8002d66 <read16>
 8002256:	4603      	mov	r3, r0
 8002258:	ee07 3a90 	vmov	s15, r3
 800225c:	eef8 7ae7 	vcvt.f32.s32	s15, s15
 8002260:	ed9f 7a05 	vldr	s14, [pc, #20]	@ 8002278 <decodeGyroscopeUncal+0xe0>
 8002264:	ee67 7a87 	vmul.f32	s15, s15, s14
 8002268:	687b      	ldr	r3, [r7, #4]
 800226a:	edc3 7a0a 	vstr	s15, [r3, #40]	@ 0x28

    return SH2_OK;
 800226e:	2300      	movs	r3, #0
}
 8002270:	4618      	mov	r0, r3
 8002272:	3708      	adds	r7, #8
 8002274:	46bd      	mov	sp, r7
 8002276:	bd80      	pop	{r7, pc}
 8002278:	3b000000 	.word	0x3b000000

0800227c <decodeRawMagnetometer>:

static int decodeRawMagnetometer(sh2_SensorValue_t *value, const sh2_SensorEvent_t *event)
{
 800227c:	b580      	push	{r7, lr}
 800227e:	b082      	sub	sp, #8
 8002280:	af00      	add	r7, sp, #0
 8002282:	6078      	str	r0, [r7, #4]
 8002284:	6039      	str	r1, [r7, #0]
    value->un.rawMagnetometer.x = read16(&event->report[4]);
 8002286:	683b      	ldr	r3, [r7, #0]
 8002288:	330e      	adds	r3, #14
 800228a:	4618      	mov	r0, r3
 800228c:	f000 fd6b 	bl	8002d66 <read16>
 8002290:	4603      	mov	r3, r0
 8002292:	461a      	mov	r2, r3
 8002294:	687b      	ldr	r3, [r7, #4]
 8002296:	829a      	strh	r2, [r3, #20]
    value->un.rawMagnetometer.y = read16(&event->report[6]);
 8002298:	683b      	ldr	r3, [r7, #0]
 800229a:	3310      	adds	r3, #16
 800229c:	4618      	mov	r0, r3
 800229e:	f000 fd62 	bl	8002d66 <read16>
 80022a2:	4603      	mov	r3, r0
 80022a4:	461a      	mov	r2, r3
 80022a6:	687b      	ldr	r3, [r7, #4]
 80022a8:	82da      	strh	r2, [r3, #22]
    value->un.rawMagnetometer.z = read16(&event->report[8]);
 80022aa:	683b      	ldr	r3, [r7, #0]
 80022ac:	3312      	adds	r3, #18
 80022ae:	4618      	mov	r0, r3
 80022b0:	f000 fd59 	bl	8002d66 <read16>
 80022b4:	4603      	mov	r3, r0
 80022b6:	461a      	mov	r2, r3
 80022b8:	687b      	ldr	r3, [r7, #4]
 80022ba:	831a      	strh	r2, [r3, #24]
    value->un.rawMagnetometer.timestamp = read32(&event->report[12]);
 80022bc:	683b      	ldr	r3, [r7, #0]
 80022be:	3316      	adds	r3, #22
 80022c0:	4618      	mov	r0, r3
 80022c2:	f000 fd67 	bl	8002d94 <read32>
 80022c6:	4603      	mov	r3, r0
 80022c8:	461a      	mov	r2, r3
 80022ca:	687b      	ldr	r3, [r7, #4]
 80022cc:	61da      	str	r2, [r3, #28]

    return SH2_OK;
 80022ce:	2300      	movs	r3, #0
}
 80022d0:	4618      	mov	r0, r3
 80022d2:	3708      	adds	r7, #8
 80022d4:	46bd      	mov	sp, r7
 80022d6:	bd80      	pop	{r7, pc}

080022d8 <decodeMagneticFieldCalibrated>:

static int decodeMagneticFieldCalibrated(sh2_SensorValue_t *value, const sh2_SensorEvent_t *event)
{
 80022d8:	b580      	push	{r7, lr}
 80022da:	b082      	sub	sp, #8
 80022dc:	af00      	add	r7, sp, #0
 80022de:	6078      	str	r0, [r7, #4]
 80022e0:	6039      	str	r1, [r7, #0]
    value->un.magneticField.x = read16(&event->report[4]) * SCALE_Q(4);
 80022e2:	683b      	ldr	r3, [r7, #0]
 80022e4:	330e      	adds	r3, #14
 80022e6:	4618      	mov	r0, r3
 80022e8:	f000 fd3d 	bl	8002d66 <read16>
 80022ec:	4603      	mov	r3, r0
 80022ee:	ee07 3a90 	vmov	s15, r3
 80022f2:	eef8 7ae7 	vcvt.f32.s32	s15, s15
 80022f6:	ed9f 7a17 	vldr	s14, [pc, #92]	@ 8002354 <decodeMagneticFieldCalibrated+0x7c>
 80022fa:	ee67 7a87 	vmul.f32	s15, s15, s14
 80022fe:	687b      	ldr	r3, [r7, #4]
 8002300:	edc3 7a05 	vstr	s15, [r3, #20]
    value->un.magneticField.y = read16(&event->report[6]) * SCALE_Q(4);
 8002304:	683b      	ldr	r3, [r7, #0]
 8002306:	3310      	adds	r3, #16
 8002308:	4618      	mov	r0, r3
 800230a:	f000 fd2c 	bl	8002d66 <read16>
 800230e:	4603      	mov	r3, r0
 8002310:	ee07 3a90 	vmov	s15, r3
 8002314:	eef8 7ae7 	vcvt.f32.s32	s15, s15
 8002318:	ed9f 7a0e 	vldr	s14, [pc, #56]	@ 8002354 <decodeMagneticFieldCalibrated+0x7c>
 800231c:	ee67 7a87 	vmul.f32	s15, s15, s14
 8002320:	687b      	ldr	r3, [r7, #4]
 8002322:	edc3 7a06 	vstr	s15, [r3, #24]
    value->un.magneticField.z = read16(&event->report[8]) * SCALE_Q(4);
 8002326:	683b      	ldr	r3, [r7, #0]
 8002328:	3312      	adds	r3, #18
 800232a:	4618      	mov	r0, r3
 800232c:	f000 fd1b 	bl	8002d66 <read16>
 8002330:	4603      	mov	r3, r0
 8002332:	ee07 3a90 	vmov	s15, r3
 8002336:	eef8 7ae7 	vcvt.f32.s32	s15, s15
 800233a:	ed9f 7a06 	vldr	s14, [pc, #24]	@ 8002354 <decodeMagneticFieldCalibrated+0x7c>
 800233e:	ee67 7a87 	vmul.f32	s15, s15, s14
 8002342:	687b      	ldr	r3, [r7, #4]
 8002344:	edc3 7a07 	vstr	s15, [r3, #28]

    return SH2_OK;
 8002348:	2300      	movs	r3, #0
}
 800234a:	4618      	mov	r0, r3
 800234c:	3708      	adds	r7, #8
 800234e:	46bd      	mov	sp, r7
 8002350:	bd80      	pop	{r7, pc}
 8002352:	bf00      	nop
 8002354:	3d800000 	.word	0x3d800000

08002358 <decodeMagneticFieldUncal>:

static int decodeMagneticFieldUncal(sh2_SensorValue_t *value, const sh2_SensorEvent_t *event)
{
 8002358:	b580      	push	{r7, lr}
 800235a:	b082      	sub	sp, #8
 800235c:	af00      	add	r7, sp, #0
 800235e:	6078      	str	r0, [r7, #4]
 8002360:	6039      	str	r1, [r7, #0]
    value->un.magneticFieldUncal.x = read16(&event->report[4]) * SCALE_Q(4);
 8002362:	683b      	ldr	r3, [r7, #0]
 8002364:	330e      	adds	r3, #14
 8002366:	4618      	mov	r0, r3
 8002368:	f000 fcfd 	bl	8002d66 <read16>
 800236c:	4603      	mov	r3, r0
 800236e:	ee07 3a90 	vmov	s15, r3
 8002372:	eef8 7ae7 	vcvt.f32.s32	s15, s15
 8002376:	ed9f 7a30 	vldr	s14, [pc, #192]	@ 8002438 <decodeMagneticFieldUncal+0xe0>
 800237a:	ee67 7a87 	vmul.f32	s15, s15, s14
 800237e:	687b      	ldr	r3, [r7, #4]
 8002380:	edc3 7a05 	vstr	s15, [r3, #20]
    value->un.magneticFieldUncal.y = read16(&event->report[6]) * SCALE_Q(4);
 8002384:	683b      	ldr	r3, [r7, #0]
 8002386:	3310      	adds	r3, #16
 8002388:	4618      	mov	r0, r3
 800238a:	f000 fcec 	bl	8002d66 <read16>
 800238e:	4603      	mov	r3, r0
 8002390:	ee07 3a90 	vmov	s15, r3
 8002394:	eef8 7ae7 	vcvt.f32.s32	s15, s15
 8002398:	ed9f 7a27 	vldr	s14, [pc, #156]	@ 8002438 <decodeMagneticFieldUncal+0xe0>
 800239c:	ee67 7a87 	vmul.f32	s15, s15, s14
 80023a0:	687b      	ldr	r3, [r7, #4]
 80023a2:	edc3 7a06 	vstr	s15, [r3, #24]
    value->un.magneticFieldUncal.z = read16(&event->report[8]) * SCALE_Q(4);
 80023a6:	683b      	ldr	r3, [r7, #0]
 80023a8:	3312      	adds	r3, #18
 80023aa:	4618      	mov	r0, r3
 80023ac:	f000 fcdb 	bl	8002d66 <read16>
 80023b0:	4603      	mov	r3, r0
 80023b2:	ee07 3a90 	vmov	s15, r3
 80023b6:	eef8 7ae7 	vcvt.f32.s32	s15, s15
 80023ba:	ed9f 7a1f 	vldr	s14, [pc, #124]	@ 8002438 <decodeMagneticFieldUncal+0xe0>
 80023be:	ee67 7a87 	vmul.f32	s15, s15, s14
 80023c2:	687b      	ldr	r3, [r7, #4]
 80023c4:	edc3 7a07 	vstr	s15, [r3, #28]

    value->un.magneticFieldUncal.biasX = read16(&event->report[10]) * SCALE_Q(4);
 80023c8:	683b      	ldr	r3, [r7, #0]
 80023ca:	3314      	adds	r3, #20
 80023cc:	4618      	mov	r0, r3
 80023ce:	f000 fcca 	bl	8002d66 <read16>
 80023d2:	4603      	mov	r3, r0
 80023d4:	ee07 3a90 	vmov	s15, r3
 80023d8:	eef8 7ae7 	vcvt.f32.s32	s15, s15
 80023dc:	ed9f 7a16 	vldr	s14, [pc, #88]	@ 8002438 <decodeMagneticFieldUncal+0xe0>
 80023e0:	ee67 7a87 	vmul.f32	s15, s15, s14
 80023e4:	687b      	ldr	r3, [r7, #4]
 80023e6:	edc3 7a08 	vstr	s15, [r3, #32]
    value->un.magneticFieldUncal.biasY = read16(&event->report[12]) * SCALE_Q(4);
 80023ea:	683b      	ldr	r3, [r7, #0]
 80023ec:	3316      	adds	r3, #22
 80023ee:	4618      	mov	r0, r3
 80023f0:	f000 fcb9 	bl	8002d66 <read16>
 80023f4:	4603      	mov	r3, r0
 80023f6:	ee07 3a90 	vmov	s15, r3
 80023fa:	eef8 7ae7 	vcvt.f32.s32	s15, s15
 80023fe:	ed9f 7a0e 	vldr	s14, [pc, #56]	@ 8002438 <decodeMagneticFieldUncal+0xe0>
 8002402:	ee67 7a87 	vmul.f32	s15, s15, s14
 8002406:	687b      	ldr	r3, [r7, #4]
 8002408:	edc3 7a09 	vstr	s15, [r3, #36]	@ 0x24
    value->un.magneticFieldUncal.biasZ = read16(&event->report[14]) * SCALE_Q(4);
 800240c:	683b      	ldr	r3, [r7, #0]
 800240e:	3318      	adds	r3, #24
 8002410:	4618      	mov	r0, r3
 8002412:	f000 fca8 	bl	8002d66 <read16>
 8002416:	4603      	mov	r3, r0
 8002418:	ee07 3a90 	vmov	s15, r3
 800241c:	eef8 7ae7 	vcvt.f32.s32	s15, s15
 8002420:	ed9f 7a05 	vldr	s14, [pc, #20]	@ 8002438 <decodeMagneticFieldUncal+0xe0>
 8002424:	ee67 7a87 	vmul.f32	s15, s15, s14
 8002428:	687b      	ldr	r3, [r7, #4]
 800242a:	edc3 7a0a 	vstr	s15, [r3, #40]	@ 0x28

    return SH2_OK;
 800242e:	2300      	movs	r3, #0
}
 8002430:	4618      	mov	r0, r3
 8002432:	3708      	adds	r7, #8
 8002434:	46bd      	mov	sp, r7
 8002436:	bd80      	pop	{r7, pc}
 8002438:	3d800000 	.word	0x3d800000

0800243c <decodeRotationVector>:

static int decodeRotationVector(sh2_SensorValue_t *value, const sh2_SensorEvent_t *event)
{
 800243c:	b580      	push	{r7, lr}
 800243e:	b082      	sub	sp, #8
 8002440:	af00      	add	r7, sp, #0
 8002442:	6078      	str	r0, [r7, #4]
 8002444:	6039      	str	r1, [r7, #0]
    value->un.rotationVector.i = read16(&event->report[4]) * SCALE_Q(14);
 8002446:	683b      	ldr	r3, [r7, #0]
 8002448:	330e      	adds	r3, #14
 800244a:	4618      	mov	r0, r3
 800244c:	f000 fc8b 	bl	8002d66 <read16>
 8002450:	4603      	mov	r3, r0
 8002452:	ee07 3a90 	vmov	s15, r3
 8002456:	eef8 7ae7 	vcvt.f32.s32	s15, s15
 800245a:	ed9f 7a28 	vldr	s14, [pc, #160]	@ 80024fc <decodeRotationVector+0xc0>
 800245e:	ee67 7a87 	vmul.f32	s15, s15, s14
 8002462:	687b      	ldr	r3, [r7, #4]
 8002464:	edc3 7a05 	vstr	s15, [r3, #20]
    value->un.rotationVector.j = read16(&event->report[6]) * SCALE_Q(14);
 8002468:	683b      	ldr	r3, [r7, #0]
 800246a:	3310      	adds	r3, #16
 800246c:	4618      	mov	r0, r3
 800246e:	f000 fc7a 	bl	8002d66 <read16>
 8002472:	4603      	mov	r3, r0
 8002474:	ee07 3a90 	vmov	s15, r3
 8002478:	eef8 7ae7 	vcvt.f32.s32	s15, s15
 800247c:	ed9f 7a1f 	vldr	s14, [pc, #124]	@ 80024fc <decodeRotationVector+0xc0>
 8002480:	ee67 7a87 	vmul.f32	s15, s15, s14
 8002484:	687b      	ldr	r3, [r7, #4]
 8002486:	edc3 7a06 	vstr	s15, [r3, #24]
    value->un.rotationVector.k = read16(&event->report[8]) * SCALE_Q(14);
 800248a:	683b      	ldr	r3, [r7, #0]
 800248c:	3312      	adds	r3, #18
 800248e:	4618      	mov	r0, r3
 8002490:	f000 fc69 	bl	8002d66 <read16>
 8002494:	4603      	mov	r3, r0
 8002496:	ee07 3a90 	vmov	s15, r3
 800249a:	eef8 7ae7 	vcvt.f32.s32	s15, s15
 800249e:	ed9f 7a17 	vldr	s14, [pc, #92]	@ 80024fc <decodeRotationVector+0xc0>
 80024a2:	ee67 7a87 	vmul.f32	s15, s15, s14
 80024a6:	687b      	ldr	r3, [r7, #4]
 80024a8:	edc3 7a07 	vstr	s15, [r3, #28]
    value->un.rotationVector.real = read16(&event->report[10]) * SCALE_Q(14);
 80024ac:	683b      	ldr	r3, [r7, #0]
 80024ae:	3314      	adds	r3, #20
 80024b0:	4618      	mov	r0, r3
 80024b2:	f000 fc58 	bl	8002d66 <read16>
 80024b6:	4603      	mov	r3, r0
 80024b8:	ee07 3a90 	vmov	s15, r3
 80024bc:	eef8 7ae7 	vcvt.f32.s32	s15, s15
 80024c0:	ed9f 7a0e 	vldr	s14, [pc, #56]	@ 80024fc <decodeRotationVector+0xc0>
 80024c4:	ee67 7a87 	vmul.f32	s15, s15, s14
 80024c8:	687b      	ldr	r3, [r7, #4]
 80024ca:	edc3 7a08 	vstr	s15, [r3, #32]
    value->un.rotationVector.accuracy = read16(&event->report[12]) * SCALE_Q(12);
 80024ce:	683b      	ldr	r3, [r7, #0]
 80024d0:	3316      	adds	r3, #22
 80024d2:	4618      	mov	r0, r3
 80024d4:	f000 fc47 	bl	8002d66 <read16>
 80024d8:	4603      	mov	r3, r0
 80024da:	ee07 3a90 	vmov	s15, r3
 80024de:	eef8 7ae7 	vcvt.f32.s32	s15, s15
 80024e2:	ed9f 7a07 	vldr	s14, [pc, #28]	@ 8002500 <decodeRotationVector+0xc4>
 80024e6:	ee67 7a87 	vmul.f32	s15, s15, s14
 80024ea:	687b      	ldr	r3, [r7, #4]
 80024ec:	edc3 7a09 	vstr	s15, [r3, #36]	@ 0x24

    return SH2_OK;
 80024f0:	2300      	movs	r3, #0
}
 80024f2:	4618      	mov	r0, r3
 80024f4:	3708      	adds	r7, #8
 80024f6:	46bd      	mov	sp, r7
 80024f8:	bd80      	pop	{r7, pc}
 80024fa:	bf00      	nop
 80024fc:	38800000 	.word	0x38800000
 8002500:	39800000 	.word	0x39800000

08002504 <decodeGameRotationVector>:

static int decodeGameRotationVector(sh2_SensorValue_t *value, const sh2_SensorEvent_t *event)
{
 8002504:	b580      	push	{r7, lr}
 8002506:	b082      	sub	sp, #8
 8002508:	af00      	add	r7, sp, #0
 800250a:	6078      	str	r0, [r7, #4]
 800250c:	6039      	str	r1, [r7, #0]
    value->un.gameRotationVector.i = read16(&event->report[4]) * SCALE_Q(14);
 800250e:	683b      	ldr	r3, [r7, #0]
 8002510:	330e      	adds	r3, #14
 8002512:	4618      	mov	r0, r3
 8002514:	f000 fc27 	bl	8002d66 <read16>
 8002518:	4603      	mov	r3, r0
 800251a:	ee07 3a90 	vmov	s15, r3
 800251e:	eef8 7ae7 	vcvt.f32.s32	s15, s15
 8002522:	ed9f 7a1f 	vldr	s14, [pc, #124]	@ 80025a0 <decodeGameRotationVector+0x9c>
 8002526:	ee67 7a87 	vmul.f32	s15, s15, s14
 800252a:	687b      	ldr	r3, [r7, #4]
 800252c:	edc3 7a05 	vstr	s15, [r3, #20]
    value->un.gameRotationVector.j = read16(&event->report[6]) * SCALE_Q(14);
 8002530:	683b      	ldr	r3, [r7, #0]
 8002532:	3310      	adds	r3, #16
 8002534:	4618      	mov	r0, r3
 8002536:	f000 fc16 	bl	8002d66 <read16>
 800253a:	4603      	mov	r3, r0
 800253c:	ee07 3a90 	vmov	s15, r3
 8002540:	eef8 7ae7 	vcvt.f32.s32	s15, s15
 8002544:	ed9f 7a16 	vldr	s14, [pc, #88]	@ 80025a0 <decodeGameRotationVector+0x9c>
 8002548:	ee67 7a87 	vmul.f32	s15, s15, s14
 800254c:	687b      	ldr	r3, [r7, #4]
 800254e:	edc3 7a06 	vstr	s15, [r3, #24]
    value->un.gameRotationVector.k = read16(&event->report[8]) * SCALE_Q(14);
 8002552:	683b      	ldr	r3, [r7, #0]
 8002554:	3312      	adds	r3, #18
 8002556:	4618      	mov	r0, r3
 8002558:	f000 fc05 	bl	8002d66 <read16>
 800255c:	4603      	mov	r3, r0
 800255e:	ee07 3a90 	vmov	s15, r3
 8002562:	eef8 7ae7 	vcvt.f32.s32	s15, s15
 8002566:	ed9f 7a0e 	vldr	s14, [pc, #56]	@ 80025a0 <decodeGameRotationVector+0x9c>
 800256a:	ee67 7a87 	vmul.f32	s15, s15, s14
 800256e:	687b      	ldr	r3, [r7, #4]
 8002570:	edc3 7a07 	vstr	s15, [r3, #28]
    value->un.gameRotationVector.real = read16(&event->report[10]) * SCALE_Q(14);
 8002574:	683b      	ldr	r3, [r7, #0]
 8002576:	3314      	adds	r3, #20
 8002578:	4618      	mov	r0, r3
 800257a:	f000 fbf4 	bl	8002d66 <read16>
 800257e:	4603      	mov	r3, r0
 8002580:	ee07 3a90 	vmov	s15, r3
 8002584:	eef8 7ae7 	vcvt.f32.s32	s15, s15
 8002588:	ed9f 7a05 	vldr	s14, [pc, #20]	@ 80025a0 <decodeGameRotationVector+0x9c>
 800258c:	ee67 7a87 	vmul.f32	s15, s15, s14
 8002590:	687b      	ldr	r3, [r7, #4]
 8002592:	edc3 7a08 	vstr	s15, [r3, #32]

    return SH2_OK;
 8002596:	2300      	movs	r3, #0
}
 8002598:	4618      	mov	r0, r3
 800259a:	3708      	adds	r7, #8
 800259c:	46bd      	mov	sp, r7
 800259e:	bd80      	pop	{r7, pc}
 80025a0:	38800000 	.word	0x38800000

080025a4 <decodeGeomagneticRotationVector>:

static int decodeGeomagneticRotationVector(sh2_SensorValue_t *value, const sh2_SensorEvent_t *event)
{
 80025a4:	b580      	push	{r7, lr}
 80025a6:	b082      	sub	sp, #8
 80025a8:	af00      	add	r7, sp, #0
 80025aa:	6078      	str	r0, [r7, #4]
 80025ac:	6039      	str	r1, [r7, #0]
    value->un.geoMagRotationVector.i = read16(&event->report[4]) * SCALE_Q(14);
 80025ae:	683b      	ldr	r3, [r7, #0]
 80025b0:	330e      	adds	r3, #14
 80025b2:	4618      	mov	r0, r3
 80025b4:	f000 fbd7 	bl	8002d66 <read16>
 80025b8:	4603      	mov	r3, r0
 80025ba:	ee07 3a90 	vmov	s15, r3
 80025be:	eef8 7ae7 	vcvt.f32.s32	s15, s15
 80025c2:	ed9f 7a28 	vldr	s14, [pc, #160]	@ 8002664 <decodeGeomagneticRotationVector+0xc0>
 80025c6:	ee67 7a87 	vmul.f32	s15, s15, s14
 80025ca:	687b      	ldr	r3, [r7, #4]
 80025cc:	edc3 7a05 	vstr	s15, [r3, #20]
    value->un.geoMagRotationVector.j = read16(&event->report[6]) * SCALE_Q(14);
 80025d0:	683b      	ldr	r3, [r7, #0]
 80025d2:	3310      	adds	r3, #16
 80025d4:	4618      	mov	r0, r3
 80025d6:	f000 fbc6 	bl	8002d66 <read16>
 80025da:	4603      	mov	r3, r0
 80025dc:	ee07 3a90 	vmov	s15, r3
 80025e0:	eef8 7ae7 	vcvt.f32.s32	s15, s15
 80025e4:	ed9f 7a1f 	vldr	s14, [pc, #124]	@ 8002664 <decodeGeomagneticRotationVector+0xc0>
 80025e8:	ee67 7a87 	vmul.f32	s15, s15, s14
 80025ec:	687b      	ldr	r3, [r7, #4]
 80025ee:	edc3 7a06 	vstr	s15, [r3, #24]
    value->un.geoMagRotationVector.k = read16(&event->report[8]) * SCALE_Q(14);
 80025f2:	683b      	ldr	r3, [r7, #0]
 80025f4:	3312      	adds	r3, #18
 80025f6:	4618      	mov	r0, r3
 80025f8:	f000 fbb5 	bl	8002d66 <read16>
 80025fc:	4603      	mov	r3, r0
 80025fe:	ee07 3a90 	vmov	s15, r3
 8002602:	eef8 7ae7 	vcvt.f32.s32	s15, s15
 8002606:	ed9f 7a17 	vldr	s14, [pc, #92]	@ 8002664 <decodeGeomagneticRotationVector+0xc0>
 800260a:	ee67 7a87 	vmul.f32	s15, s15, s14
 800260e:	687b      	ldr	r3, [r7, #4]
 8002610:	edc3 7a07 	vstr	s15, [r3, #28]
    value->un.geoMagRotationVector.real = read16(&event->report[10]) * SCALE_Q(14);
 8002614:	683b      	ldr	r3, [r7, #0]
 8002616:	3314      	adds	r3, #20
 8002618:	4618      	mov	r0, r3
 800261a:	f000 fba4 	bl	8002d66 <read16>
 800261e:	4603      	mov	r3, r0
 8002620:	ee07 3a90 	vmov	s15, r3
 8002624:	eef8 7ae7 	vcvt.f32.s32	s15, s15
 8002628:	ed9f 7a0e 	vldr	s14, [pc, #56]	@ 8002664 <decodeGeomagneticRotationVector+0xc0>
 800262c:	ee67 7a87 	vmul.f32	s15, s15, s14
 8002630:	687b      	ldr	r3, [r7, #4]
 8002632:	edc3 7a08 	vstr	s15, [r3, #32]
    value->un.geoMagRotationVector.accuracy = read16(&event->report[12]) * SCALE_Q(12);
 8002636:	683b      	ldr	r3, [r7, #0]
 8002638:	3316      	adds	r3, #22
 800263a:	4618      	mov	r0, r3
 800263c:	f000 fb93 	bl	8002d66 <read16>
 8002640:	4603      	mov	r3, r0
 8002642:	ee07 3a90 	vmov	s15, r3
 8002646:	eef8 7ae7 	vcvt.f32.s32	s15, s15
 800264a:	ed9f 7a07 	vldr	s14, [pc, #28]	@ 8002668 <decodeGeomagneticRotationVector+0xc4>
 800264e:	ee67 7a87 	vmul.f32	s15, s15, s14
 8002652:	687b      	ldr	r3, [r7, #4]
 8002654:	edc3 7a09 	vstr	s15, [r3, #36]	@ 0x24

    return SH2_OK;
 8002658:	2300      	movs	r3, #0
}
 800265a:	4618      	mov	r0, r3
 800265c:	3708      	adds	r7, #8
 800265e:	46bd      	mov	sp, r7
 8002660:	bd80      	pop	{r7, pc}
 8002662:	bf00      	nop
 8002664:	38800000 	.word	0x38800000
 8002668:	39800000 	.word	0x39800000

0800266c <decodePressure>:

static int decodePressure(sh2_SensorValue_t *value, const sh2_SensorEvent_t *event)
{
 800266c:	b580      	push	{r7, lr}
 800266e:	b082      	sub	sp, #8
 8002670:	af00      	add	r7, sp, #0
 8002672:	6078      	str	r0, [r7, #4]
 8002674:	6039      	str	r1, [r7, #0]
    value->un.pressure.value = read32(&event->report[4]) * SCALE_Q(20);
 8002676:	683b      	ldr	r3, [r7, #0]
 8002678:	330e      	adds	r3, #14
 800267a:	4618      	mov	r0, r3
 800267c:	f000 fb8a 	bl	8002d94 <read32>
 8002680:	ee07 0a90 	vmov	s15, r0
 8002684:	eef8 7ae7 	vcvt.f32.s32	s15, s15
 8002688:	ed9f 7a05 	vldr	s14, [pc, #20]	@ 80026a0 <decodePressure+0x34>
 800268c:	ee67 7a87 	vmul.f32	s15, s15, s14
 8002690:	687b      	ldr	r3, [r7, #4]
 8002692:	edc3 7a05 	vstr	s15, [r3, #20]

    return SH2_OK;
 8002696:	2300      	movs	r3, #0
}
 8002698:	4618      	mov	r0, r3
 800269a:	3708      	adds	r7, #8
 800269c:	46bd      	mov	sp, r7
 800269e:	bd80      	pop	{r7, pc}
 80026a0:	35800000 	.word	0x35800000

080026a4 <decodeAmbientLight>:

static int decodeAmbientLight(sh2_SensorValue_t *value, const sh2_SensorEvent_t *event)
{
 80026a4:	b580      	push	{r7, lr}
 80026a6:	b082      	sub	sp, #8
 80026a8:	af00      	add	r7, sp, #0
 80026aa:	6078      	str	r0, [r7, #4]
 80026ac:	6039      	str	r1, [r7, #0]
    value->un.ambientLight.value = read32(&event->report[4]) * SCALE_Q(8);
 80026ae:	683b      	ldr	r3, [r7, #0]
 80026b0:	330e      	adds	r3, #14
 80026b2:	4618      	mov	r0, r3
 80026b4:	f000 fb6e 	bl	8002d94 <read32>
 80026b8:	ee07 0a90 	vmov	s15, r0
 80026bc:	eef8 7ae7 	vcvt.f32.s32	s15, s15
 80026c0:	ed9f 7a05 	vldr	s14, [pc, #20]	@ 80026d8 <decodeAmbientLight+0x34>
 80026c4:	ee67 7a87 	vmul.f32	s15, s15, s14
 80026c8:	687b      	ldr	r3, [r7, #4]
 80026ca:	edc3 7a05 	vstr	s15, [r3, #20]

    return SH2_OK;
 80026ce:	2300      	movs	r3, #0
}
 80026d0:	4618      	mov	r0, r3
 80026d2:	3708      	adds	r7, #8
 80026d4:	46bd      	mov	sp, r7
 80026d6:	bd80      	pop	{r7, pc}
 80026d8:	3b800000 	.word	0x3b800000

080026dc <decodeHumidity>:

static int decodeHumidity(sh2_SensorValue_t *value, const sh2_SensorEvent_t *event)
{
 80026dc:	b580      	push	{r7, lr}
 80026de:	b082      	sub	sp, #8
 80026e0:	af00      	add	r7, sp, #0
 80026e2:	6078      	str	r0, [r7, #4]
 80026e4:	6039      	str	r1, [r7, #0]
    value->un.humidity.value = read16(&event->report[4]) * SCALE_Q(8);
 80026e6:	683b      	ldr	r3, [r7, #0]
 80026e8:	330e      	adds	r3, #14
 80026ea:	4618      	mov	r0, r3
 80026ec:	f000 fb3b 	bl	8002d66 <read16>
 80026f0:	4603      	mov	r3, r0
 80026f2:	ee07 3a90 	vmov	s15, r3
 80026f6:	eef8 7ae7 	vcvt.f32.s32	s15, s15
 80026fa:	ed9f 7a06 	vldr	s14, [pc, #24]	@ 8002714 <decodeHumidity+0x38>
 80026fe:	ee67 7a87 	vmul.f32	s15, s15, s14
 8002702:	687b      	ldr	r3, [r7, #4]
 8002704:	edc3 7a05 	vstr	s15, [r3, #20]

    return SH2_OK;
 8002708:	2300      	movs	r3, #0
}
 800270a:	4618      	mov	r0, r3
 800270c:	3708      	adds	r7, #8
 800270e:	46bd      	mov	sp, r7
 8002710:	bd80      	pop	{r7, pc}
 8002712:	bf00      	nop
 8002714:	3b800000 	.word	0x3b800000

08002718 <decodeProximity>:

static int decodeProximity(sh2_SensorValue_t *value, const sh2_SensorEvent_t *event)
{
 8002718:	b580      	push	{r7, lr}
 800271a:	b082      	sub	sp, #8
 800271c:	af00      	add	r7, sp, #0
 800271e:	6078      	str	r0, [r7, #4]
 8002720:	6039      	str	r1, [r7, #0]
    value->un.proximity.value = read16(&event->report[4]) * SCALE_Q(4);
 8002722:	683b      	ldr	r3, [r7, #0]
 8002724:	330e      	adds	r3, #14
 8002726:	4618      	mov	r0, r3
 8002728:	f000 fb1d 	bl	8002d66 <read16>
 800272c:	4603      	mov	r3, r0
 800272e:	ee07 3a90 	vmov	s15, r3
 8002732:	eef8 7ae7 	vcvt.f32.s32	s15, s15
 8002736:	ed9f 7a06 	vldr	s14, [pc, #24]	@ 8002750 <decodeProximity+0x38>
 800273a:	ee67 7a87 	vmul.f32	s15, s15, s14
 800273e:	687b      	ldr	r3, [r7, #4]
 8002740:	edc3 7a05 	vstr	s15, [r3, #20]

    return SH2_OK;
 8002744:	2300      	movs	r3, #0
}
 8002746:	4618      	mov	r0, r3
 8002748:	3708      	adds	r7, #8
 800274a:	46bd      	mov	sp, r7
 800274c:	bd80      	pop	{r7, pc}
 800274e:	bf00      	nop
 8002750:	3d800000 	.word	0x3d800000

08002754 <decodeTemperature>:

static int decodeTemperature(sh2_SensorValue_t *value, const sh2_SensorEvent_t *event)
{
 8002754:	b580      	push	{r7, lr}
 8002756:	b082      	sub	sp, #8
 8002758:	af00      	add	r7, sp, #0
 800275a:	6078      	str	r0, [r7, #4]
 800275c:	6039      	str	r1, [r7, #0]
    value->un.temperature.value = read16(&event->report[4]) * SCALE_Q(7);
 800275e:	683b      	ldr	r3, [r7, #0]
 8002760:	330e      	adds	r3, #14
 8002762:	4618      	mov	r0, r3
 8002764:	f000 faff 	bl	8002d66 <read16>
 8002768:	4603      	mov	r3, r0
 800276a:	ee07 3a90 	vmov	s15, r3
 800276e:	eef8 7ae7 	vcvt.f32.s32	s15, s15
 8002772:	ed9f 7a06 	vldr	s14, [pc, #24]	@ 800278c <decodeTemperature+0x38>
 8002776:	ee67 7a87 	vmul.f32	s15, s15, s14
 800277a:	687b      	ldr	r3, [r7, #4]
 800277c:	edc3 7a05 	vstr	s15, [r3, #20]

    return SH2_OK;
 8002780:	2300      	movs	r3, #0
}
 8002782:	4618      	mov	r0, r3
 8002784:	3708      	adds	r7, #8
 8002786:	46bd      	mov	sp, r7
 8002788:	bd80      	pop	{r7, pc}
 800278a:	bf00      	nop
 800278c:	3c000000 	.word	0x3c000000

08002790 <decodeReserved>:

static int decodeReserved(sh2_SensorValue_t *value, const sh2_SensorEvent_t *event)
{
 8002790:	b580      	push	{r7, lr}
 8002792:	b082      	sub	sp, #8
 8002794:	af00      	add	r7, sp, #0
 8002796:	6078      	str	r0, [r7, #4]
 8002798:	6039      	str	r1, [r7, #0]
    value->un.reserved.tbd = read16(&event->report[4]) * SCALE_Q(7);
 800279a:	683b      	ldr	r3, [r7, #0]
 800279c:	330e      	adds	r3, #14
 800279e:	4618      	mov	r0, r3
 80027a0:	f000 fae1 	bl	8002d66 <read16>
 80027a4:	4603      	mov	r3, r0
 80027a6:	ee07 3a90 	vmov	s15, r3
 80027aa:	eef8 7ae7 	vcvt.f32.s32	s15, s15
 80027ae:	ed9f 7a06 	vldr	s14, [pc, #24]	@ 80027c8 <decodeReserved+0x38>
 80027b2:	ee67 7a87 	vmul.f32	s15, s15, s14
 80027b6:	687b      	ldr	r3, [r7, #4]
 80027b8:	edc3 7a05 	vstr	s15, [r3, #20]

    return SH2_OK;
 80027bc:	2300      	movs	r3, #0
}
 80027be:	4618      	mov	r0, r3
 80027c0:	3708      	adds	r7, #8
 80027c2:	46bd      	mov	sp, r7
 80027c4:	bd80      	pop	{r7, pc}
 80027c6:	bf00      	nop
 80027c8:	3c000000 	.word	0x3c000000

080027cc <decodeTapDetector>:

static int decodeTapDetector(sh2_SensorValue_t *value, const sh2_SensorEvent_t *event)
{
 80027cc:	b480      	push	{r7}
 80027ce:	b083      	sub	sp, #12
 80027d0:	af00      	add	r7, sp, #0
 80027d2:	6078      	str	r0, [r7, #4]
 80027d4:	6039      	str	r1, [r7, #0]
    value->un.tapDetector.flags = event->report[4];
 80027d6:	683b      	ldr	r3, [r7, #0]
 80027d8:	7b9a      	ldrb	r2, [r3, #14]
 80027da:	687b      	ldr	r3, [r7, #4]
 80027dc:	751a      	strb	r2, [r3, #20]

    return SH2_OK;
 80027de:	2300      	movs	r3, #0
}
 80027e0:	4618      	mov	r0, r3
 80027e2:	370c      	adds	r7, #12
 80027e4:	46bd      	mov	sp, r7
 80027e6:	f85d 7b04 	ldr.w	r7, [sp], #4
 80027ea:	4770      	bx	lr

080027ec <decodeStepDetector>:

static int decodeStepDetector(sh2_SensorValue_t *value, const sh2_SensorEvent_t *event)
{
 80027ec:	b580      	push	{r7, lr}
 80027ee:	b082      	sub	sp, #8
 80027f0:	af00      	add	r7, sp, #0
 80027f2:	6078      	str	r0, [r7, #4]
 80027f4:	6039      	str	r1, [r7, #0]
    value->un.stepDetector.latency = readu32(&event->report[4]);
 80027f6:	683b      	ldr	r3, [r7, #0]
 80027f8:	330e      	adds	r3, #14
 80027fa:	4618      	mov	r0, r3
 80027fc:	f000 fa95 	bl	8002d2a <readu32>
 8002800:	4602      	mov	r2, r0
 8002802:	687b      	ldr	r3, [r7, #4]
 8002804:	615a      	str	r2, [r3, #20]

    return SH2_OK;
 8002806:	2300      	movs	r3, #0
}
 8002808:	4618      	mov	r0, r3
 800280a:	3708      	adds	r7, #8
 800280c:	46bd      	mov	sp, r7
 800280e:	bd80      	pop	{r7, pc}

08002810 <decodeStepCounter>:

static int decodeStepCounter(sh2_SensorValue_t *value, const sh2_SensorEvent_t *event)
{
 8002810:	b580      	push	{r7, lr}
 8002812:	b082      	sub	sp, #8
 8002814:	af00      	add	r7, sp, #0
 8002816:	6078      	str	r0, [r7, #4]
 8002818:	6039      	str	r1, [r7, #0]
    value->un.stepCounter.latency = readu32(&event->report[4]);
 800281a:	683b      	ldr	r3, [r7, #0]
 800281c:	330e      	adds	r3, #14
 800281e:	4618      	mov	r0, r3
 8002820:	f000 fa83 	bl	8002d2a <readu32>
 8002824:	4602      	mov	r2, r0
 8002826:	687b      	ldr	r3, [r7, #4]
 8002828:	615a      	str	r2, [r3, #20]
    value->un.stepCounter.steps = readu32(&event->report[8]);
 800282a:	683b      	ldr	r3, [r7, #0]
 800282c:	3312      	adds	r3, #18
 800282e:	4618      	mov	r0, r3
 8002830:	f000 fa7b 	bl	8002d2a <readu32>
 8002834:	4603      	mov	r3, r0
 8002836:	b29a      	uxth	r2, r3
 8002838:	687b      	ldr	r3, [r7, #4]
 800283a:	831a      	strh	r2, [r3, #24]

    return SH2_OK;
 800283c:	2300      	movs	r3, #0
}
 800283e:	4618      	mov	r0, r3
 8002840:	3708      	adds	r7, #8
 8002842:	46bd      	mov	sp, r7
 8002844:	bd80      	pop	{r7, pc}

08002846 <decodeSignificantMotion>:

static int decodeSignificantMotion(sh2_SensorValue_t *value, const sh2_SensorEvent_t *event)
{
 8002846:	b580      	push	{r7, lr}
 8002848:	b082      	sub	sp, #8
 800284a:	af00      	add	r7, sp, #0
 800284c:	6078      	str	r0, [r7, #4]
 800284e:	6039      	str	r1, [r7, #0]
    value->un.sigMotion.motion = readu16(&event->report[4]);
 8002850:	683b      	ldr	r3, [r7, #0]
 8002852:	330e      	adds	r3, #14
 8002854:	4618      	mov	r0, r3
 8002856:	f000 fa51 	bl	8002cfc <readu16>
 800285a:	4603      	mov	r3, r0
 800285c:	461a      	mov	r2, r3
 800285e:	687b      	ldr	r3, [r7, #4]
 8002860:	829a      	strh	r2, [r3, #20]

    return SH2_OK;
 8002862:	2300      	movs	r3, #0
}
 8002864:	4618      	mov	r0, r3
 8002866:	3708      	adds	r7, #8
 8002868:	46bd      	mov	sp, r7
 800286a:	bd80      	pop	{r7, pc}

0800286c <decodeStabilityClassifier>:

static int decodeStabilityClassifier(sh2_SensorValue_t *value, const sh2_SensorEvent_t *event)
{
 800286c:	b480      	push	{r7}
 800286e:	b083      	sub	sp, #12
 8002870:	af00      	add	r7, sp, #0
 8002872:	6078      	str	r0, [r7, #4]
 8002874:	6039      	str	r1, [r7, #0]
    value->un.stabilityClassifier.classification = event->report[4];
 8002876:	683b      	ldr	r3, [r7, #0]
 8002878:	7b9a      	ldrb	r2, [r3, #14]
 800287a:	687b      	ldr	r3, [r7, #4]
 800287c:	751a      	strb	r2, [r3, #20]

    return SH2_OK;
 800287e:	2300      	movs	r3, #0
}
 8002880:	4618      	mov	r0, r3
 8002882:	370c      	adds	r7, #12
 8002884:	46bd      	mov	sp, r7
 8002886:	f85d 7b04 	ldr.w	r7, [sp], #4
 800288a:	4770      	bx	lr

0800288c <decodeShakeDetector>:

static int decodeShakeDetector(sh2_SensorValue_t *value, const sh2_SensorEvent_t *event)
{
 800288c:	b580      	push	{r7, lr}
 800288e:	b082      	sub	sp, #8
 8002890:	af00      	add	r7, sp, #0
 8002892:	6078      	str	r0, [r7, #4]
 8002894:	6039      	str	r1, [r7, #0]
    value->un.shakeDetector.shake = readu16(&event->report[4]);
 8002896:	683b      	ldr	r3, [r7, #0]
 8002898:	330e      	adds	r3, #14
 800289a:	4618      	mov	r0, r3
 800289c:	f000 fa2e 	bl	8002cfc <readu16>
 80028a0:	4603      	mov	r3, r0
 80028a2:	461a      	mov	r2, r3
 80028a4:	687b      	ldr	r3, [r7, #4]
 80028a6:	829a      	strh	r2, [r3, #20]

    return SH2_OK;
 80028a8:	2300      	movs	r3, #0
}
 80028aa:	4618      	mov	r0, r3
 80028ac:	3708      	adds	r7, #8
 80028ae:	46bd      	mov	sp, r7
 80028b0:	bd80      	pop	{r7, pc}

080028b2 <decodeFlipDetector>:

static int decodeFlipDetector(sh2_SensorValue_t *value, const sh2_SensorEvent_t *event)
{
 80028b2:	b580      	push	{r7, lr}
 80028b4:	b082      	sub	sp, #8
 80028b6:	af00      	add	r7, sp, #0
 80028b8:	6078      	str	r0, [r7, #4]
 80028ba:	6039      	str	r1, [r7, #0]
    value->un.flipDetector.flip = readu16(&event->report[4]);
 80028bc:	683b      	ldr	r3, [r7, #0]
 80028be:	330e      	adds	r3, #14
 80028c0:	4618      	mov	r0, r3
 80028c2:	f000 fa1b 	bl	8002cfc <readu16>
 80028c6:	4603      	mov	r3, r0
 80028c8:	461a      	mov	r2, r3
 80028ca:	687b      	ldr	r3, [r7, #4]
 80028cc:	829a      	strh	r2, [r3, #20]

    return SH2_OK;
 80028ce:	2300      	movs	r3, #0
}
 80028d0:	4618      	mov	r0, r3
 80028d2:	3708      	adds	r7, #8
 80028d4:	46bd      	mov	sp, r7
 80028d6:	bd80      	pop	{r7, pc}

080028d8 <decodePickupDetector>:

static int decodePickupDetector(sh2_SensorValue_t *value, const sh2_SensorEvent_t *event)
{
 80028d8:	b580      	push	{r7, lr}
 80028da:	b082      	sub	sp, #8
 80028dc:	af00      	add	r7, sp, #0
 80028de:	6078      	str	r0, [r7, #4]
 80028e0:	6039      	str	r1, [r7, #0]
    value->un.pickupDetector.pickup = readu16(&event->report[4]);
 80028e2:	683b      	ldr	r3, [r7, #0]
 80028e4:	330e      	adds	r3, #14
 80028e6:	4618      	mov	r0, r3
 80028e8:	f000 fa08 	bl	8002cfc <readu16>
 80028ec:	4603      	mov	r3, r0
 80028ee:	461a      	mov	r2, r3
 80028f0:	687b      	ldr	r3, [r7, #4]
 80028f2:	829a      	strh	r2, [r3, #20]

    return SH2_OK;
 80028f4:	2300      	movs	r3, #0
}
 80028f6:	4618      	mov	r0, r3
 80028f8:	3708      	adds	r7, #8
 80028fa:	46bd      	mov	sp, r7
 80028fc:	bd80      	pop	{r7, pc}

080028fe <decodeStabilityDetector>:

static int decodeStabilityDetector(sh2_SensorValue_t *value, const sh2_SensorEvent_t *event)
{
 80028fe:	b580      	push	{r7, lr}
 8002900:	b082      	sub	sp, #8
 8002902:	af00      	add	r7, sp, #0
 8002904:	6078      	str	r0, [r7, #4]
 8002906:	6039      	str	r1, [r7, #0]
    value->un.stabilityDetector.stability = readu16(&event->report[4]);
 8002908:	683b      	ldr	r3, [r7, #0]
 800290a:	330e      	adds	r3, #14
 800290c:	4618      	mov	r0, r3
 800290e:	f000 f9f5 	bl	8002cfc <readu16>
 8002912:	4603      	mov	r3, r0
 8002914:	461a      	mov	r2, r3
 8002916:	687b      	ldr	r3, [r7, #4]
 8002918:	829a      	strh	r2, [r3, #20]

    return SH2_OK;
 800291a:	2300      	movs	r3, #0
}
 800291c:	4618      	mov	r0, r3
 800291e:	3708      	adds	r7, #8
 8002920:	46bd      	mov	sp, r7
 8002922:	bd80      	pop	{r7, pc}

08002924 <decodePersonalActivityClassifier>:

static int decodePersonalActivityClassifier(sh2_SensorValue_t *value, const sh2_SensorEvent_t *event)
{
 8002924:	b480      	push	{r7}
 8002926:	b085      	sub	sp, #20
 8002928:	af00      	add	r7, sp, #0
 800292a:	6078      	str	r0, [r7, #4]
 800292c:	6039      	str	r1, [r7, #0]
    value->un.personalActivityClassifier.page = event->report[4] & 0x7F;
 800292e:	683b      	ldr	r3, [r7, #0]
 8002930:	7b9b      	ldrb	r3, [r3, #14]
 8002932:	f003 037f 	and.w	r3, r3, #127	@ 0x7f
 8002936:	b2da      	uxtb	r2, r3
 8002938:	687b      	ldr	r3, [r7, #4]
 800293a:	751a      	strb	r2, [r3, #20]
    value->un.personalActivityClassifier.lastPage = ((event->report[4] & 0x80) != 0);
 800293c:	683b      	ldr	r3, [r7, #0]
 800293e:	7b9b      	ldrb	r3, [r3, #14]
 8002940:	b25b      	sxtb	r3, r3
 8002942:	b2db      	uxtb	r3, r3
 8002944:	09db      	lsrs	r3, r3, #7
 8002946:	b2da      	uxtb	r2, r3
 8002948:	687b      	ldr	r3, [r7, #4]
 800294a:	755a      	strb	r2, [r3, #21]
    value->un.personalActivityClassifier.mostLikelyState = event->report[5];
 800294c:	683b      	ldr	r3, [r7, #0]
 800294e:	7bda      	ldrb	r2, [r3, #15]
 8002950:	687b      	ldr	r3, [r7, #4]
 8002952:	759a      	strb	r2, [r3, #22]
    for (int n = 0; n < 10; n++) {
 8002954:	2300      	movs	r3, #0
 8002956:	60fb      	str	r3, [r7, #12]
 8002958:	e00d      	b.n	8002976 <decodePersonalActivityClassifier+0x52>
        value->un.personalActivityClassifier.confidence[n] = event->report[6+n];
 800295a:	68fb      	ldr	r3, [r7, #12]
 800295c:	3306      	adds	r3, #6
 800295e:	683a      	ldr	r2, [r7, #0]
 8002960:	4413      	add	r3, r2
 8002962:	7a99      	ldrb	r1, [r3, #10]
 8002964:	687a      	ldr	r2, [r7, #4]
 8002966:	68fb      	ldr	r3, [r7, #12]
 8002968:	4413      	add	r3, r2
 800296a:	3317      	adds	r3, #23
 800296c:	460a      	mov	r2, r1
 800296e:	701a      	strb	r2, [r3, #0]
    for (int n = 0; n < 10; n++) {
 8002970:	68fb      	ldr	r3, [r7, #12]
 8002972:	3301      	adds	r3, #1
 8002974:	60fb      	str	r3, [r7, #12]
 8002976:	68fb      	ldr	r3, [r7, #12]
 8002978:	2b09      	cmp	r3, #9
 800297a:	ddee      	ble.n	800295a <decodePersonalActivityClassifier+0x36>
    }
    
    return SH2_OK;
 800297c:	2300      	movs	r3, #0
}
 800297e:	4618      	mov	r0, r3
 8002980:	3714      	adds	r7, #20
 8002982:	46bd      	mov	sp, r7
 8002984:	f85d 7b04 	ldr.w	r7, [sp], #4
 8002988:	4770      	bx	lr

0800298a <decodeSleepDetector>:

static int decodeSleepDetector(sh2_SensorValue_t *value, const sh2_SensorEvent_t *event)
{
 800298a:	b480      	push	{r7}
 800298c:	b083      	sub	sp, #12
 800298e:	af00      	add	r7, sp, #0
 8002990:	6078      	str	r0, [r7, #4]
 8002992:	6039      	str	r1, [r7, #0]
    value->un.sleepDetector.sleepState = event->report[4];
 8002994:	683b      	ldr	r3, [r7, #0]
 8002996:	7b9a      	ldrb	r2, [r3, #14]
 8002998:	687b      	ldr	r3, [r7, #4]
 800299a:	751a      	strb	r2, [r3, #20]

    return SH2_OK;
 800299c:	2300      	movs	r3, #0
}
 800299e:	4618      	mov	r0, r3
 80029a0:	370c      	adds	r7, #12
 80029a2:	46bd      	mov	sp, r7
 80029a4:	f85d 7b04 	ldr.w	r7, [sp], #4
 80029a8:	4770      	bx	lr

080029aa <decodeTiltDetector>:

static int decodeTiltDetector(sh2_SensorValue_t *value, const sh2_SensorEvent_t *event)
{
 80029aa:	b580      	push	{r7, lr}
 80029ac:	b082      	sub	sp, #8
 80029ae:	af00      	add	r7, sp, #0
 80029b0:	6078      	str	r0, [r7, #4]
 80029b2:	6039      	str	r1, [r7, #0]
    value->un.tiltDetector.tilt = readu16(&event->report[4]);
 80029b4:	683b      	ldr	r3, [r7, #0]
 80029b6:	330e      	adds	r3, #14
 80029b8:	4618      	mov	r0, r3
 80029ba:	f000 f99f 	bl	8002cfc <readu16>
 80029be:	4603      	mov	r3, r0
 80029c0:	461a      	mov	r2, r3
 80029c2:	687b      	ldr	r3, [r7, #4]
 80029c4:	829a      	strh	r2, [r3, #20]

    return SH2_OK;
 80029c6:	2300      	movs	r3, #0
}
 80029c8:	4618      	mov	r0, r3
 80029ca:	3708      	adds	r7, #8
 80029cc:	46bd      	mov	sp, r7
 80029ce:	bd80      	pop	{r7, pc}

080029d0 <decodePocketDetector>:

static int decodePocketDetector(sh2_SensorValue_t *value, const sh2_SensorEvent_t *event)
{
 80029d0:	b580      	push	{r7, lr}
 80029d2:	b082      	sub	sp, #8
 80029d4:	af00      	add	r7, sp, #0
 80029d6:	6078      	str	r0, [r7, #4]
 80029d8:	6039      	str	r1, [r7, #0]
    value->un.pocketDetector.pocket = readu16(&event->report[4]);
 80029da:	683b      	ldr	r3, [r7, #0]
 80029dc:	330e      	adds	r3, #14
 80029de:	4618      	mov	r0, r3
 80029e0:	f000 f98c 	bl	8002cfc <readu16>
 80029e4:	4603      	mov	r3, r0
 80029e6:	461a      	mov	r2, r3
 80029e8:	687b      	ldr	r3, [r7, #4]
 80029ea:	829a      	strh	r2, [r3, #20]

    return SH2_OK;
 80029ec:	2300      	movs	r3, #0
}
 80029ee:	4618      	mov	r0, r3
 80029f0:	3708      	adds	r7, #8
 80029f2:	46bd      	mov	sp, r7
 80029f4:	bd80      	pop	{r7, pc}

080029f6 <decodeCircleDetector>:

static int decodeCircleDetector(sh2_SensorValue_t *value, const sh2_SensorEvent_t *event)
{
 80029f6:	b580      	push	{r7, lr}
 80029f8:	b082      	sub	sp, #8
 80029fa:	af00      	add	r7, sp, #0
 80029fc:	6078      	str	r0, [r7, #4]
 80029fe:	6039      	str	r1, [r7, #0]
    value->un.circleDetector.circle = readu16(&event->report[4]);
 8002a00:	683b      	ldr	r3, [r7, #0]
 8002a02:	330e      	adds	r3, #14
 8002a04:	4618      	mov	r0, r3
 8002a06:	f000 f979 	bl	8002cfc <readu16>
 8002a0a:	4603      	mov	r3, r0
 8002a0c:	461a      	mov	r2, r3
 8002a0e:	687b      	ldr	r3, [r7, #4]
 8002a10:	829a      	strh	r2, [r3, #20]

    return SH2_OK;
 8002a12:	2300      	movs	r3, #0
}
 8002a14:	4618      	mov	r0, r3
 8002a16:	3708      	adds	r7, #8
 8002a18:	46bd      	mov	sp, r7
 8002a1a:	bd80      	pop	{r7, pc}

08002a1c <decodeHeartRateMonitor>:

static int decodeHeartRateMonitor(sh2_SensorValue_t *value, const sh2_SensorEvent_t *event)
{
 8002a1c:	b580      	push	{r7, lr}
 8002a1e:	b082      	sub	sp, #8
 8002a20:	af00      	add	r7, sp, #0
 8002a22:	6078      	str	r0, [r7, #4]
 8002a24:	6039      	str	r1, [r7, #0]
    value->un.heartRateMonitor.heartRate = readu16(&event->report[4]);
 8002a26:	683b      	ldr	r3, [r7, #0]
 8002a28:	330e      	adds	r3, #14
 8002a2a:	4618      	mov	r0, r3
 8002a2c:	f000 f966 	bl	8002cfc <readu16>
 8002a30:	4603      	mov	r3, r0
 8002a32:	461a      	mov	r2, r3
 8002a34:	687b      	ldr	r3, [r7, #4]
 8002a36:	829a      	strh	r2, [r3, #20]

    return SH2_OK;
 8002a38:	2300      	movs	r3, #0
}
 8002a3a:	4618      	mov	r0, r3
 8002a3c:	3708      	adds	r7, #8
 8002a3e:	46bd      	mov	sp, r7
 8002a40:	bd80      	pop	{r7, pc}
	...

08002a44 <decodeArvrStabilizedRV>:

static int decodeArvrStabilizedRV(sh2_SensorValue_t *value, const sh2_SensorEvent_t *event)
{
 8002a44:	b580      	push	{r7, lr}
 8002a46:	b082      	sub	sp, #8
 8002a48:	af00      	add	r7, sp, #0
 8002a4a:	6078      	str	r0, [r7, #4]
 8002a4c:	6039      	str	r1, [r7, #0]
    value->un.arvrStabilizedRV.i = read16(&event->report[4]) * SCALE_Q(14);
 8002a4e:	683b      	ldr	r3, [r7, #0]
 8002a50:	330e      	adds	r3, #14
 8002a52:	4618      	mov	r0, r3
 8002a54:	f000 f987 	bl	8002d66 <read16>
 8002a58:	4603      	mov	r3, r0
 8002a5a:	ee07 3a90 	vmov	s15, r3
 8002a5e:	eef8 7ae7 	vcvt.f32.s32	s15, s15
 8002a62:	ed9f 7a28 	vldr	s14, [pc, #160]	@ 8002b04 <decodeArvrStabilizedRV+0xc0>
 8002a66:	ee67 7a87 	vmul.f32	s15, s15, s14
 8002a6a:	687b      	ldr	r3, [r7, #4]
 8002a6c:	edc3 7a05 	vstr	s15, [r3, #20]
    value->un.arvrStabilizedRV.j = read16(&event->report[6]) * SCALE_Q(14);
 8002a70:	683b      	ldr	r3, [r7, #0]
 8002a72:	3310      	adds	r3, #16
 8002a74:	4618      	mov	r0, r3
 8002a76:	f000 f976 	bl	8002d66 <read16>
 8002a7a:	4603      	mov	r3, r0
 8002a7c:	ee07 3a90 	vmov	s15, r3
 8002a80:	eef8 7ae7 	vcvt.f32.s32	s15, s15
 8002a84:	ed9f 7a1f 	vldr	s14, [pc, #124]	@ 8002b04 <decodeArvrStabilizedRV+0xc0>
 8002a88:	ee67 7a87 	vmul.f32	s15, s15, s14
 8002a8c:	687b      	ldr	r3, [r7, #4]
 8002a8e:	edc3 7a06 	vstr	s15, [r3, #24]
    value->un.arvrStabilizedRV.k = read16(&event->report[8]) * SCALE_Q(14);
 8002a92:	683b      	ldr	r3, [r7, #0]
 8002a94:	3312      	adds	r3, #18
 8002a96:	4618      	mov	r0, r3
 8002a98:	f000 f965 	bl	8002d66 <read16>
 8002a9c:	4603      	mov	r3, r0
 8002a9e:	ee07 3a90 	vmov	s15, r3
 8002aa2:	eef8 7ae7 	vcvt.f32.s32	s15, s15
 8002aa6:	ed9f 7a17 	vldr	s14, [pc, #92]	@ 8002b04 <decodeArvrStabilizedRV+0xc0>
 8002aaa:	ee67 7a87 	vmul.f32	s15, s15, s14
 8002aae:	687b      	ldr	r3, [r7, #4]
 8002ab0:	edc3 7a07 	vstr	s15, [r3, #28]
    value->un.arvrStabilizedRV.real = read16(&event->report[10]) * SCALE_Q(14);
 8002ab4:	683b      	ldr	r3, [r7, #0]
 8002ab6:	3314      	adds	r3, #20
 8002ab8:	4618      	mov	r0, r3
 8002aba:	f000 f954 	bl	8002d66 <read16>
 8002abe:	4603      	mov	r3, r0
 8002ac0:	ee07 3a90 	vmov	s15, r3
 8002ac4:	eef8 7ae7 	vcvt.f32.s32	s15, s15
 8002ac8:	ed9f 7a0e 	vldr	s14, [pc, #56]	@ 8002b04 <decodeArvrStabilizedRV+0xc0>
 8002acc:	ee67 7a87 	vmul.f32	s15, s15, s14
 8002ad0:	687b      	ldr	r3, [r7, #4]
 8002ad2:	edc3 7a08 	vstr	s15, [r3, #32]
    value->un.arvrStabilizedRV.accuracy = read16(&event->report[12]) * SCALE_Q(12);
 8002ad6:	683b      	ldr	r3, [r7, #0]
 8002ad8:	3316      	adds	r3, #22
 8002ada:	4618      	mov	r0, r3
 8002adc:	f000 f943 	bl	8002d66 <read16>
 8002ae0:	4603      	mov	r3, r0
 8002ae2:	ee07 3a90 	vmov	s15, r3
 8002ae6:	eef8 7ae7 	vcvt.f32.s32	s15, s15
 8002aea:	ed9f 7a07 	vldr	s14, [pc, #28]	@ 8002b08 <decodeArvrStabilizedRV+0xc4>
 8002aee:	ee67 7a87 	vmul.f32	s15, s15, s14
 8002af2:	687b      	ldr	r3, [r7, #4]
 8002af4:	edc3 7a09 	vstr	s15, [r3, #36]	@ 0x24

    return SH2_OK;
 8002af8:	2300      	movs	r3, #0
}
 8002afa:	4618      	mov	r0, r3
 8002afc:	3708      	adds	r7, #8
 8002afe:	46bd      	mov	sp, r7
 8002b00:	bd80      	pop	{r7, pc}
 8002b02:	bf00      	nop
 8002b04:	38800000 	.word	0x38800000
 8002b08:	39800000 	.word	0x39800000

08002b0c <decodeArvrStabilizedGRV>:

static int decodeArvrStabilizedGRV(sh2_SensorValue_t *value, const sh2_SensorEvent_t *event)
{
 8002b0c:	b580      	push	{r7, lr}
 8002b0e:	b082      	sub	sp, #8
 8002b10:	af00      	add	r7, sp, #0
 8002b12:	6078      	str	r0, [r7, #4]
 8002b14:	6039      	str	r1, [r7, #0]
    value->un.arvrStabilizedGRV.i = read16(&event->report[4]) * SCALE_Q(14);
 8002b16:	683b      	ldr	r3, [r7, #0]
 8002b18:	330e      	adds	r3, #14
 8002b1a:	4618      	mov	r0, r3
 8002b1c:	f000 f923 	bl	8002d66 <read16>
 8002b20:	4603      	mov	r3, r0
 8002b22:	ee07 3a90 	vmov	s15, r3
 8002b26:	eef8 7ae7 	vcvt.f32.s32	s15, s15
 8002b2a:	ed9f 7a1f 	vldr	s14, [pc, #124]	@ 8002ba8 <decodeArvrStabilizedGRV+0x9c>
 8002b2e:	ee67 7a87 	vmul.f32	s15, s15, s14
 8002b32:	687b      	ldr	r3, [r7, #4]
 8002b34:	edc3 7a05 	vstr	s15, [r3, #20]
    value->un.arvrStabilizedGRV.j = read16(&event->report[6]) * SCALE_Q(14);
 8002b38:	683b      	ldr	r3, [r7, #0]
 8002b3a:	3310      	adds	r3, #16
 8002b3c:	4618      	mov	r0, r3
 8002b3e:	f000 f912 	bl	8002d66 <read16>
 8002b42:	4603      	mov	r3, r0
 8002b44:	ee07 3a90 	vmov	s15, r3
 8002b48:	eef8 7ae7 	vcvt.f32.s32	s15, s15
 8002b4c:	ed9f 7a16 	vldr	s14, [pc, #88]	@ 8002ba8 <decodeArvrStabilizedGRV+0x9c>
 8002b50:	ee67 7a87 	vmul.f32	s15, s15, s14
 8002b54:	687b      	ldr	r3, [r7, #4]
 8002b56:	edc3 7a06 	vstr	s15, [r3, #24]
    value->un.arvrStabilizedGRV.k = read16(&event->report[8]) * SCALE_Q(14);
 8002b5a:	683b      	ldr	r3, [r7, #0]
 8002b5c:	3312      	adds	r3, #18
 8002b5e:	4618      	mov	r0, r3
 8002b60:	f000 f901 	bl	8002d66 <read16>
 8002b64:	4603      	mov	r3, r0
 8002b66:	ee07 3a90 	vmov	s15, r3
 8002b6a:	eef8 7ae7 	vcvt.f32.s32	s15, s15
 8002b6e:	ed9f 7a0e 	vldr	s14, [pc, #56]	@ 8002ba8 <decodeArvrStabilizedGRV+0x9c>
 8002b72:	ee67 7a87 	vmul.f32	s15, s15, s14
 8002b76:	687b      	ldr	r3, [r7, #4]
 8002b78:	edc3 7a07 	vstr	s15, [r3, #28]
    value->un.arvrStabilizedGRV.real = read16(&event->report[10]) * SCALE_Q(14);
 8002b7c:	683b      	ldr	r3, [r7, #0]
 8002b7e:	3314      	adds	r3, #20
 8002b80:	4618      	mov	r0, r3
 8002b82:	f000 f8f0 	bl	8002d66 <read16>
 8002b86:	4603      	mov	r3, r0
 8002b88:	ee07 3a90 	vmov	s15, r3
 8002b8c:	eef8 7ae7 	vcvt.f32.s32	s15, s15
 8002b90:	ed9f 7a05 	vldr	s14, [pc, #20]	@ 8002ba8 <decodeArvrStabilizedGRV+0x9c>
 8002b94:	ee67 7a87 	vmul.f32	s15, s15, s14
 8002b98:	687b      	ldr	r3, [r7, #4]
 8002b9a:	edc3 7a08 	vstr	s15, [r3, #32]

    return SH2_OK;
 8002b9e:	2300      	movs	r3, #0
}
 8002ba0:	4618      	mov	r0, r3
 8002ba2:	3708      	adds	r7, #8
 8002ba4:	46bd      	mov	sp, r7
 8002ba6:	bd80      	pop	{r7, pc}
 8002ba8:	38800000 	.word	0x38800000

08002bac <decodeGyroIntegratedRV>:

static int decodeGyroIntegratedRV(sh2_SensorValue_t *value, const sh2_SensorEvent_t *event)
{
 8002bac:	b580      	push	{r7, lr}
 8002bae:	b082      	sub	sp, #8
 8002bb0:	af00      	add	r7, sp, #0
 8002bb2:	6078      	str	r0, [r7, #4]
 8002bb4:	6039      	str	r1, [r7, #0]
    value->un.gyroIntegratedRV.i = read16(&event->report[0]) * SCALE_Q(14);
 8002bb6:	683b      	ldr	r3, [r7, #0]
 8002bb8:	330a      	adds	r3, #10
 8002bba:	4618      	mov	r0, r3
 8002bbc:	f000 f8d3 	bl	8002d66 <read16>
 8002bc0:	4603      	mov	r3, r0
 8002bc2:	ee07 3a90 	vmov	s15, r3
 8002bc6:	eef8 7ae7 	vcvt.f32.s32	s15, s15
 8002bca:	ed9f 7a39 	vldr	s14, [pc, #228]	@ 8002cb0 <decodeGyroIntegratedRV+0x104>
 8002bce:	ee67 7a87 	vmul.f32	s15, s15, s14
 8002bd2:	687b      	ldr	r3, [r7, #4]
 8002bd4:	edc3 7a05 	vstr	s15, [r3, #20]
    value->un.gyroIntegratedRV.j = read16(&event->report[2]) * SCALE_Q(14);
 8002bd8:	683b      	ldr	r3, [r7, #0]
 8002bda:	330c      	adds	r3, #12
 8002bdc:	4618      	mov	r0, r3
 8002bde:	f000 f8c2 	bl	8002d66 <read16>
 8002be2:	4603      	mov	r3, r0
 8002be4:	ee07 3a90 	vmov	s15, r3
 8002be8:	eef8 7ae7 	vcvt.f32.s32	s15, s15
 8002bec:	ed9f 7a30 	vldr	s14, [pc, #192]	@ 8002cb0 <decodeGyroIntegratedRV+0x104>
 8002bf0:	ee67 7a87 	vmul.f32	s15, s15, s14
 8002bf4:	687b      	ldr	r3, [r7, #4]
 8002bf6:	edc3 7a06 	vstr	s15, [r3, #24]
    value->un.gyroIntegratedRV.k = read16(&event->report[4]) * SCALE_Q(14);
 8002bfa:	683b      	ldr	r3, [r7, #0]
 8002bfc:	330e      	adds	r3, #14
 8002bfe:	4618      	mov	r0, r3
 8002c00:	f000 f8b1 	bl	8002d66 <read16>
 8002c04:	4603      	mov	r3, r0
 8002c06:	ee07 3a90 	vmov	s15, r3
 8002c0a:	eef8 7ae7 	vcvt.f32.s32	s15, s15
 8002c0e:	ed9f 7a28 	vldr	s14, [pc, #160]	@ 8002cb0 <decodeGyroIntegratedRV+0x104>
 8002c12:	ee67 7a87 	vmul.f32	s15, s15, s14
 8002c16:	687b      	ldr	r3, [r7, #4]
 8002c18:	edc3 7a07 	vstr	s15, [r3, #28]
    value->un.gyroIntegratedRV.real = read16(&event->report[6]) * SCALE_Q(14);
 8002c1c:	683b      	ldr	r3, [r7, #0]
 8002c1e:	3310      	adds	r3, #16
 8002c20:	4618      	mov	r0, r3
 8002c22:	f000 f8a0 	bl	8002d66 <read16>
 8002c26:	4603      	mov	r3, r0
 8002c28:	ee07 3a90 	vmov	s15, r3
 8002c2c:	eef8 7ae7 	vcvt.f32.s32	s15, s15
 8002c30:	ed9f 7a1f 	vldr	s14, [pc, #124]	@ 8002cb0 <decodeGyroIntegratedRV+0x104>
 8002c34:	ee67 7a87 	vmul.f32	s15, s15, s14
 8002c38:	687b      	ldr	r3, [r7, #4]
 8002c3a:	edc3 7a08 	vstr	s15, [r3, #32]
    value->un.gyroIntegratedRV.angVelX = read16(&event->report[8]) * SCALE_Q(10);
 8002c3e:	683b      	ldr	r3, [r7, #0]
 8002c40:	3312      	adds	r3, #18
 8002c42:	4618      	mov	r0, r3
 8002c44:	f000 f88f 	bl	8002d66 <read16>
 8002c48:	4603      	mov	r3, r0
 8002c4a:	ee07 3a90 	vmov	s15, r3
 8002c4e:	eef8 7ae7 	vcvt.f32.s32	s15, s15
 8002c52:	ed9f 7a18 	vldr	s14, [pc, #96]	@ 8002cb4 <decodeGyroIntegratedRV+0x108>
 8002c56:	ee67 7a87 	vmul.f32	s15, s15, s14
 8002c5a:	687b      	ldr	r3, [r7, #4]
 8002c5c:	edc3 7a09 	vstr	s15, [r3, #36]	@ 0x24
    value->un.gyroIntegratedRV.angVelY = read16(&event->report[10]) * SCALE_Q(10);
 8002c60:	683b      	ldr	r3, [r7, #0]
 8002c62:	3314      	adds	r3, #20
 8002c64:	4618      	mov	r0, r3
 8002c66:	f000 f87e 	bl	8002d66 <read16>
 8002c6a:	4603      	mov	r3, r0
 8002c6c:	ee07 3a90 	vmov	s15, r3
 8002c70:	eef8 7ae7 	vcvt.f32.s32	s15, s15
 8002c74:	ed9f 7a0f 	vldr	s14, [pc, #60]	@ 8002cb4 <decodeGyroIntegratedRV+0x108>
 8002c78:	ee67 7a87 	vmul.f32	s15, s15, s14
 8002c7c:	687b      	ldr	r3, [r7, #4]
 8002c7e:	edc3 7a0a 	vstr	s15, [r3, #40]	@ 0x28
    value->un.gyroIntegratedRV.angVelZ = read16(&event->report[12]) * SCALE_Q(10);
 8002c82:	683b      	ldr	r3, [r7, #0]
 8002c84:	3316      	adds	r3, #22
 8002c86:	4618      	mov	r0, r3
 8002c88:	f000 f86d 	bl	8002d66 <read16>
 8002c8c:	4603      	mov	r3, r0
 8002c8e:	ee07 3a90 	vmov	s15, r3
 8002c92:	eef8 7ae7 	vcvt.f32.s32	s15, s15
 8002c96:	ed9f 7a07 	vldr	s14, [pc, #28]	@ 8002cb4 <decodeGyroIntegratedRV+0x108>
 8002c9a:	ee67 7a87 	vmul.f32	s15, s15, s14
 8002c9e:	687b      	ldr	r3, [r7, #4]
 8002ca0:	edc3 7a0b 	vstr	s15, [r3, #44]	@ 0x2c

    return SH2_OK;
 8002ca4:	2300      	movs	r3, #0
}
 8002ca6:	4618      	mov	r0, r3
 8002ca8:	3708      	adds	r7, #8
 8002caa:	46bd      	mov	sp, r7
 8002cac:	bd80      	pop	{r7, pc}
 8002cae:	bf00      	nop
 8002cb0:	38800000 	.word	0x38800000
 8002cb4:	3a800000 	.word	0x3a800000

08002cb8 <decodeIZroRequest>:

static int decodeIZroRequest(sh2_SensorValue_t *value, const sh2_SensorEvent_t *event)
{
 8002cb8:	b480      	push	{r7}
 8002cba:	b083      	sub	sp, #12
 8002cbc:	af00      	add	r7, sp, #0
 8002cbe:	6078      	str	r0, [r7, #4]
 8002cc0:	6039      	str	r1, [r7, #0]
    value->un.izroRequest.intent = (sh2_IZroMotionIntent_t)event->report[4];
 8002cc2:	683b      	ldr	r3, [r7, #0]
 8002cc4:	7b9a      	ldrb	r2, [r3, #14]
 8002cc6:	687b      	ldr	r3, [r7, #4]
 8002cc8:	751a      	strb	r2, [r3, #20]
    value->un.izroRequest.request = (sh2_IZroMotionRequest_t)event->report[5];
 8002cca:	683b      	ldr	r3, [r7, #0]
 8002ccc:	7bda      	ldrb	r2, [r3, #15]
 8002cce:	687b      	ldr	r3, [r7, #4]
 8002cd0:	755a      	strb	r2, [r3, #21]

    return SH2_OK;
 8002cd2:	2300      	movs	r3, #0
}
 8002cd4:	4618      	mov	r0, r3
 8002cd6:	370c      	adds	r7, #12
 8002cd8:	46bd      	mov	sp, r7
 8002cda:	f85d 7b04 	ldr.w	r7, [sp], #4
 8002cde:	4770      	bx	lr

08002ce0 <readu8>:
 */

#include "sh2_util.h"

uint8_t readu8(const uint8_t *p)
{
 8002ce0:	b480      	push	{r7}
 8002ce2:	b085      	sub	sp, #20
 8002ce4:	af00      	add	r7, sp, #0
 8002ce6:	6078      	str	r0, [r7, #4]
    uint8_t retval = p[0];
 8002ce8:	687b      	ldr	r3, [r7, #4]
 8002cea:	781b      	ldrb	r3, [r3, #0]
 8002cec:	73fb      	strb	r3, [r7, #15]
    return retval;
 8002cee:	7bfb      	ldrb	r3, [r7, #15]
}
 8002cf0:	4618      	mov	r0, r3
 8002cf2:	3714      	adds	r7, #20
 8002cf4:	46bd      	mov	sp, r7
 8002cf6:	f85d 7b04 	ldr.w	r7, [sp], #4
 8002cfa:	4770      	bx	lr

08002cfc <readu16>:
{
    *p = (uint8_t)(value & 0xFF);
}

uint16_t readu16(const uint8_t *p)
{
 8002cfc:	b480      	push	{r7}
 8002cfe:	b085      	sub	sp, #20
 8002d00:	af00      	add	r7, sp, #0
 8002d02:	6078      	str	r0, [r7, #4]
    uint16_t retval = p[0] | (p[1] << 8);
 8002d04:	687b      	ldr	r3, [r7, #4]
 8002d06:	781b      	ldrb	r3, [r3, #0]
 8002d08:	b21a      	sxth	r2, r3
 8002d0a:	687b      	ldr	r3, [r7, #4]
 8002d0c:	3301      	adds	r3, #1
 8002d0e:	781b      	ldrb	r3, [r3, #0]
 8002d10:	b21b      	sxth	r3, r3
 8002d12:	021b      	lsls	r3, r3, #8
 8002d14:	b21b      	sxth	r3, r3
 8002d16:	4313      	orrs	r3, r2
 8002d18:	b21b      	sxth	r3, r3
 8002d1a:	81fb      	strh	r3, [r7, #14]
    return retval;
 8002d1c:	89fb      	ldrh	r3, [r7, #14]
}
 8002d1e:	4618      	mov	r0, r3
 8002d20:	3714      	adds	r7, #20
 8002d22:	46bd      	mov	sp, r7
 8002d24:	f85d 7b04 	ldr.w	r7, [sp], #4
 8002d28:	4770      	bx	lr

08002d2a <readu32>:
    value >>= 8;
    *p = (uint8_t)(value & 0xFF);
}

uint32_t readu32(const uint8_t *p)
{
 8002d2a:	b480      	push	{r7}
 8002d2c:	b085      	sub	sp, #20
 8002d2e:	af00      	add	r7, sp, #0
 8002d30:	6078      	str	r0, [r7, #4]
    uint32_t retval = p[0] | (p[1] << 8) | (p[2] << 16) | (p[3] << 24);
 8002d32:	687b      	ldr	r3, [r7, #4]
 8002d34:	781b      	ldrb	r3, [r3, #0]
 8002d36:	461a      	mov	r2, r3
 8002d38:	687b      	ldr	r3, [r7, #4]
 8002d3a:	3301      	adds	r3, #1
 8002d3c:	781b      	ldrb	r3, [r3, #0]
 8002d3e:	021b      	lsls	r3, r3, #8
 8002d40:	431a      	orrs	r2, r3
 8002d42:	687b      	ldr	r3, [r7, #4]
 8002d44:	3302      	adds	r3, #2
 8002d46:	781b      	ldrb	r3, [r3, #0]
 8002d48:	041b      	lsls	r3, r3, #16
 8002d4a:	431a      	orrs	r2, r3
 8002d4c:	687b      	ldr	r3, [r7, #4]
 8002d4e:	3303      	adds	r3, #3
 8002d50:	781b      	ldrb	r3, [r3, #0]
 8002d52:	061b      	lsls	r3, r3, #24
 8002d54:	4313      	orrs	r3, r2
 8002d56:	60fb      	str	r3, [r7, #12]
    return retval;
 8002d58:	68fb      	ldr	r3, [r7, #12]
}
 8002d5a:	4618      	mov	r0, r3
 8002d5c:	3714      	adds	r7, #20
 8002d5e:	46bd      	mov	sp, r7
 8002d60:	f85d 7b04 	ldr.w	r7, [sp], #4
 8002d64:	4770      	bx	lr

08002d66 <read16>:
{
    *p = (uint8_t)(value & 0xFF);
}

int16_t read16(const uint8_t *p)
{
 8002d66:	b480      	push	{r7}
 8002d68:	b085      	sub	sp, #20
 8002d6a:	af00      	add	r7, sp, #0
 8002d6c:	6078      	str	r0, [r7, #4]
    int16_t retval = p[0] | (p[1] << 8);
 8002d6e:	687b      	ldr	r3, [r7, #4]
 8002d70:	781b      	ldrb	r3, [r3, #0]
 8002d72:	b21a      	sxth	r2, r3
 8002d74:	687b      	ldr	r3, [r7, #4]
 8002d76:	3301      	adds	r3, #1
 8002d78:	781b      	ldrb	r3, [r3, #0]
 8002d7a:	b21b      	sxth	r3, r3
 8002d7c:	021b      	lsls	r3, r3, #8
 8002d7e:	b21b      	sxth	r3, r3
 8002d80:	4313      	orrs	r3, r2
 8002d82:	81fb      	strh	r3, [r7, #14]
    return retval;
 8002d84:	f9b7 300e 	ldrsh.w	r3, [r7, #14]
}
 8002d88:	4618      	mov	r0, r3
 8002d8a:	3714      	adds	r7, #20
 8002d8c:	46bd      	mov	sp, r7
 8002d8e:	f85d 7b04 	ldr.w	r7, [sp], #4
 8002d92:	4770      	bx	lr

08002d94 <read32>:
    value >>= 8;
    *p = (uint8_t)(value & 0xFF);
}

int32_t read32(const uint8_t *p)
{
 8002d94:	b480      	push	{r7}
 8002d96:	b085      	sub	sp, #20
 8002d98:	af00      	add	r7, sp, #0
 8002d9a:	6078      	str	r0, [r7, #4]
    int32_t retval = p[0] | (p[1] << 8) | (p[2] << 16) | (p[3] << 24);
 8002d9c:	687b      	ldr	r3, [r7, #4]
 8002d9e:	781b      	ldrb	r3, [r3, #0]
 8002da0:	461a      	mov	r2, r3
 8002da2:	687b      	ldr	r3, [r7, #4]
 8002da4:	3301      	adds	r3, #1
 8002da6:	781b      	ldrb	r3, [r3, #0]
 8002da8:	021b      	lsls	r3, r3, #8
 8002daa:	431a      	orrs	r2, r3
 8002dac:	687b      	ldr	r3, [r7, #4]
 8002dae:	3302      	adds	r3, #2
 8002db0:	781b      	ldrb	r3, [r3, #0]
 8002db2:	041b      	lsls	r3, r3, #16
 8002db4:	431a      	orrs	r2, r3
 8002db6:	687b      	ldr	r3, [r7, #4]
 8002db8:	3303      	adds	r3, #3
 8002dba:	781b      	ldrb	r3, [r3, #0]
 8002dbc:	061b      	lsls	r3, r3, #24
 8002dbe:	4313      	orrs	r3, r2
 8002dc0:	60fb      	str	r3, [r7, #12]
    return retval;
 8002dc2:	68fb      	ldr	r3, [r7, #12]
}
 8002dc4:	4618      	mov	r0, r3
 8002dc6:	3714      	adds	r7, #20
 8002dc8:	46bd      	mov	sp, r7
 8002dca:	f85d 7b04 	ldr.w	r7, [sp], #4
 8002dce:	4770      	bx	lr

08002dd0 <shtp_init>:

// ------------------------------------------------------------------------
// Private functions

static void shtp_init(void)
{
 8002dd0:	b580      	push	{r7, lr}
 8002dd2:	af00      	add	r7, sp, #0
    // clear instance memory.
    // In particular, this clears the pHal pointers which are used
    // to determine if an instance is open and in-use.
    memset(instances, 0, sizeof(instances));
 8002dd4:	f640 0234 	movw	r2, #2100	@ 0x834
 8002dd8:	2100      	movs	r1, #0
 8002dda:	4804      	ldr	r0, [pc, #16]	@ (8002dec <shtp_init+0x1c>)
 8002ddc:	f004 f9ad 	bl	800713a <memset>

    // Set the initialized flag so this doesn't happen again.
    shtp_initialized = true;
 8002de0:	4b03      	ldr	r3, [pc, #12]	@ (8002df0 <shtp_init+0x20>)
 8002de2:	2201      	movs	r2, #1
 8002de4:	701a      	strb	r2, [r3, #0]
}
 8002de6:	bf00      	nop
 8002de8:	bd80      	pop	{r7, pc}
 8002dea:	bf00      	nop
 8002dec:	2000065c 	.word	0x2000065c
 8002df0:	20000e90 	.word	0x20000e90

08002df4 <getInstance>:

static shtp_t *getInstance(void)
{
 8002df4:	b480      	push	{r7}
 8002df6:	b083      	sub	sp, #12
 8002df8:	af00      	add	r7, sp, #0
    for (int n = 0; n < MAX_INSTANCES; n++) {
 8002dfa:	2300      	movs	r3, #0
 8002dfc:	607b      	str	r3, [r7, #4]
 8002dfe:	e014      	b.n	8002e2a <getInstance+0x36>
        if (instances[n].pHal == 0) {
 8002e00:	4a0f      	ldr	r2, [pc, #60]	@ (8002e40 <getInstance+0x4c>)
 8002e02:	687b      	ldr	r3, [r7, #4]
 8002e04:	f640 0134 	movw	r1, #2100	@ 0x834
 8002e08:	fb01 f303 	mul.w	r3, r1, r3
 8002e0c:	4413      	add	r3, r2
 8002e0e:	681b      	ldr	r3, [r3, #0]
 8002e10:	2b00      	cmp	r3, #0
 8002e12:	d107      	bne.n	8002e24 <getInstance+0x30>
            // This instance is free
            return &instances[n];
 8002e14:	687b      	ldr	r3, [r7, #4]
 8002e16:	f640 0234 	movw	r2, #2100	@ 0x834
 8002e1a:	fb02 f303 	mul.w	r3, r2, r3
 8002e1e:	4a08      	ldr	r2, [pc, #32]	@ (8002e40 <getInstance+0x4c>)
 8002e20:	4413      	add	r3, r2
 8002e22:	e006      	b.n	8002e32 <getInstance+0x3e>
    for (int n = 0; n < MAX_INSTANCES; n++) {
 8002e24:	687b      	ldr	r3, [r7, #4]
 8002e26:	3301      	adds	r3, #1
 8002e28:	607b      	str	r3, [r7, #4]
 8002e2a:	687b      	ldr	r3, [r7, #4]
 8002e2c:	2b00      	cmp	r3, #0
 8002e2e:	dde7      	ble.n	8002e00 <getInstance+0xc>
        }
    }

    // Can't give an instance, none are free
    return 0;
 8002e30:	2300      	movs	r3, #0
}
 8002e32:	4618      	mov	r0, r3
 8002e34:	370c      	adds	r7, #12
 8002e36:	46bd      	mov	sp, r7
 8002e38:	f85d 7b04 	ldr.w	r7, [sp], #4
 8002e3c:	4770      	bx	lr
 8002e3e:	bf00      	nop
 8002e40:	2000065c 	.word	0x2000065c

08002e44 <addAdvertListener>:

// Register a listener for an app (advertisement listener)
static void addAdvertListener(shtp_t *pShtp, uint16_t guid,
                              shtp_AdvertCallback_t *callback, void * cookie)
{
 8002e44:	b480      	push	{r7}
 8002e46:	b087      	sub	sp, #28
 8002e48:	af00      	add	r7, sp, #0
 8002e4a:	60f8      	str	r0, [r7, #12]
 8002e4c:	607a      	str	r2, [r7, #4]
 8002e4e:	603b      	str	r3, [r7, #0]
 8002e50:	460b      	mov	r3, r1
 8002e52:	817b      	strh	r3, [r7, #10]
    shtp_AppListener_t *pAppListener = 0;
 8002e54:	2300      	movs	r3, #0
 8002e56:	617b      	str	r3, [r7, #20]

    // Bail out if no space for more apps
    if (pShtp->nextAppListener >= SH2_MAX_APPS) return;
 8002e58:	68fb      	ldr	r3, [r7, #12]
 8002e5a:	f893 34dd 	ldrb.w	r3, [r3, #1245]	@ 0x4dd
 8002e5e:	2b04      	cmp	r3, #4
 8002e60:	d81e      	bhi.n	8002ea0 <addAdvertListener+0x5c>

    // Register this app
    pAppListener = &pShtp->appListener[pShtp->nextAppListener];
 8002e62:	68fb      	ldr	r3, [r7, #12]
 8002e64:	f893 34dd 	ldrb.w	r3, [r3, #1245]	@ 0x4dd
 8002e68:	461a      	mov	r2, r3
 8002e6a:	4613      	mov	r3, r2
 8002e6c:	005b      	lsls	r3, r3, #1
 8002e6e:	4413      	add	r3, r2
 8002e70:	009b      	lsls	r3, r3, #2
 8002e72:	f503 639c 	add.w	r3, r3, #1248	@ 0x4e0
 8002e76:	68fa      	ldr	r2, [r7, #12]
 8002e78:	4413      	add	r3, r2
 8002e7a:	617b      	str	r3, [r7, #20]
    pShtp->nextAppListener++;
 8002e7c:	68fb      	ldr	r3, [r7, #12]
 8002e7e:	f893 34dd 	ldrb.w	r3, [r3, #1245]	@ 0x4dd
 8002e82:	3301      	adds	r3, #1
 8002e84:	b2da      	uxtb	r2, r3
 8002e86:	68fb      	ldr	r3, [r7, #12]
 8002e88:	f883 24dd 	strb.w	r2, [r3, #1245]	@ 0x4dd
    pAppListener->guid = guid;
 8002e8c:	697b      	ldr	r3, [r7, #20]
 8002e8e:	897a      	ldrh	r2, [r7, #10]
 8002e90:	801a      	strh	r2, [r3, #0]
    pAppListener->callback = callback;
 8002e92:	697b      	ldr	r3, [r7, #20]
 8002e94:	687a      	ldr	r2, [r7, #4]
 8002e96:	605a      	str	r2, [r3, #4]
    pAppListener->cookie = cookie;
 8002e98:	697b      	ldr	r3, [r7, #20]
 8002e9a:	683a      	ldr	r2, [r7, #0]
 8002e9c:	609a      	str	r2, [r3, #8]
 8002e9e:	e000      	b.n	8002ea2 <addAdvertListener+0x5e>
    if (pShtp->nextAppListener >= SH2_MAX_APPS) return;
 8002ea0:	bf00      	nop
}
 8002ea2:	371c      	adds	r7, #28
 8002ea4:	46bd      	mov	sp, r7
 8002ea6:	f85d 7b04 	ldr.w	r7, [sp], #4
 8002eaa:	4770      	bx	lr

08002eac <updateCallbacks>:

// Try to match registered listeners with their channels.
// This is performed every time the underlying Channel, App, Listener data structures are updated.
// As a result, channel number to callback association is fast when receiving packets
static void updateCallbacks(shtp_t *pShtp)
{
 8002eac:	b580      	push	{r7, lr}
 8002eae:	b086      	sub	sp, #24
 8002eb0:	af00      	add	r7, sp, #0
 8002eb2:	6078      	str	r0, [r7, #4]
    //   Channel -> (GUID, Chan name).
    //   GUID -> App name.
    //   (App name, Chan name) -> Callback

    uint32_t guid;
    const char * chanName = 0;
 8002eb4:	2300      	movs	r3, #0
 8002eb6:	60fb      	str	r3, [r7, #12]
    
    for (int chanNo = 0; chanNo < SH2_MAX_CHANS; chanNo++) {
 8002eb8:	2300      	movs	r3, #0
 8002eba:	617b      	str	r3, [r7, #20]
 8002ebc:	e084      	b.n	8002fc8 <updateCallbacks+0x11c>
        // Reset callback for this channel until we find the right one.
        pShtp->chan[chanNo].callback = 0;
 8002ebe:	687a      	ldr	r2, [r7, #4]
 8002ec0:	697b      	ldr	r3, [r7, #20]
 8002ec2:	2134      	movs	r1, #52	@ 0x34
 8002ec4:	fb01 f303 	mul.w	r3, r1, r3
 8002ec8:	4413      	add	r3, r2
 8002eca:	f503 63a9 	add.w	r3, r3, #1352	@ 0x548
 8002ece:	2200      	movs	r2, #0
 8002ed0:	601a      	str	r2, [r3, #0]
            
        if (pShtp->chan[chanNo].guid == 0xFFFFFFFF) {
 8002ed2:	687a      	ldr	r2, [r7, #4]
 8002ed4:	697b      	ldr	r3, [r7, #20]
 8002ed6:	2134      	movs	r1, #52	@ 0x34
 8002ed8:	fb01 f303 	mul.w	r3, r1, r3
 8002edc:	4413      	add	r3, r2
 8002ede:	f503 63a4 	add.w	r3, r3, #1312	@ 0x520
 8002ee2:	681b      	ldr	r3, [r3, #0]
 8002ee4:	f1b3 3fff 	cmp.w	r3, #4294967295	@ 0xffffffff
 8002ee8:	d06a      	beq.n	8002fc0 <updateCallbacks+0x114>
            // This channel entry not used.
            continue;
        }

        // Get GUID and Channel Name for this channel
        guid = pShtp->chan[chanNo].guid;
 8002eea:	687a      	ldr	r2, [r7, #4]
 8002eec:	697b      	ldr	r3, [r7, #20]
 8002eee:	2134      	movs	r1, #52	@ 0x34
 8002ef0:	fb01 f303 	mul.w	r3, r1, r3
 8002ef4:	4413      	add	r3, r2
 8002ef6:	f503 63a4 	add.w	r3, r3, #1312	@ 0x520
 8002efa:	681b      	ldr	r3, [r3, #0]
 8002efc:	60bb      	str	r3, [r7, #8]
        chanName = pShtp->chan[chanNo].chanName;
 8002efe:	697b      	ldr	r3, [r7, #20]
 8002f00:	2234      	movs	r2, #52	@ 0x34
 8002f02:	fb02 f303 	mul.w	r3, r2, r3
 8002f06:	f503 63a4 	add.w	r3, r3, #1312	@ 0x520
 8002f0a:	687a      	ldr	r2, [r7, #4]
 8002f0c:	4413      	add	r3, r2
 8002f0e:	3304      	adds	r3, #4
 8002f10:	60fb      	str	r3, [r7, #12]

        // Look for a listener registered with this guid, channel name
        for (int listenerNo = 0; listenerNo < SH2_MAX_CHANS; listenerNo++)
 8002f12:	2300      	movs	r3, #0
 8002f14:	613b      	str	r3, [r7, #16]
 8002f16:	e04f      	b.n	8002fb8 <updateCallbacks+0x10c>
        {
            if ((pShtp->chanListener[listenerNo].callback != 0) &&
 8002f18:	687a      	ldr	r2, [r7, #4]
 8002f1a:	693b      	ldr	r3, [r7, #16]
 8002f1c:	212c      	movs	r1, #44	@ 0x2c
 8002f1e:	fb01 f303 	mul.w	r3, r1, r3
 8002f22:	4413      	add	r3, r2
 8002f24:	f503 63dc 	add.w	r3, r3, #1760	@ 0x6e0
 8002f28:	681b      	ldr	r3, [r3, #0]
 8002f2a:	2b00      	cmp	r3, #0
 8002f2c:	d041      	beq.n	8002fb2 <updateCallbacks+0x106>
                (pShtp->chanListener[listenerNo].guid == guid) &&
 8002f2e:	687a      	ldr	r2, [r7, #4]
 8002f30:	693b      	ldr	r3, [r7, #16]
 8002f32:	212c      	movs	r1, #44	@ 0x2c
 8002f34:	fb01 f303 	mul.w	r3, r1, r3
 8002f38:	4413      	add	r3, r2
 8002f3a:	f203 63bc 	addw	r3, r3, #1724	@ 0x6bc
 8002f3e:	881b      	ldrh	r3, [r3, #0]
 8002f40:	461a      	mov	r2, r3
            if ((pShtp->chanListener[listenerNo].callback != 0) &&
 8002f42:	68bb      	ldr	r3, [r7, #8]
 8002f44:	4293      	cmp	r3, r2
 8002f46:	d134      	bne.n	8002fb2 <updateCallbacks+0x106>
                (strcmp(chanName, pShtp->chanListener[listenerNo].chanName) == 0))
 8002f48:	693b      	ldr	r3, [r7, #16]
 8002f4a:	222c      	movs	r2, #44	@ 0x2c
 8002f4c:	fb02 f303 	mul.w	r3, r2, r3
 8002f50:	f503 63d7 	add.w	r3, r3, #1720	@ 0x6b8
 8002f54:	687a      	ldr	r2, [r7, #4]
 8002f56:	4413      	add	r3, r2
 8002f58:	3306      	adds	r3, #6
 8002f5a:	4619      	mov	r1, r3
 8002f5c:	68f8      	ldr	r0, [r7, #12]
 8002f5e:	f7fd f95b 	bl	8000218 <strcmp>
 8002f62:	4603      	mov	r3, r0
                (pShtp->chanListener[listenerNo].guid == guid) &&
 8002f64:	2b00      	cmp	r3, #0
 8002f66:	d124      	bne.n	8002fb2 <updateCallbacks+0x106>
            {
            
                // This listener is the one for this channel
                pShtp->chan[chanNo].callback = pShtp->chanListener[listenerNo].callback;
 8002f68:	687a      	ldr	r2, [r7, #4]
 8002f6a:	693b      	ldr	r3, [r7, #16]
 8002f6c:	212c      	movs	r1, #44	@ 0x2c
 8002f6e:	fb01 f303 	mul.w	r3, r1, r3
 8002f72:	4413      	add	r3, r2
 8002f74:	f503 63dc 	add.w	r3, r3, #1760	@ 0x6e0
 8002f78:	681a      	ldr	r2, [r3, #0]
 8002f7a:	6879      	ldr	r1, [r7, #4]
 8002f7c:	697b      	ldr	r3, [r7, #20]
 8002f7e:	2034      	movs	r0, #52	@ 0x34
 8002f80:	fb00 f303 	mul.w	r3, r0, r3
 8002f84:	440b      	add	r3, r1
 8002f86:	f503 63a9 	add.w	r3, r3, #1352	@ 0x548
 8002f8a:	601a      	str	r2, [r3, #0]
                pShtp->chan[chanNo].cookie = pShtp->chanListener[listenerNo].cookie;
 8002f8c:	687a      	ldr	r2, [r7, #4]
 8002f8e:	693b      	ldr	r3, [r7, #16]
 8002f90:	212c      	movs	r1, #44	@ 0x2c
 8002f92:	fb01 f303 	mul.w	r3, r1, r3
 8002f96:	4413      	add	r3, r2
 8002f98:	f203 63e4 	addw	r3, r3, #1764	@ 0x6e4
 8002f9c:	681a      	ldr	r2, [r3, #0]
 8002f9e:	6879      	ldr	r1, [r7, #4]
 8002fa0:	697b      	ldr	r3, [r7, #20]
 8002fa2:	2034      	movs	r0, #52	@ 0x34
 8002fa4:	fb00 f303 	mul.w	r3, r0, r3
 8002fa8:	440b      	add	r3, r1
 8002faa:	f203 534c 	addw	r3, r3, #1356	@ 0x54c
 8002fae:	601a      	str	r2, [r3, #0]
                break;
 8002fb0:	e007      	b.n	8002fc2 <updateCallbacks+0x116>
        for (int listenerNo = 0; listenerNo < SH2_MAX_CHANS; listenerNo++)
 8002fb2:	693b      	ldr	r3, [r7, #16]
 8002fb4:	3301      	adds	r3, #1
 8002fb6:	613b      	str	r3, [r7, #16]
 8002fb8:	693b      	ldr	r3, [r7, #16]
 8002fba:	2b07      	cmp	r3, #7
 8002fbc:	ddac      	ble.n	8002f18 <updateCallbacks+0x6c>
 8002fbe:	e000      	b.n	8002fc2 <updateCallbacks+0x116>
            continue;
 8002fc0:	bf00      	nop
    for (int chanNo = 0; chanNo < SH2_MAX_CHANS; chanNo++) {
 8002fc2:	697b      	ldr	r3, [r7, #20]
 8002fc4:	3301      	adds	r3, #1
 8002fc6:	617b      	str	r3, [r7, #20]
 8002fc8:	697b      	ldr	r3, [r7, #20]
 8002fca:	2b07      	cmp	r3, #7
 8002fcc:	f77f af77 	ble.w	8002ebe <updateCallbacks+0x12>
            }
        }
    }
}
 8002fd0:	bf00      	nop
 8002fd2:	bf00      	nop
 8002fd4:	3718      	adds	r7, #24
 8002fd6:	46bd      	mov	sp, r7
 8002fd8:	bd80      	pop	{r7, pc}

08002fda <addChanListener>:

// Register a new channel listener
static int addChanListener(shtp_t *pShtp,
                           uint16_t guid, const char * chanName,
                           shtp_Callback_t *callback, void *cookie)
{
 8002fda:	b580      	push	{r7, lr}
 8002fdc:	b086      	sub	sp, #24
 8002fde:	af00      	add	r7, sp, #0
 8002fe0:	60f8      	str	r0, [r7, #12]
 8002fe2:	607a      	str	r2, [r7, #4]
 8002fe4:	603b      	str	r3, [r7, #0]
 8002fe6:	460b      	mov	r3, r1
 8002fe8:	817b      	strh	r3, [r7, #10]
    shtp_ChanListener_t *pListener = 0;
 8002fea:	2300      	movs	r3, #0
 8002fec:	617b      	str	r3, [r7, #20]

    // Bail out if there are too many listeners registered
    if (pShtp->nextChanListener >= SH2_MAX_CHANS) return SH2_ERR;
 8002fee:	68fb      	ldr	r3, [r7, #12]
 8002ff0:	f893 381c 	ldrb.w	r3, [r3, #2076]	@ 0x81c
 8002ff4:	2b07      	cmp	r3, #7
 8002ff6:	d902      	bls.n	8002ffe <addChanListener+0x24>
 8002ff8:	f04f 33ff 	mov.w	r3, #4294967295	@ 0xffffffff
 8002ffc:	e027      	b.n	800304e <addChanListener+0x74>

    // Register channel listener
    pListener = &pShtp->chanListener[pShtp->nextChanListener];
 8002ffe:	68fb      	ldr	r3, [r7, #12]
 8003000:	f893 381c 	ldrb.w	r3, [r3, #2076]	@ 0x81c
 8003004:	461a      	mov	r2, r3
 8003006:	232c      	movs	r3, #44	@ 0x2c
 8003008:	fb02 f303 	mul.w	r3, r2, r3
 800300c:	f503 63d7 	add.w	r3, r3, #1720	@ 0x6b8
 8003010:	68fa      	ldr	r2, [r7, #12]
 8003012:	4413      	add	r3, r2
 8003014:	3304      	adds	r3, #4
 8003016:	617b      	str	r3, [r7, #20]
    pShtp->nextChanListener++;
 8003018:	68fb      	ldr	r3, [r7, #12]
 800301a:	f893 381c 	ldrb.w	r3, [r3, #2076]	@ 0x81c
 800301e:	3301      	adds	r3, #1
 8003020:	b2da      	uxtb	r2, r3
 8003022:	68fb      	ldr	r3, [r7, #12]
 8003024:	f883 281c 	strb.w	r2, [r3, #2076]	@ 0x81c
    pListener->guid = guid;
 8003028:	697b      	ldr	r3, [r7, #20]
 800302a:	897a      	ldrh	r2, [r7, #10]
 800302c:	801a      	strh	r2, [r3, #0]
    strcpy(pListener->chanName, chanName);
 800302e:	697b      	ldr	r3, [r7, #20]
 8003030:	3302      	adds	r3, #2
 8003032:	6879      	ldr	r1, [r7, #4]
 8003034:	4618      	mov	r0, r3
 8003036:	f004 f8b3 	bl	80071a0 <strcpy>
    pListener->callback = callback;
 800303a:	697b      	ldr	r3, [r7, #20]
 800303c:	683a      	ldr	r2, [r7, #0]
 800303e:	625a      	str	r2, [r3, #36]	@ 0x24
    pListener->cookie = cookie;
 8003040:	697b      	ldr	r3, [r7, #20]
 8003042:	6a3a      	ldr	r2, [r7, #32]
 8003044:	629a      	str	r2, [r3, #40]	@ 0x28

    // re-evaluate channel callbacks
    updateCallbacks(pShtp);
 8003046:	68f8      	ldr	r0, [r7, #12]
 8003048:	f7ff ff30 	bl	8002eac <updateCallbacks>

    return SH2_OK;
 800304c:	2300      	movs	r3, #0
}
 800304e:	4618      	mov	r0, r3
 8003050:	3718      	adds	r7, #24
 8003052:	46bd      	mov	sp, r7
 8003054:	bd80      	pop	{r7, pc}

08003056 <min_u16>:

static inline uint16_t min_u16(uint16_t a, uint16_t b)
{
 8003056:	b480      	push	{r7}
 8003058:	b083      	sub	sp, #12
 800305a:	af00      	add	r7, sp, #0
 800305c:	4603      	mov	r3, r0
 800305e:	460a      	mov	r2, r1
 8003060:	80fb      	strh	r3, [r7, #6]
 8003062:	4613      	mov	r3, r2
 8003064:	80bb      	strh	r3, [r7, #4]
    if (a < b) {
 8003066:	88fa      	ldrh	r2, [r7, #6]
 8003068:	88bb      	ldrh	r3, [r7, #4]
 800306a:	429a      	cmp	r2, r3
 800306c:	d201      	bcs.n	8003072 <min_u16+0x1c>
        return a;
 800306e:	88fb      	ldrh	r3, [r7, #6]
 8003070:	e000      	b.n	8003074 <min_u16+0x1e>
    }
    else {
        return b;
 8003072:	88bb      	ldrh	r3, [r7, #4]
    }
}
 8003074:	4618      	mov	r0, r3
 8003076:	370c      	adds	r7, #12
 8003078:	46bd      	mov	sp, r7
 800307a:	f85d 7b04 	ldr.w	r7, [sp], #4
 800307e:	4770      	bx	lr

08003080 <txProcess>:

// Send a cargo as a sequence of transports
static int txProcess(shtp_t *pShtp, uint8_t chan, const uint8_t* pData, uint32_t len)
{
 8003080:	b590      	push	{r4, r7, lr}
 8003082:	b089      	sub	sp, #36	@ 0x24
 8003084:	af00      	add	r7, sp, #0
 8003086:	60f8      	str	r0, [r7, #12]
 8003088:	607a      	str	r2, [r7, #4]
 800308a:	603b      	str	r3, [r7, #0]
 800308c:	460b      	mov	r3, r1
 800308e:	72fb      	strb	r3, [r7, #11]
    int status = SH2_OK;
 8003090:	2300      	movs	r3, #0
 8003092:	61fb      	str	r3, [r7, #28]
    
    bool continuation = false;
 8003094:	2300      	movs	r3, #0
 8003096:	76fb      	strb	r3, [r7, #27]
    uint16_t cursor = 0;
 8003098:	2300      	movs	r3, #0
 800309a:	833b      	strh	r3, [r7, #24]
    uint16_t remaining;
    uint16_t transferLen;  // length of transfer, minus the header
    uint16_t lenField;

    cursor = 0;
 800309c:	2300      	movs	r3, #0
 800309e:	833b      	strh	r3, [r7, #24]
    remaining = len;
 80030a0:	683b      	ldr	r3, [r7, #0]
 80030a2:	82fb      	strh	r3, [r7, #22]
    while (remaining > 0) {
 80030a4:	e077      	b.n	8003196 <txProcess+0x116>
        // How much data (not header) can we send in next transfer
        transferLen = min_u16(remaining, pShtp->outMaxTransfer-SHTP_HDR_LEN);
 80030a6:	68fb      	ldr	r3, [r7, #12]
 80030a8:	8adb      	ldrh	r3, [r3, #22]
 80030aa:	3b04      	subs	r3, #4
 80030ac:	b29a      	uxth	r2, r3
 80030ae:	8afb      	ldrh	r3, [r7, #22]
 80030b0:	4611      	mov	r1, r2
 80030b2:	4618      	mov	r0, r3
 80030b4:	f7ff ffcf 	bl	8003056 <min_u16>
 80030b8:	4603      	mov	r3, r0
 80030ba:	82bb      	strh	r3, [r7, #20]
        
        // Length field will be transferLen + SHTP_HDR_LEN
        lenField = transferLen + SHTP_HDR_LEN;
 80030bc:	8abb      	ldrh	r3, [r7, #20]
 80030be:	3304      	adds	r3, #4
 80030c0:	827b      	strh	r3, [r7, #18]

        // Put the header in the out buffer
        pShtp->outTransfer[0] = lenField & 0xFF;
 80030c2:	8a7b      	ldrh	r3, [r7, #18]
 80030c4:	b2da      	uxtb	r2, r3
 80030c6:	68fb      	ldr	r3, [r7, #12]
 80030c8:	761a      	strb	r2, [r3, #24]
        pShtp->outTransfer[1] = (lenField >> 8) & 0xFF;
 80030ca:	8a7b      	ldrh	r3, [r7, #18]
 80030cc:	0a1b      	lsrs	r3, r3, #8
 80030ce:	b29b      	uxth	r3, r3
 80030d0:	b2da      	uxtb	r2, r3
 80030d2:	68fb      	ldr	r3, [r7, #12]
 80030d4:	765a      	strb	r2, [r3, #25]
        if (continuation) {
 80030d6:	7efb      	ldrb	r3, [r7, #27]
 80030d8:	2b00      	cmp	r3, #0
 80030da:	d006      	beq.n	80030ea <txProcess+0x6a>
            pShtp->outTransfer[1] |= 0x80;
 80030dc:	68fb      	ldr	r3, [r7, #12]
 80030de:	7e5b      	ldrb	r3, [r3, #25]
 80030e0:	f063 037f 	orn	r3, r3, #127	@ 0x7f
 80030e4:	b2da      	uxtb	r2, r3
 80030e6:	68fb      	ldr	r3, [r7, #12]
 80030e8:	765a      	strb	r2, [r3, #25]
        }
        pShtp->outTransfer[2] = chan;
 80030ea:	68fb      	ldr	r3, [r7, #12]
 80030ec:	7afa      	ldrb	r2, [r7, #11]
 80030ee:	769a      	strb	r2, [r3, #26]
        pShtp->outTransfer[3] = pShtp->chan[chan].nextOutSeq++;
 80030f0:	7afb      	ldrb	r3, [r7, #11]
 80030f2:	68f9      	ldr	r1, [r7, #12]
 80030f4:	2234      	movs	r2, #52	@ 0x34
 80030f6:	fb03 f202 	mul.w	r2, r3, r2
 80030fa:	440a      	add	r2, r1
 80030fc:	f202 521c 	addw	r2, r2, #1308	@ 0x51c
 8003100:	7812      	ldrb	r2, [r2, #0]
 8003102:	1c51      	adds	r1, r2, #1
 8003104:	b2cc      	uxtb	r4, r1
 8003106:	68f9      	ldr	r1, [r7, #12]
 8003108:	2034      	movs	r0, #52	@ 0x34
 800310a:	fb00 f303 	mul.w	r3, r0, r3
 800310e:	440b      	add	r3, r1
 8003110:	f203 531c 	addw	r3, r3, #1308	@ 0x51c
 8003114:	4621      	mov	r1, r4
 8003116:	7019      	strb	r1, [r3, #0]
 8003118:	68fb      	ldr	r3, [r7, #12]
 800311a:	76da      	strb	r2, [r3, #27]

        // Stage one tranfer in the out buffer
        memcpy(pShtp->outTransfer+SHTP_HDR_LEN, pData+cursor, transferLen);
 800311c:	68fb      	ldr	r3, [r7, #12]
 800311e:	3318      	adds	r3, #24
 8003120:	1d18      	adds	r0, r3, #4
 8003122:	8b3b      	ldrh	r3, [r7, #24]
 8003124:	687a      	ldr	r2, [r7, #4]
 8003126:	4413      	add	r3, r2
 8003128:	8aba      	ldrh	r2, [r7, #20]
 800312a:	4619      	mov	r1, r3
 800312c:	f004 f840 	bl	80071b0 <memcpy>
        remaining -= transferLen;
 8003130:	8afa      	ldrh	r2, [r7, #22]
 8003132:	8abb      	ldrh	r3, [r7, #20]
 8003134:	1ad3      	subs	r3, r2, r3
 8003136:	82fb      	strh	r3, [r7, #22]
        cursor += transferLen;
 8003138:	8b3a      	ldrh	r2, [r7, #24]
 800313a:	8abb      	ldrh	r3, [r7, #20]
 800313c:	4413      	add	r3, r2
 800313e:	833b      	strh	r3, [r7, #24]

        // Transmit (try repeatedly while HAL write returns 0)
        status = pShtp->pHal->write(pShtp->pHal, pShtp->outTransfer, lenField);
 8003140:	68fb      	ldr	r3, [r7, #12]
 8003142:	681b      	ldr	r3, [r3, #0]
 8003144:	68db      	ldr	r3, [r3, #12]
 8003146:	68fa      	ldr	r2, [r7, #12]
 8003148:	6810      	ldr	r0, [r2, #0]
 800314a:	68fa      	ldr	r2, [r7, #12]
 800314c:	f102 0118 	add.w	r1, r2, #24
 8003150:	8a7a      	ldrh	r2, [r7, #18]
 8003152:	4798      	blx	r3
 8003154:	61f8      	str	r0, [r7, #28]
        while (status == 0)
 8003156:	e00d      	b.n	8003174 <txProcess+0xf4>
        {
            shtp_service(pShtp);
 8003158:	68f8      	ldr	r0, [r7, #12]
 800315a:	f000 fd19 	bl	8003b90 <shtp_service>
            status = pShtp->pHal->write(pShtp->pHal, pShtp->outTransfer, lenField);
 800315e:	68fb      	ldr	r3, [r7, #12]
 8003160:	681b      	ldr	r3, [r3, #0]
 8003162:	68db      	ldr	r3, [r3, #12]
 8003164:	68fa      	ldr	r2, [r7, #12]
 8003166:	6810      	ldr	r0, [r2, #0]
 8003168:	68fa      	ldr	r2, [r7, #12]
 800316a:	f102 0118 	add.w	r1, r2, #24
 800316e:	8a7a      	ldrh	r2, [r7, #18]
 8003170:	4798      	blx	r3
 8003172:	61f8      	str	r0, [r7, #28]
        while (status == 0)
 8003174:	69fb      	ldr	r3, [r7, #28]
 8003176:	2b00      	cmp	r3, #0
 8003178:	d0ee      	beq.n	8003158 <txProcess+0xd8>
        }
        
        if (status < 0)
 800317a:	69fb      	ldr	r3, [r7, #28]
 800317c:	2b00      	cmp	r3, #0
 800317e:	da08      	bge.n	8003192 <txProcess+0x112>
        {
            // Error, throw away this cargo
            pShtp->txDiscards++;
 8003180:	68fb      	ldr	r3, [r7, #12]
 8003182:	f8d3 3820 	ldr.w	r3, [r3, #2080]	@ 0x820
 8003186:	1c5a      	adds	r2, r3, #1
 8003188:	68fb      	ldr	r3, [r7, #12]
 800318a:	f8c3 2820 	str.w	r2, [r3, #2080]	@ 0x820
            return status;
 800318e:	69fb      	ldr	r3, [r7, #28]
 8003190:	e005      	b.n	800319e <txProcess+0x11e>
        }

        // For the rest of this transmission, packets are continuations.
        continuation = true;
 8003192:	2301      	movs	r3, #1
 8003194:	76fb      	strb	r3, [r7, #27]
    while (remaining > 0) {
 8003196:	8afb      	ldrh	r3, [r7, #22]
 8003198:	2b00      	cmp	r3, #0
 800319a:	d184      	bne.n	80030a6 <txProcess+0x26>
    }

    return SH2_OK;
 800319c:	2300      	movs	r3, #0
}
 800319e:	4618      	mov	r0, r3
 80031a0:	3724      	adds	r7, #36	@ 0x24
 80031a2:	46bd      	mov	sp, r7
 80031a4:	bd90      	pop	{r4, r7, pc}

080031a6 <shtpAdvertHdlr>:

// Callback for SHTP app-specific advertisement tags
static void shtpAdvertHdlr(void *cookie, uint8_t tag, uint8_t len, uint8_t *val)
{
 80031a6:	b580      	push	{r7, lr}
 80031a8:	b086      	sub	sp, #24
 80031aa:	af00      	add	r7, sp, #0
 80031ac:	60f8      	str	r0, [r7, #12]
 80031ae:	607b      	str	r3, [r7, #4]
 80031b0:	460b      	mov	r3, r1
 80031b2:	72fb      	strb	r3, [r7, #11]
 80031b4:	4613      	mov	r3, r2
 80031b6:	72bb      	strb	r3, [r7, #10]
    shtp_t *pShtp = (shtp_t *)cookie;
 80031b8:	68fb      	ldr	r3, [r7, #12]
 80031ba:	617b      	str	r3, [r7, #20]

    switch (tag) {
 80031bc:	7afb      	ldrb	r3, [r7, #11]
 80031be:	2b80      	cmp	r3, #128	@ 0x80
 80031c0:	d10c      	bne.n	80031dc <shtpAdvertHdlr+0x36>
        case TAG_SHTP_VERSION:
            if (strlen((const char *)val) < sizeof(pShtp->shtpVersion)) {
 80031c2:	6878      	ldr	r0, [r7, #4]
 80031c4:	f7fd f832 	bl	800022c <strlen>
 80031c8:	4603      	mov	r3, r0
 80031ca:	2b07      	cmp	r3, #7
 80031cc:	d808      	bhi.n	80031e0 <shtpAdvertHdlr+0x3a>
                strcpy(pShtp->shtpVersion, (const char *)val);
 80031ce:	697b      	ldr	r3, [r7, #20]
 80031d0:	330c      	adds	r3, #12
 80031d2:	6879      	ldr	r1, [r7, #4]
 80031d4:	4618      	mov	r0, r3
 80031d6:	f003 ffe3 	bl	80071a0 <strcpy>
            }
            break;
 80031da:	e001      	b.n	80031e0 <shtpAdvertHdlr+0x3a>
        default:
            break;
 80031dc:	bf00      	nop
 80031de:	e000      	b.n	80031e2 <shtpAdvertHdlr+0x3c>
            break;
 80031e0:	bf00      	nop
    }
}
 80031e2:	bf00      	nop
 80031e4:	3718      	adds	r7, #24
 80031e6:	46bd      	mov	sp, r7
 80031e8:	bd80      	pop	{r7, pc}

080031ea <addApp>:

// Add one to the set of known Apps
static void addApp(shtp_t *pShtp, uint32_t guid)
{
 80031ea:	b580      	push	{r7, lr}
 80031ec:	b084      	sub	sp, #16
 80031ee:	af00      	add	r7, sp, #0
 80031f0:	6078      	str	r0, [r7, #4]
 80031f2:	6039      	str	r1, [r7, #0]
    shtp_App_t *pApp = 0;
 80031f4:	2300      	movs	r3, #0
 80031f6:	60bb      	str	r3, [r7, #8]

    // Bail out if this GUID is already registered
    for (int n = 0; n < pShtp->nextApp; n++) {
 80031f8:	2300      	movs	r3, #0
 80031fa:	60fb      	str	r3, [r7, #12]
 80031fc:	e00f      	b.n	800321e <addApp+0x34>
        if (pShtp->app[n].guid == guid) return;
 80031fe:	6879      	ldr	r1, [r7, #4]
 8003200:	68fa      	ldr	r2, [r7, #12]
 8003202:	4613      	mov	r3, r2
 8003204:	00db      	lsls	r3, r3, #3
 8003206:	4413      	add	r3, r2
 8003208:	009b      	lsls	r3, r3, #2
 800320a:	440b      	add	r3, r1
 800320c:	f503 6385 	add.w	r3, r3, #1064	@ 0x428
 8003210:	681b      	ldr	r3, [r3, #0]
 8003212:	683a      	ldr	r2, [r7, #0]
 8003214:	429a      	cmp	r2, r3
 8003216:	d02e      	beq.n	8003276 <addApp+0x8c>
    for (int n = 0; n < pShtp->nextApp; n++) {
 8003218:	68fb      	ldr	r3, [r7, #12]
 800321a:	3301      	adds	r3, #1
 800321c:	60fb      	str	r3, [r7, #12]
 800321e:	687b      	ldr	r3, [r7, #4]
 8003220:	f893 34dc 	ldrb.w	r3, [r3, #1244]	@ 0x4dc
 8003224:	461a      	mov	r2, r3
 8003226:	68fb      	ldr	r3, [r7, #12]
 8003228:	4293      	cmp	r3, r2
 800322a:	dbe8      	blt.n	80031fe <addApp+0x14>
    }

    // Bail out if no space for more apps
    if (pShtp->nextApp >= SH2_MAX_APPS) return;
 800322c:	687b      	ldr	r3, [r7, #4]
 800322e:	f893 34dc 	ldrb.w	r3, [r3, #1244]	@ 0x4dc
 8003232:	2b04      	cmp	r3, #4
 8003234:	d821      	bhi.n	800327a <addApp+0x90>

    // Register this app
    pApp = &pShtp->app[pShtp->nextApp];
 8003236:	687b      	ldr	r3, [r7, #4]
 8003238:	f893 34dc 	ldrb.w	r3, [r3, #1244]	@ 0x4dc
 800323c:	461a      	mov	r2, r3
 800323e:	4613      	mov	r3, r2
 8003240:	00db      	lsls	r3, r3, #3
 8003242:	4413      	add	r3, r2
 8003244:	009b      	lsls	r3, r3, #2
 8003246:	f503 6385 	add.w	r3, r3, #1064	@ 0x428
 800324a:	687a      	ldr	r2, [r7, #4]
 800324c:	4413      	add	r3, r2
 800324e:	60bb      	str	r3, [r7, #8]
    pShtp->nextApp++;
 8003250:	687b      	ldr	r3, [r7, #4]
 8003252:	f893 34dc 	ldrb.w	r3, [r3, #1244]	@ 0x4dc
 8003256:	3301      	adds	r3, #1
 8003258:	b2da      	uxtb	r2, r3
 800325a:	687b      	ldr	r3, [r7, #4]
 800325c:	f883 24dc 	strb.w	r2, [r3, #1244]	@ 0x4dc
    pApp->guid = guid;
 8003260:	68bb      	ldr	r3, [r7, #8]
 8003262:	683a      	ldr	r2, [r7, #0]
 8003264:	601a      	str	r2, [r3, #0]
    strcpy(pApp->appName, "");
 8003266:	68bb      	ldr	r3, [r7, #8]
 8003268:	3304      	adds	r3, #4
 800326a:	2200      	movs	r2, #0
 800326c:	701a      	strb	r2, [r3, #0]

    // Re-evaluate channel callbacks
    updateCallbacks(pShtp);
 800326e:	6878      	ldr	r0, [r7, #4]
 8003270:	f7ff fe1c 	bl	8002eac <updateCallbacks>
 8003274:	e002      	b.n	800327c <addApp+0x92>
        if (pShtp->app[n].guid == guid) return;
 8003276:	bf00      	nop
 8003278:	e000      	b.n	800327c <addApp+0x92>
    if (pShtp->nextApp >= SH2_MAX_APPS) return;
 800327a:	bf00      	nop
}
 800327c:	3710      	adds	r7, #16
 800327e:	46bd      	mov	sp, r7
 8003280:	bd80      	pop	{r7, pc}

08003282 <setAppName>:

static void setAppName(shtp_t *pShtp, uint32_t guid, const char * appName)
{
 8003282:	b580      	push	{r7, lr}
 8003284:	b086      	sub	sp, #24
 8003286:	af00      	add	r7, sp, #0
 8003288:	60f8      	str	r0, [r7, #12]
 800328a:	60b9      	str	r1, [r7, #8]
 800328c:	607a      	str	r2, [r7, #4]
    shtp_App_t *pApp = 0;
 800328e:	2300      	movs	r3, #0
 8003290:	613b      	str	r3, [r7, #16]
    
    // Find the app entry with this GUID
    for (unsigned n = 0; n < pShtp->nextApp; n++) {
 8003292:	2300      	movs	r3, #0
 8003294:	617b      	str	r3, [r7, #20]
 8003296:	e020      	b.n	80032da <setAppName+0x58>
        if (pShtp->app[n].guid == guid) {
 8003298:	68f9      	ldr	r1, [r7, #12]
 800329a:	697a      	ldr	r2, [r7, #20]
 800329c:	4613      	mov	r3, r2
 800329e:	00db      	lsls	r3, r3, #3
 80032a0:	4413      	add	r3, r2
 80032a2:	009b      	lsls	r3, r3, #2
 80032a4:	440b      	add	r3, r1
 80032a6:	f503 6385 	add.w	r3, r3, #1064	@ 0x428
 80032aa:	681b      	ldr	r3, [r3, #0]
 80032ac:	68ba      	ldr	r2, [r7, #8]
 80032ae:	429a      	cmp	r2, r3
 80032b0:	d110      	bne.n	80032d4 <setAppName+0x52>
            pApp = &pShtp->app[n];
 80032b2:	697a      	ldr	r2, [r7, #20]
 80032b4:	4613      	mov	r3, r2
 80032b6:	00db      	lsls	r3, r3, #3
 80032b8:	4413      	add	r3, r2
 80032ba:	009b      	lsls	r3, r3, #2
 80032bc:	f503 6385 	add.w	r3, r3, #1064	@ 0x428
 80032c0:	68fa      	ldr	r2, [r7, #12]
 80032c2:	4413      	add	r3, r2
 80032c4:	613b      	str	r3, [r7, #16]
            strcpy(pApp->appName, appName);
 80032c6:	693b      	ldr	r3, [r7, #16]
 80032c8:	3304      	adds	r3, #4
 80032ca:	6879      	ldr	r1, [r7, #4]
 80032cc:	4618      	mov	r0, r3
 80032ce:	f003 ff67 	bl	80071a0 <strcpy>
            return;
 80032d2:	e009      	b.n	80032e8 <setAppName+0x66>
    for (unsigned n = 0; n < pShtp->nextApp; n++) {
 80032d4:	697b      	ldr	r3, [r7, #20]
 80032d6:	3301      	adds	r3, #1
 80032d8:	617b      	str	r3, [r7, #20]
 80032da:	68fb      	ldr	r3, [r7, #12]
 80032dc:	f893 34dc 	ldrb.w	r3, [r3, #1244]	@ 0x4dc
 80032e0:	461a      	mov	r2, r3
 80032e2:	697b      	ldr	r3, [r7, #20]
 80032e4:	4293      	cmp	r3, r2
 80032e6:	d3d7      	bcc.n	8003298 <setAppName+0x16>
        }
    }
}
 80032e8:	3718      	adds	r7, #24
 80032ea:	46bd      	mov	sp, r7
 80032ec:	bd80      	pop	{r7, pc}

080032ee <addChannel>:

// Add one to the set of known channels
static void addChannel(shtp_t *pShtp, uint8_t chanNo, uint32_t guid, const char * chanName, bool wake)
{
 80032ee:	b580      	push	{r7, lr}
 80032f0:	b086      	sub	sp, #24
 80032f2:	af00      	add	r7, sp, #0
 80032f4:	60f8      	str	r0, [r7, #12]
 80032f6:	607a      	str	r2, [r7, #4]
 80032f8:	603b      	str	r3, [r7, #0]
 80032fa:	460b      	mov	r3, r1
 80032fc:	72fb      	strb	r3, [r7, #11]
    if (chanNo >= SH2_MAX_CHANS) return;
 80032fe:	7afb      	ldrb	r3, [r7, #11]
 8003300:	2b07      	cmp	r3, #7
 8003302:	d827      	bhi.n	8003354 <addChannel+0x66>

    shtp_Channel_t * pChan = &pShtp->chan[chanNo];
 8003304:	7afb      	ldrb	r3, [r7, #11]
 8003306:	2234      	movs	r2, #52	@ 0x34
 8003308:	fb02 f303 	mul.w	r3, r2, r3
 800330c:	f503 63a3 	add.w	r3, r3, #1304	@ 0x518
 8003310:	68fa      	ldr	r2, [r7, #12]
 8003312:	4413      	add	r3, r2
 8003314:	3304      	adds	r3, #4
 8003316:	617b      	str	r3, [r7, #20]

    // Store channel definition
    pChan->guid = guid;
 8003318:	697b      	ldr	r3, [r7, #20]
 800331a:	687a      	ldr	r2, [r7, #4]
 800331c:	605a      	str	r2, [r3, #4]
    strcpy(pChan->chanName, chanName);
 800331e:	697b      	ldr	r3, [r7, #20]
 8003320:	3308      	adds	r3, #8
 8003322:	6839      	ldr	r1, [r7, #0]
 8003324:	4618      	mov	r0, r3
 8003326:	f003 ff3b 	bl	80071a0 <strcpy>
    pChan->wake = wake;
 800332a:	697b      	ldr	r3, [r7, #20]
 800332c:	f897 2020 	ldrb.w	r2, [r7, #32]
 8003330:	f883 2028 	strb.w	r2, [r3, #40]	@ 0x28

    // Init channel-associated data
    pChan->nextOutSeq = 0;
 8003334:	697b      	ldr	r3, [r7, #20]
 8003336:	2200      	movs	r2, #0
 8003338:	701a      	strb	r2, [r3, #0]
    pChan->nextInSeq = 0;
 800333a:	697b      	ldr	r3, [r7, #20]
 800333c:	2200      	movs	r2, #0
 800333e:	705a      	strb	r2, [r3, #1]
    pChan->callback = 0;
 8003340:	697b      	ldr	r3, [r7, #20]
 8003342:	2200      	movs	r2, #0
 8003344:	62da      	str	r2, [r3, #44]	@ 0x2c
    pChan->cookie = 0;
 8003346:	697b      	ldr	r3, [r7, #20]
 8003348:	2200      	movs	r2, #0
 800334a:	631a      	str	r2, [r3, #48]	@ 0x30

    // Re-evaluate channel callbacks
    updateCallbacks(pShtp);
 800334c:	68f8      	ldr	r0, [r7, #12]
 800334e:	f7ff fdad 	bl	8002eac <updateCallbacks>
 8003352:	e000      	b.n	8003356 <addChannel+0x68>
    if (chanNo >= SH2_MAX_CHANS) return;
 8003354:	bf00      	nop
}
 8003356:	3718      	adds	r7, #24
 8003358:	46bd      	mov	sp, r7
 800335a:	bd80      	pop	{r7, pc}

0800335c <callAdvertHandler>:

static void callAdvertHandler(shtp_t *pShtp, uint32_t guid,
                              uint8_t tag, uint8_t len, uint8_t *val)
{
 800335c:	b590      	push	{r4, r7, lr}
 800335e:	b087      	sub	sp, #28
 8003360:	af00      	add	r7, sp, #0
 8003362:	60f8      	str	r0, [r7, #12]
 8003364:	60b9      	str	r1, [r7, #8]
 8003366:	4611      	mov	r1, r2
 8003368:	461a      	mov	r2, r3
 800336a:	460b      	mov	r3, r1
 800336c:	71fb      	strb	r3, [r7, #7]
 800336e:	4613      	mov	r3, r2
 8003370:	71bb      	strb	r3, [r7, #6]
    // Find listener for this app
    for (int n = 0; n < SH2_MAX_APPS; n++)
 8003372:	2300      	movs	r3, #0
 8003374:	617b      	str	r3, [r7, #20]
 8003376:	e035      	b.n	80033e4 <callAdvertHandler+0x88>
    {
        if (pShtp->appListener[n].guid == guid) {
 8003378:	68f9      	ldr	r1, [r7, #12]
 800337a:	697a      	ldr	r2, [r7, #20]
 800337c:	4613      	mov	r3, r2
 800337e:	005b      	lsls	r3, r3, #1
 8003380:	4413      	add	r3, r2
 8003382:	009b      	lsls	r3, r3, #2
 8003384:	440b      	add	r3, r1
 8003386:	f503 639c 	add.w	r3, r3, #1248	@ 0x4e0
 800338a:	881b      	ldrh	r3, [r3, #0]
 800338c:	461a      	mov	r2, r3
 800338e:	68bb      	ldr	r3, [r7, #8]
 8003390:	4293      	cmp	r3, r2
 8003392:	d124      	bne.n	80033de <callAdvertHandler+0x82>
            // Found matching App entry
            if (pShtp->appListener[n].callback != 0) {
 8003394:	68f9      	ldr	r1, [r7, #12]
 8003396:	697a      	ldr	r2, [r7, #20]
 8003398:	4613      	mov	r3, r2
 800339a:	005b      	lsls	r3, r3, #1
 800339c:	4413      	add	r3, r2
 800339e:	009b      	lsls	r3, r3, #2
 80033a0:	440b      	add	r3, r1
 80033a2:	f203 43e4 	addw	r3, r3, #1252	@ 0x4e4
 80033a6:	681b      	ldr	r3, [r3, #0]
 80033a8:	2b00      	cmp	r3, #0
 80033aa:	d018      	beq.n	80033de <callAdvertHandler+0x82>
                pShtp->appListener[n].callback(pShtp->appListener[n].cookie, tag, len, val);
 80033ac:	68f9      	ldr	r1, [r7, #12]
 80033ae:	697a      	ldr	r2, [r7, #20]
 80033b0:	4613      	mov	r3, r2
 80033b2:	005b      	lsls	r3, r3, #1
 80033b4:	4413      	add	r3, r2
 80033b6:	009b      	lsls	r3, r3, #2
 80033b8:	440b      	add	r3, r1
 80033ba:	f203 43e4 	addw	r3, r3, #1252	@ 0x4e4
 80033be:	681c      	ldr	r4, [r3, #0]
 80033c0:	68f9      	ldr	r1, [r7, #12]
 80033c2:	697a      	ldr	r2, [r7, #20]
 80033c4:	4613      	mov	r3, r2
 80033c6:	005b      	lsls	r3, r3, #1
 80033c8:	4413      	add	r3, r2
 80033ca:	009b      	lsls	r3, r3, #2
 80033cc:	440b      	add	r3, r1
 80033ce:	f503 639d 	add.w	r3, r3, #1256	@ 0x4e8
 80033d2:	6818      	ldr	r0, [r3, #0]
 80033d4:	79ba      	ldrb	r2, [r7, #6]
 80033d6:	79f9      	ldrb	r1, [r7, #7]
 80033d8:	6abb      	ldr	r3, [r7, #40]	@ 0x28
 80033da:	47a0      	blx	r4
                return;
 80033dc:	e005      	b.n	80033ea <callAdvertHandler+0x8e>
    for (int n = 0; n < SH2_MAX_APPS; n++)
 80033de:	697b      	ldr	r3, [r7, #20]
 80033e0:	3301      	adds	r3, #1
 80033e2:	617b      	str	r3, [r7, #20]
 80033e4:	697b      	ldr	r3, [r7, #20]
 80033e6:	2b04      	cmp	r3, #4
 80033e8:	ddc6      	ble.n	8003378 <callAdvertHandler+0x1c>
            }
        }
    }
}
 80033ea:	371c      	adds	r7, #28
 80033ec:	46bd      	mov	sp, r7
 80033ee:	bd90      	pop	{r4, r7, pc}

080033f0 <processAdvertisement>:

static void processAdvertisement(shtp_t *pShtp, uint8_t *payload, uint16_t payloadLen)
{
 80033f0:	b580      	push	{r7, lr}
 80033f2:	b09c      	sub	sp, #112	@ 0x70
 80033f4:	af02      	add	r7, sp, #8
 80033f6:	60f8      	str	r0, [r7, #12]
 80033f8:	60b9      	str	r1, [r7, #8]
 80033fa:	4613      	mov	r3, r2
 80033fc:	80fb      	strh	r3, [r7, #6]
    uint16_t x;
    uint8_t tag;
    uint8_t len;
    uint8_t *val;
    uint16_t cursor = 1;
 80033fe:	2301      	movs	r3, #1
 8003400:	f8a7 3066 	strh.w	r3, [r7, #102]	@ 0x66
    uint32_t guid = 0;
 8003404:	2300      	movs	r3, #0
 8003406:	663b      	str	r3, [r7, #96]	@ 0x60
    char appName[SHTP_APP_NAME_LEN];
    char chanName[SHTP_CHAN_NAME_LEN];
    uint8_t chanNo = 0;
 8003408:	2300      	movs	r3, #0
 800340a:	f887 305f 	strb.w	r3, [r7, #95]	@ 0x5f
    bool wake = false;
 800340e:	2300      	movs	r3, #0
 8003410:	f887 305e 	strb.w	r3, [r7, #94]	@ 0x5e

    strcpy(appName, "");
 8003414:	2300      	movs	r3, #0
 8003416:	f887 3034 	strb.w	r3, [r7, #52]	@ 0x34
    strcpy(chanName, "");
 800341a:	2300      	movs	r3, #0
 800341c:	753b      	strb	r3, [r7, #20]

    pShtp->advertPhase = ADVERT_IDLE;
 800341e:	68fb      	ldr	r3, [r7, #12]
 8003420:	2202      	movs	r2, #2
 8003422:	f883 2424 	strb.w	r2, [r3, #1060]	@ 0x424
        
    while (cursor < payloadLen) {
 8003426:	e107      	b.n	8003638 <processAdvertisement+0x248>
        tag = payload[cursor++];
 8003428:	f8b7 3066 	ldrh.w	r3, [r7, #102]	@ 0x66
 800342c:	1c5a      	adds	r2, r3, #1
 800342e:	f8a7 2066 	strh.w	r2, [r7, #102]	@ 0x66
 8003432:	461a      	mov	r2, r3
 8003434:	68bb      	ldr	r3, [r7, #8]
 8003436:	4413      	add	r3, r2
 8003438:	781b      	ldrb	r3, [r3, #0]
 800343a:	f887 305d 	strb.w	r3, [r7, #93]	@ 0x5d
        len = payload[cursor++];
 800343e:	f8b7 3066 	ldrh.w	r3, [r7, #102]	@ 0x66
 8003442:	1c5a      	adds	r2, r3, #1
 8003444:	f8a7 2066 	strh.w	r2, [r7, #102]	@ 0x66
 8003448:	461a      	mov	r2, r3
 800344a:	68bb      	ldr	r3, [r7, #8]
 800344c:	4413      	add	r3, r2
 800344e:	781b      	ldrb	r3, [r3, #0]
 8003450:	f887 305c 	strb.w	r3, [r7, #92]	@ 0x5c
        val = payload+cursor;
 8003454:	f8b7 3066 	ldrh.w	r3, [r7, #102]	@ 0x66
 8003458:	68ba      	ldr	r2, [r7, #8]
 800345a:	4413      	add	r3, r2
 800345c:	65bb      	str	r3, [r7, #88]	@ 0x58
        cursor += len;
 800345e:	f897 305c 	ldrb.w	r3, [r7, #92]	@ 0x5c
 8003462:	b29a      	uxth	r2, r3
 8003464:	f8b7 3066 	ldrh.w	r3, [r7, #102]	@ 0x66
 8003468:	4413      	add	r3, r2
 800346a:	f8a7 3066 	strh.w	r3, [r7, #102]	@ 0x66

        // Process tag
        switch (tag) {
 800346e:	f897 305d 	ldrb.w	r3, [r7, #93]	@ 0x5d
 8003472:	2b0a      	cmp	r3, #10
 8003474:	f200 80ce 	bhi.w	8003614 <processAdvertisement+0x224>
 8003478:	a201      	add	r2, pc, #4	@ (adr r2, 8003480 <processAdvertisement+0x90>)
 800347a:	f852 f023 	ldr.w	pc, [r2, r3, lsl #2]
 800347e:	bf00      	nop
 8003480:	08003615 	.word	0x08003615
 8003484:	080034ad 	.word	0x080034ad
 8003488:	080034d9 	.word	0x080034d9
 800348c:	080034fb 	.word	0x080034fb
 8003490:	0800350b 	.word	0x0800350b
 8003494:	08003535 	.word	0x08003535
 8003498:	08003559 	.word	0x08003559
 800349c:	0800356d 	.word	0x0800356d
 80034a0:	08003581 	.word	0x08003581
 80034a4:	0800359d 	.word	0x0800359d
 80034a8:	08003615 	.word	0x08003615
            case TAG_NULL:
                // Reserved value, not a valid tag.
                break;
            case TAG_GUID:
                // A new GUID is being established so terminate advertisement process with earlier app, if any.
                callAdvertHandler(pShtp, guid, TAG_NULL, 0, 0);
 80034ac:	2300      	movs	r3, #0
 80034ae:	9300      	str	r3, [sp, #0]
 80034b0:	2300      	movs	r3, #0
 80034b2:	2200      	movs	r2, #0
 80034b4:	6e39      	ldr	r1, [r7, #96]	@ 0x60
 80034b6:	68f8      	ldr	r0, [r7, #12]
 80034b8:	f7ff ff50 	bl	800335c <callAdvertHandler>
                
                guid = readu32(val);
 80034bc:	6db8      	ldr	r0, [r7, #88]	@ 0x58
 80034be:	f7ff fc34 	bl	8002d2a <readu32>
 80034c2:	6638      	str	r0, [r7, #96]	@ 0x60
                addApp(pShtp, guid);
 80034c4:	6e39      	ldr	r1, [r7, #96]	@ 0x60
 80034c6:	68f8      	ldr	r0, [r7, #12]
 80034c8:	f7ff fe8f 	bl	80031ea <addApp>
            
                strcpy(appName, "");
 80034cc:	2300      	movs	r3, #0
 80034ce:	f887 3034 	strb.w	r3, [r7, #52]	@ 0x34
                strcpy(chanName, "");
 80034d2:	2300      	movs	r3, #0
 80034d4:	753b      	strb	r3, [r7, #20]
                break;
 80034d6:	e0a4      	b.n	8003622 <processAdvertisement+0x232>
            case TAG_MAX_CARGO_PLUS_HEADER_WRITE:
                x = readu16(val) - SHTP_HDR_LEN;
 80034d8:	6db8      	ldr	r0, [r7, #88]	@ 0x58
 80034da:	f7ff fc0f 	bl	8002cfc <readu16>
 80034de:	4603      	mov	r3, r0
 80034e0:	3b04      	subs	r3, #4
 80034e2:	f8a7 3056 	strh.w	r3, [r7, #86]	@ 0x56
            
                if (x < SH2_HAL_MAX_PAYLOAD_OUT) {
 80034e6:	f8b7 3056 	ldrh.w	r3, [r7, #86]	@ 0x56
 80034ea:	2bff      	cmp	r3, #255	@ 0xff
 80034ec:	f200 8094 	bhi.w	8003618 <processAdvertisement+0x228>
                    pShtp->outMaxPayload = x;
 80034f0:	68fb      	ldr	r3, [r7, #12]
 80034f2:	f8b7 2056 	ldrh.w	r2, [r7, #86]	@ 0x56
 80034f6:	829a      	strh	r2, [r3, #20]
                }
                break;
 80034f8:	e08e      	b.n	8003618 <processAdvertisement+0x228>
            case TAG_MAX_CARGO_PLUS_HEADER_READ:
                x = readu16(val) - SHTP_HDR_LEN;
 80034fa:	6db8      	ldr	r0, [r7, #88]	@ 0x58
 80034fc:	f7ff fbfe 	bl	8002cfc <readu16>
 8003500:	4603      	mov	r3, r0
 8003502:	3b04      	subs	r3, #4
 8003504:	f8a7 3056 	strh.w	r3, [r7, #86]	@ 0x56
                // No need to store this!
                break;
 8003508:	e08b      	b.n	8003622 <processAdvertisement+0x232>
            case TAG_MAX_TRANSFER_WRITE:
                x = readu16(val) - SHTP_HDR_LEN;
 800350a:	6db8      	ldr	r0, [r7, #88]	@ 0x58
 800350c:	f7ff fbf6 	bl	8002cfc <readu16>
 8003510:	4603      	mov	r3, r0
 8003512:	3b04      	subs	r3, #4
 8003514:	f8a7 3056 	strh.w	r3, [r7, #86]	@ 0x56
                if (x < SH2_HAL_MAX_TRANSFER_OUT) {
 8003518:	f8b7 3056 	ldrh.w	r3, [r7, #86]	@ 0x56
 800351c:	2bff      	cmp	r3, #255	@ 0xff
 800351e:	d804      	bhi.n	800352a <processAdvertisement+0x13a>
                    pShtp->outMaxTransfer = x;
 8003520:	68fb      	ldr	r3, [r7, #12]
 8003522:	f8b7 2056 	ldrh.w	r2, [r7, #86]	@ 0x56
 8003526:	82da      	strh	r2, [r3, #22]
                } else {
                    pShtp->outMaxTransfer = SH2_HAL_MAX_TRANSFER_OUT;
                }
                break;
 8003528:	e07b      	b.n	8003622 <processAdvertisement+0x232>
                    pShtp->outMaxTransfer = SH2_HAL_MAX_TRANSFER_OUT;
 800352a:	68fb      	ldr	r3, [r7, #12]
 800352c:	f44f 7280 	mov.w	r2, #256	@ 0x100
 8003530:	82da      	strh	r2, [r3, #22]
                break;
 8003532:	e076      	b.n	8003622 <processAdvertisement+0x232>
            case TAG_MAX_TRANSFER_READ:
                x = readu16(val) - SHTP_HDR_LEN;
 8003534:	6db8      	ldr	r0, [r7, #88]	@ 0x58
 8003536:	f7ff fbe1 	bl	8002cfc <readu16>
 800353a:	4603      	mov	r3, r0
 800353c:	3b04      	subs	r3, #4
 800353e:	f8a7 3056 	strh.w	r3, [r7, #86]	@ 0x56
                if (x < SH2_HAL_MAX_TRANSFER_IN) {
 8003542:	f8b7 3056 	ldrh.w	r3, [r7, #86]	@ 0x56
 8003546:	f5b3 7fc0 	cmp.w	r3, #384	@ 0x180
 800354a:	d267      	bcs.n	800361c <processAdvertisement+0x22c>
                    pShtp->inMaxTransfer = x;
 800354c:	68fb      	ldr	r3, [r7, #12]
 800354e:	f8b7 2056 	ldrh.w	r2, [r7, #86]	@ 0x56
 8003552:	f8a3 2118 	strh.w	r2, [r3, #280]	@ 0x118
                }
                break;
 8003556:	e061      	b.n	800361c <processAdvertisement+0x22c>
            case TAG_NORMAL_CHANNEL:
                chanNo = readu8(val);
 8003558:	6db8      	ldr	r0, [r7, #88]	@ 0x58
 800355a:	f7ff fbc1 	bl	8002ce0 <readu8>
 800355e:	4603      	mov	r3, r0
 8003560:	f887 305f 	strb.w	r3, [r7, #95]	@ 0x5f
                wake = false;
 8003564:	2300      	movs	r3, #0
 8003566:	f887 305e 	strb.w	r3, [r7, #94]	@ 0x5e
                break;
 800356a:	e05a      	b.n	8003622 <processAdvertisement+0x232>
            case TAG_WAKE_CHANNEL:
                chanNo = readu8(val);
 800356c:	6db8      	ldr	r0, [r7, #88]	@ 0x58
 800356e:	f7ff fbb7 	bl	8002ce0 <readu8>
 8003572:	4603      	mov	r3, r0
 8003574:	f887 305f 	strb.w	r3, [r7, #95]	@ 0x5f
                wake = true;
 8003578:	2301      	movs	r3, #1
 800357a:	f887 305e 	strb.w	r3, [r7, #94]	@ 0x5e
                break;
 800357e:	e050      	b.n	8003622 <processAdvertisement+0x232>
            case TAG_APP_NAME:
                strcpy(appName, (const char *)val);
 8003580:	f107 0334 	add.w	r3, r7, #52	@ 0x34
 8003584:	6db9      	ldr	r1, [r7, #88]	@ 0x58
 8003586:	4618      	mov	r0, r3
 8003588:	f003 fe0a 	bl	80071a0 <strcpy>
                setAppName(pShtp, guid, appName);
 800358c:	f107 0334 	add.w	r3, r7, #52	@ 0x34
 8003590:	461a      	mov	r2, r3
 8003592:	6e39      	ldr	r1, [r7, #96]	@ 0x60
 8003594:	68f8      	ldr	r0, [r7, #12]
 8003596:	f7ff fe74 	bl	8003282 <setAppName>
            
                break;
 800359a:	e042      	b.n	8003622 <processAdvertisement+0x232>
            case TAG_CHANNEL_NAME:
                strcpy(chanName, (const char *)val);
 800359c:	f107 0314 	add.w	r3, r7, #20
 80035a0:	6db9      	ldr	r1, [r7, #88]	@ 0x58
 80035a2:	4618      	mov	r0, r3
 80035a4:	f003 fdfc 	bl	80071a0 <strcpy>
                addChannel(pShtp, chanNo, guid, (const char *)val, wake);
 80035a8:	f897 105f 	ldrb.w	r1, [r7, #95]	@ 0x5f
 80035ac:	f897 305e 	ldrb.w	r3, [r7, #94]	@ 0x5e
 80035b0:	9300      	str	r3, [sp, #0]
 80035b2:	6dbb      	ldr	r3, [r7, #88]	@ 0x58
 80035b4:	6e3a      	ldr	r2, [r7, #96]	@ 0x60
 80035b6:	68f8      	ldr	r0, [r7, #12]
 80035b8:	f7ff fe99 	bl	80032ee <addChannel>

                // Store channel metadata
                if (chanNo < SH2_MAX_CHANS) {
 80035bc:	f897 305f 	ldrb.w	r3, [r7, #95]	@ 0x5f
 80035c0:	2b07      	cmp	r3, #7
 80035c2:	d82d      	bhi.n	8003620 <processAdvertisement+0x230>
                    pShtp->chan[chanNo].guid = guid;
 80035c4:	f897 305f 	ldrb.w	r3, [r7, #95]	@ 0x5f
 80035c8:	68fa      	ldr	r2, [r7, #12]
 80035ca:	2134      	movs	r1, #52	@ 0x34
 80035cc:	fb01 f303 	mul.w	r3, r1, r3
 80035d0:	4413      	add	r3, r2
 80035d2:	f503 63a4 	add.w	r3, r3, #1312	@ 0x520
 80035d6:	6e3a      	ldr	r2, [r7, #96]	@ 0x60
 80035d8:	601a      	str	r2, [r3, #0]
                    strcpy(pShtp->chan[chanNo].chanName, chanName);
 80035da:	f897 305f 	ldrb.w	r3, [r7, #95]	@ 0x5f
 80035de:	2234      	movs	r2, #52	@ 0x34
 80035e0:	fb02 f303 	mul.w	r3, r2, r3
 80035e4:	f503 63a4 	add.w	r3, r3, #1312	@ 0x520
 80035e8:	68fa      	ldr	r2, [r7, #12]
 80035ea:	4413      	add	r3, r2
 80035ec:	3304      	adds	r3, #4
 80035ee:	f107 0214 	add.w	r2, r7, #20
 80035f2:	4611      	mov	r1, r2
 80035f4:	4618      	mov	r0, r3
 80035f6:	f003 fdd3 	bl	80071a0 <strcpy>
                    pShtp->chan[chanNo].wake = wake;
 80035fa:	f897 305f 	ldrb.w	r3, [r7, #95]	@ 0x5f
 80035fe:	68fa      	ldr	r2, [r7, #12]
 8003600:	2134      	movs	r1, #52	@ 0x34
 8003602:	fb01 f303 	mul.w	r3, r1, r3
 8003606:	4413      	add	r3, r2
 8003608:	f203 5344 	addw	r3, r3, #1348	@ 0x544
 800360c:	f897 205e 	ldrb.w	r2, [r7, #94]	@ 0x5e
 8003610:	701a      	strb	r2, [r3, #0]
                }
                break;
 8003612:	e005      	b.n	8003620 <processAdvertisement+0x230>
            case TAG_ADV_COUNT:
                // Not yet supported.
                break;
            default:
                // Nothing special needs to be done with this tag.
                break;
 8003614:	bf00      	nop
 8003616:	e004      	b.n	8003622 <processAdvertisement+0x232>
                break;
 8003618:	bf00      	nop
 800361a:	e002      	b.n	8003622 <processAdvertisement+0x232>
                break;
 800361c:	bf00      	nop
 800361e:	e000      	b.n	8003622 <processAdvertisement+0x232>
                break;
 8003620:	bf00      	nop
        }
        
        // Deliver a TLV entry to the app's handler
        callAdvertHandler(pShtp, guid, tag, len, val);
 8003622:	f897 105c 	ldrb.w	r1, [r7, #92]	@ 0x5c
 8003626:	f897 205d 	ldrb.w	r2, [r7, #93]	@ 0x5d
 800362a:	6dbb      	ldr	r3, [r7, #88]	@ 0x58
 800362c:	9300      	str	r3, [sp, #0]
 800362e:	460b      	mov	r3, r1
 8003630:	6e39      	ldr	r1, [r7, #96]	@ 0x60
 8003632:	68f8      	ldr	r0, [r7, #12]
 8003634:	f7ff fe92 	bl	800335c <callAdvertHandler>
    while (cursor < payloadLen) {
 8003638:	f8b7 2066 	ldrh.w	r2, [r7, #102]	@ 0x66
 800363c:	88fb      	ldrh	r3, [r7, #6]
 800363e:	429a      	cmp	r2, r3
 8003640:	f4ff aef2 	bcc.w	8003428 <processAdvertisement+0x38>
    }

    // terminate advertisement process with last app
    callAdvertHandler(pShtp, guid, TAG_NULL, 0, 0);
 8003644:	2300      	movs	r3, #0
 8003646:	9300      	str	r3, [sp, #0]
 8003648:	2300      	movs	r3, #0
 800364a:	2200      	movs	r2, #0
 800364c:	6e39      	ldr	r1, [r7, #96]	@ 0x60
 800364e:	68f8      	ldr	r0, [r7, #12]
 8003650:	f7ff fe84 	bl	800335c <callAdvertHandler>
}
 8003654:	bf00      	nop
 8003656:	3768      	adds	r7, #104	@ 0x68
 8003658:	46bd      	mov	sp, r7
 800365a:	bd80      	pop	{r7, pc}

0800365c <shtpCmdListener>:

// Callback for SHTP command channel
static void shtpCmdListener(void *cookie, uint8_t *payload, uint16_t len, uint32_t timestamp)
{
 800365c:	b580      	push	{r7, lr}
 800365e:	b086      	sub	sp, #24
 8003660:	af00      	add	r7, sp, #0
 8003662:	60f8      	str	r0, [r7, #12]
 8003664:	60b9      	str	r1, [r7, #8]
 8003666:	603b      	str	r3, [r7, #0]
 8003668:	4613      	mov	r3, r2
 800366a:	80fb      	strh	r3, [r7, #6]
    shtp_t *pShtp = (shtp_t *)cookie;
 800366c:	68fb      	ldr	r3, [r7, #12]
 800366e:	617b      	str	r3, [r7, #20]
    
    if ((payload == 0) || (len == 0)) return;
 8003670:	68bb      	ldr	r3, [r7, #8]
 8003672:	2b00      	cmp	r3, #0
 8003674:	d00f      	beq.n	8003696 <shtpCmdListener+0x3a>
 8003676:	88fb      	ldrh	r3, [r7, #6]
 8003678:	2b00      	cmp	r3, #0
 800367a:	d00c      	beq.n	8003696 <shtpCmdListener+0x3a>
    
    uint8_t response = payload[0];
 800367c:	68bb      	ldr	r3, [r7, #8]
 800367e:	781b      	ldrb	r3, [r3, #0]
 8003680:	74fb      	strb	r3, [r7, #19]

    switch (response) {
 8003682:	7cfb      	ldrb	r3, [r7, #19]
 8003684:	2b00      	cmp	r3, #0
 8003686:	d108      	bne.n	800369a <shtpCmdListener+0x3e>
        case RESP_ADVERTISE:
            processAdvertisement(pShtp, payload, len);
 8003688:	88fb      	ldrh	r3, [r7, #6]
 800368a:	461a      	mov	r2, r3
 800368c:	68b9      	ldr	r1, [r7, #8]
 800368e:	6978      	ldr	r0, [r7, #20]
 8003690:	f7ff feae 	bl	80033f0 <processAdvertisement>
            break;
 8003694:	e002      	b.n	800369c <shtpCmdListener+0x40>
    if ((payload == 0) || (len == 0)) return;
 8003696:	bf00      	nop
 8003698:	e000      	b.n	800369c <shtpCmdListener+0x40>
        default:
            // unknown response
            break;
 800369a:	bf00      	nop
    }
}
 800369c:	3718      	adds	r7, #24
 800369e:	46bd      	mov	sp, r7
 80036a0:	bd80      	pop	{r7, pc}

080036a2 <rxAssemble>:

static void rxAssemble(shtp_t *pShtp, uint8_t *in, uint16_t len, uint32_t t_us)
{
 80036a2:	b590      	push	{r4, r7, lr}
 80036a4:	b087      	sub	sp, #28
 80036a6:	af00      	add	r7, sp, #0
 80036a8:	60f8      	str	r0, [r7, #12]
 80036aa:	60b9      	str	r1, [r7, #8]
 80036ac:	603b      	str	r3, [r7, #0]
 80036ae:	4613      	mov	r3, r2
 80036b0:	80fb      	strh	r3, [r7, #6]
    uint16_t payloadLen;
    bool continuation;
    uint8_t chan = 0;
 80036b2:	2300      	movs	r3, #0
 80036b4:	75fb      	strb	r3, [r7, #23]
    uint8_t seq = 0;
 80036b6:	2300      	movs	r3, #0
 80036b8:	75bb      	strb	r3, [r7, #22]

    // discard invalid short fragments
    if (len < SHTP_HDR_LEN) {
 80036ba:	88fb      	ldrh	r3, [r7, #6]
 80036bc:	2b03      	cmp	r3, #3
 80036be:	d807      	bhi.n	80036d0 <rxAssemble+0x2e>
        pShtp->shortFragments++;
 80036c0:	68fb      	ldr	r3, [r7, #12]
 80036c2:	f8d3 3824 	ldr.w	r3, [r3, #2084]	@ 0x824
 80036c6:	1c5a      	adds	r2, r3, #1
 80036c8:	68fb      	ldr	r3, [r7, #12]
 80036ca:	f8c3 2824 	str.w	r2, [r3, #2084]	@ 0x824
        return;
 80036ce:	e0fb      	b.n	80038c8 <rxAssemble+0x226>
    }
    
    // Interpret header fields
    payloadLen = (in[0] + (in[1] << 8)) & (~0x8000);
 80036d0:	68bb      	ldr	r3, [r7, #8]
 80036d2:	781b      	ldrb	r3, [r3, #0]
 80036d4:	461a      	mov	r2, r3
 80036d6:	68bb      	ldr	r3, [r7, #8]
 80036d8:	3301      	adds	r3, #1
 80036da:	781b      	ldrb	r3, [r3, #0]
 80036dc:	021b      	lsls	r3, r3, #8
 80036de:	b29b      	uxth	r3, r3
 80036e0:	4413      	add	r3, r2
 80036e2:	b29b      	uxth	r3, r3
 80036e4:	f3c3 030e 	ubfx	r3, r3, #0, #15
 80036e8:	82bb      	strh	r3, [r7, #20]
    continuation = ((in[1] & 0x80) != 0);
 80036ea:	68bb      	ldr	r3, [r7, #8]
 80036ec:	3301      	adds	r3, #1
 80036ee:	781b      	ldrb	r3, [r3, #0]
 80036f0:	b25b      	sxtb	r3, r3
 80036f2:	b2db      	uxtb	r3, r3
 80036f4:	09db      	lsrs	r3, r3, #7
 80036f6:	74fb      	strb	r3, [r7, #19]
    chan = in[2];
 80036f8:	68bb      	ldr	r3, [r7, #8]
 80036fa:	789b      	ldrb	r3, [r3, #2]
 80036fc:	75fb      	strb	r3, [r7, #23]
    seq = in[3];
 80036fe:	68bb      	ldr	r3, [r7, #8]
 8003700:	78db      	ldrb	r3, [r3, #3]
 8003702:	75bb      	strb	r3, [r7, #22]
    
    if (payloadLen < SHTP_HDR_LEN) {
 8003704:	8abb      	ldrh	r3, [r7, #20]
 8003706:	2b03      	cmp	r3, #3
 8003708:	d813      	bhi.n	8003732 <rxAssemble+0x90>
      pShtp->shortFragments++;
 800370a:	68fb      	ldr	r3, [r7, #12]
 800370c:	f8d3 3824 	ldr.w	r3, [r3, #2084]	@ 0x824
 8003710:	1c5a      	adds	r2, r3, #1
 8003712:	68fb      	ldr	r3, [r7, #12]
 8003714:	f8c3 2824 	str.w	r2, [r3, #2084]	@ 0x824

      if (pShtp->eventCallback) {
 8003718:	68fb      	ldr	r3, [r7, #12]
 800371a:	685b      	ldr	r3, [r3, #4]
 800371c:	2b00      	cmp	r3, #0
 800371e:	f000 80ce 	beq.w	80038be <rxAssemble+0x21c>
          pShtp->eventCallback(pShtp->eventCookie, SHTP_SHORT_FRAGMENT);
 8003722:	68fb      	ldr	r3, [r7, #12]
 8003724:	685b      	ldr	r3, [r3, #4]
 8003726:	68fa      	ldr	r2, [r7, #12]
 8003728:	6892      	ldr	r2, [r2, #8]
 800372a:	2101      	movs	r1, #1
 800372c:	4610      	mov	r0, r2
 800372e:	4798      	blx	r3
      }
      return;
 8003730:	e0c5      	b.n	80038be <rxAssemble+0x21c>
    }
        
    if ((chan >= SH2_MAX_CHANS) ||
 8003732:	7dfb      	ldrb	r3, [r7, #23]
 8003734:	2b07      	cmp	r3, #7
 8003736:	d805      	bhi.n	8003744 <rxAssemble+0xa2>
        (chan >= pShtp->nextChanListener)) {
 8003738:	68fb      	ldr	r3, [r7, #12]
 800373a:	f893 381c 	ldrb.w	r3, [r3, #2076]	@ 0x81c
    if ((chan >= SH2_MAX_CHANS) ||
 800373e:	7dfa      	ldrb	r2, [r7, #23]
 8003740:	429a      	cmp	r2, r3
 8003742:	d313      	bcc.n	800376c <rxAssemble+0xca>
        // Invalid channel id.
        pShtp->badRxChan++;
 8003744:	68fb      	ldr	r3, [r7, #12]
 8003746:	f8d3 382c 	ldr.w	r3, [r3, #2092]	@ 0x82c
 800374a:	1c5a      	adds	r2, r3, #1
 800374c:	68fb      	ldr	r3, [r7, #12]
 800374e:	f8c3 282c 	str.w	r2, [r3, #2092]	@ 0x82c

        if (pShtp->eventCallback) {
 8003752:	68fb      	ldr	r3, [r7, #12]
 8003754:	685b      	ldr	r3, [r3, #4]
 8003756:	2b00      	cmp	r3, #0
 8003758:	f000 80b3 	beq.w	80038c2 <rxAssemble+0x220>
            pShtp->eventCallback(pShtp->eventCookie, SHTP_BAD_RX_CHAN);
 800375c:	68fb      	ldr	r3, [r7, #12]
 800375e:	685b      	ldr	r3, [r3, #4]
 8003760:	68fa      	ldr	r2, [r7, #12]
 8003762:	6892      	ldr	r2, [r2, #8]
 8003764:	2103      	movs	r1, #3
 8003766:	4610      	mov	r0, r2
 8003768:	4798      	blx	r3
        }
        return;
 800376a:	e0aa      	b.n	80038c2 <rxAssemble+0x220>
    }

    // Discard earlier assembly in progress if the received data doesn't match it.
    if (pShtp->inRemaining) {
 800376c:	68fb      	ldr	r3, [r7, #12]
 800376e:	f8b3 311a 	ldrh.w	r3, [r3, #282]	@ 0x11a
 8003772:	2b00      	cmp	r3, #0
 8003774:	d01b      	beq.n	80037ae <rxAssemble+0x10c>
        // Check this against previously received data.
        if (!continuation ||
 8003776:	7cfb      	ldrb	r3, [r7, #19]
 8003778:	f083 0301 	eor.w	r3, r3, #1
 800377c:	b2db      	uxtb	r3, r3
 800377e:	2b00      	cmp	r3, #0
 8003780:	d111      	bne.n	80037a6 <rxAssemble+0x104>
            (chan != pShtp->inChan) ||
 8003782:	68fb      	ldr	r3, [r7, #12]
 8003784:	f893 311c 	ldrb.w	r3, [r3, #284]	@ 0x11c
        if (!continuation ||
 8003788:	7dfa      	ldrb	r2, [r7, #23]
 800378a:	429a      	cmp	r2, r3
 800378c:	d10b      	bne.n	80037a6 <rxAssemble+0x104>
            (seq != pShtp->chan[chan].nextInSeq)) {
 800378e:	7dfb      	ldrb	r3, [r7, #23]
 8003790:	68fa      	ldr	r2, [r7, #12]
 8003792:	2134      	movs	r1, #52	@ 0x34
 8003794:	fb01 f303 	mul.w	r3, r1, r3
 8003798:	4413      	add	r3, r2
 800379a:	f203 531d 	addw	r3, r3, #1309	@ 0x51d
 800379e:	781b      	ldrb	r3, [r3, #0]
            (chan != pShtp->inChan) ||
 80037a0:	7dba      	ldrb	r2, [r7, #22]
 80037a2:	429a      	cmp	r2, r3
 80037a4:	d003      	beq.n	80037ae <rxAssemble+0x10c>
            // This fragment doesn't fit with previous one, discard earlier data
            pShtp->inRemaining = 0;
 80037a6:	68fb      	ldr	r3, [r7, #12]
 80037a8:	2200      	movs	r2, #0
 80037aa:	f8a3 211a 	strh.w	r2, [r3, #282]	@ 0x11a
        }
    }

    if (pShtp->inRemaining == 0) {
 80037ae:	68fb      	ldr	r3, [r7, #12]
 80037b0:	f8b3 311a 	ldrh.w	r3, [r3, #282]	@ 0x11a
 80037b4:	2b00      	cmp	r3, #0
 80037b6:	d122      	bne.n	80037fe <rxAssemble+0x15c>
        if (payloadLen > sizeof(pShtp->inPayload)) {
 80037b8:	8abb      	ldrh	r3, [r7, #20]
 80037ba:	f5b3 7fc0 	cmp.w	r3, #384	@ 0x180
 80037be:	d912      	bls.n	80037e6 <rxAssemble+0x144>
            // Error: This payload won't fit! Discard it.
            pShtp->tooLargePayloads++;
 80037c0:	68fb      	ldr	r3, [r7, #12]
 80037c2:	f8d3 3828 	ldr.w	r3, [r3, #2088]	@ 0x828
 80037c6:	1c5a      	adds	r2, r3, #1
 80037c8:	68fb      	ldr	r3, [r7, #12]
 80037ca:	f8c3 2828 	str.w	r2, [r3, #2088]	@ 0x828
            
            if (pShtp->eventCallback) {
 80037ce:	68fb      	ldr	r3, [r7, #12]
 80037d0:	685b      	ldr	r3, [r3, #4]
 80037d2:	2b00      	cmp	r3, #0
 80037d4:	d077      	beq.n	80038c6 <rxAssemble+0x224>
                pShtp->eventCallback(pShtp->eventCookie, SHTP_TOO_LARGE_PAYLOADS);
 80037d6:	68fb      	ldr	r3, [r7, #12]
 80037d8:	685b      	ldr	r3, [r3, #4]
 80037da:	68fa      	ldr	r2, [r7, #12]
 80037dc:	6892      	ldr	r2, [r2, #8]
 80037de:	2102      	movs	r1, #2
 80037e0:	4610      	mov	r0, r2
 80037e2:	4798      	blx	r3
            }
            return;
 80037e4:	e06f      	b.n	80038c6 <rxAssemble+0x224>
        }

        // This represents a new payload

        // Store timestamp
        pShtp->inTimestamp = t_us;
 80037e6:	68fb      	ldr	r3, [r7, #12]
 80037e8:	683a      	ldr	r2, [r7, #0]
 80037ea:	f8c3 22a0 	str.w	r2, [r3, #672]	@ 0x2a0

        // Start a new assembly.
        pShtp->inCursor = 0;
 80037ee:	68fb      	ldr	r3, [r7, #12]
 80037f0:	2200      	movs	r2, #0
 80037f2:	f8a3 229e 	strh.w	r2, [r3, #670]	@ 0x29e
        pShtp->inChan = chan;
 80037f6:	68fb      	ldr	r3, [r7, #12]
 80037f8:	7dfa      	ldrb	r2, [r7, #23]
 80037fa:	f883 211c 	strb.w	r2, [r3, #284]	@ 0x11c
    }

    // Append the new fragment to the payload under construction.
    if (len > payloadLen) {
 80037fe:	88fa      	ldrh	r2, [r7, #6]
 8003800:	8abb      	ldrh	r3, [r7, #20]
 8003802:	429a      	cmp	r2, r3
 8003804:	d901      	bls.n	800380a <rxAssemble+0x168>
        // Only use the valid portion of the transfer
        len = payloadLen;
 8003806:	8abb      	ldrh	r3, [r7, #20]
 8003808:	80fb      	strh	r3, [r7, #6]
    }
    memcpy(pShtp->inPayload + pShtp->inCursor, in+SHTP_HDR_LEN, len-SHTP_HDR_LEN);
 800380a:	68fb      	ldr	r3, [r7, #12]
 800380c:	f203 131d 	addw	r3, r3, #285	@ 0x11d
 8003810:	68fa      	ldr	r2, [r7, #12]
 8003812:	f8b2 229e 	ldrh.w	r2, [r2, #670]	@ 0x29e
 8003816:	1898      	adds	r0, r3, r2
 8003818:	68bb      	ldr	r3, [r7, #8]
 800381a:	1d19      	adds	r1, r3, #4
 800381c:	88fb      	ldrh	r3, [r7, #6]
 800381e:	3b04      	subs	r3, #4
 8003820:	461a      	mov	r2, r3
 8003822:	f003 fcc5 	bl	80071b0 <memcpy>
    pShtp->inCursor += len-SHTP_HDR_LEN;
 8003826:	68fb      	ldr	r3, [r7, #12]
 8003828:	f8b3 229e 	ldrh.w	r2, [r3, #670]	@ 0x29e
 800382c:	88fb      	ldrh	r3, [r7, #6]
 800382e:	4413      	add	r3, r2
 8003830:	b29b      	uxth	r3, r3
 8003832:	3b04      	subs	r3, #4
 8003834:	b29a      	uxth	r2, r3
 8003836:	68fb      	ldr	r3, [r7, #12]
 8003838:	f8a3 229e 	strh.w	r2, [r3, #670]	@ 0x29e
    pShtp->inRemaining = payloadLen - len;
 800383c:	8aba      	ldrh	r2, [r7, #20]
 800383e:	88fb      	ldrh	r3, [r7, #6]
 8003840:	1ad3      	subs	r3, r2, r3
 8003842:	b29a      	uxth	r2, r3
 8003844:	68fb      	ldr	r3, [r7, #12]
 8003846:	f8a3 211a 	strh.w	r2, [r3, #282]	@ 0x11a

    // If whole payload received, deliver it to channel listener.
    if (pShtp->inRemaining == 0) {
 800384a:	68fb      	ldr	r3, [r7, #12]
 800384c:	f8b3 311a 	ldrh.w	r3, [r3, #282]	@ 0x11a
 8003850:	2b00      	cmp	r3, #0
 8003852:	d126      	bne.n	80038a2 <rxAssemble+0x200>

        // Call callback if there is one.
        if (pShtp->chan[chan].callback != 0) {
 8003854:	7dfb      	ldrb	r3, [r7, #23]
 8003856:	68fa      	ldr	r2, [r7, #12]
 8003858:	2134      	movs	r1, #52	@ 0x34
 800385a:	fb01 f303 	mul.w	r3, r1, r3
 800385e:	4413      	add	r3, r2
 8003860:	f503 63a9 	add.w	r3, r3, #1352	@ 0x548
 8003864:	681b      	ldr	r3, [r3, #0]
 8003866:	2b00      	cmp	r3, #0
 8003868:	d01b      	beq.n	80038a2 <rxAssemble+0x200>
            pShtp->chan[chan].callback(pShtp->chan[chan].cookie,
 800386a:	7dfb      	ldrb	r3, [r7, #23]
 800386c:	68fa      	ldr	r2, [r7, #12]
 800386e:	2134      	movs	r1, #52	@ 0x34
 8003870:	fb01 f303 	mul.w	r3, r1, r3
 8003874:	4413      	add	r3, r2
 8003876:	f503 63a9 	add.w	r3, r3, #1352	@ 0x548
 800387a:	681c      	ldr	r4, [r3, #0]
 800387c:	7dfb      	ldrb	r3, [r7, #23]
 800387e:	68fa      	ldr	r2, [r7, #12]
 8003880:	2134      	movs	r1, #52	@ 0x34
 8003882:	fb01 f303 	mul.w	r3, r1, r3
 8003886:	4413      	add	r3, r2
 8003888:	f203 534c 	addw	r3, r3, #1356	@ 0x54c
 800388c:	6818      	ldr	r0, [r3, #0]
                                       pShtp->inPayload, pShtp->inCursor,
 800388e:	68fb      	ldr	r3, [r7, #12]
 8003890:	f203 111d 	addw	r1, r3, #285	@ 0x11d
            pShtp->chan[chan].callback(pShtp->chan[chan].cookie,
 8003894:	68fb      	ldr	r3, [r7, #12]
 8003896:	f8b3 229e 	ldrh.w	r2, [r3, #670]	@ 0x29e
 800389a:	68fb      	ldr	r3, [r7, #12]
 800389c:	f8d3 32a0 	ldr.w	r3, [r3, #672]	@ 0x2a0
 80038a0:	47a0      	blx	r4
                                       pShtp->inTimestamp);
        }
    }

    // Remember next sequence number we expect for this channel.
    pShtp->chan[chan].nextInSeq = seq + 1;
 80038a2:	7dfb      	ldrb	r3, [r7, #23]
 80038a4:	7dba      	ldrb	r2, [r7, #22]
 80038a6:	3201      	adds	r2, #1
 80038a8:	b2d0      	uxtb	r0, r2
 80038aa:	68fa      	ldr	r2, [r7, #12]
 80038ac:	2134      	movs	r1, #52	@ 0x34
 80038ae:	fb01 f303 	mul.w	r3, r1, r3
 80038b2:	4413      	add	r3, r2
 80038b4:	f203 531d 	addw	r3, r3, #1309	@ 0x51d
 80038b8:	4602      	mov	r2, r0
 80038ba:	701a      	strb	r2, [r3, #0]
 80038bc:	e004      	b.n	80038c8 <rxAssemble+0x226>
      return;
 80038be:	bf00      	nop
 80038c0:	e002      	b.n	80038c8 <rxAssemble+0x226>
        return;
 80038c2:	bf00      	nop
 80038c4:	e000      	b.n	80038c8 <rxAssemble+0x226>
            return;
 80038c6:	bf00      	nop
}
 80038c8:	371c      	adds	r7, #28
 80038ca:	46bd      	mov	sp, r7
 80038cc:	bd90      	pop	{r4, r7, pc}
	...

080038d0 <shtp_open>:
// Public functions

// Takes HAL pointer, returns shtp ID for use in future calls.
// HAL will be opened by this call.
void *shtp_open(sh2_Hal_t *pHal)
{
 80038d0:	b580      	push	{r7, lr}
 80038d2:	b086      	sub	sp, #24
 80038d4:	af02      	add	r7, sp, #8
 80038d6:	6078      	str	r0, [r7, #4]
    if (!shtp_initialized) {
 80038d8:	4b29      	ldr	r3, [pc, #164]	@ (8003980 <shtp_open+0xb0>)
 80038da:	781b      	ldrb	r3, [r3, #0]
 80038dc:	f083 0301 	eor.w	r3, r3, #1
 80038e0:	b2db      	uxtb	r3, r3
 80038e2:	2b00      	cmp	r3, #0
 80038e4:	d001      	beq.n	80038ea <shtp_open+0x1a>
        // Perform one-time module initialization
        shtp_init();
 80038e6:	f7ff fa73 	bl	8002dd0 <shtp_init>
    }
    
    // Validate params
    if (pHal == 0) {
 80038ea:	687b      	ldr	r3, [r7, #4]
 80038ec:	2b00      	cmp	r3, #0
 80038ee:	d101      	bne.n	80038f4 <shtp_open+0x24>
        // Error
        return 0;
 80038f0:	2300      	movs	r3, #0
 80038f2:	e041      	b.n	8003978 <shtp_open+0xa8>
    }

    // Find an available instance for this open
    shtp_t *pShtp = getInstance();
 80038f4:	f7ff fa7e 	bl	8002df4 <getInstance>
 80038f8:	60f8      	str	r0, [r7, #12]
    if (pShtp == 0) {
 80038fa:	68fb      	ldr	r3, [r7, #12]
 80038fc:	2b00      	cmp	r3, #0
 80038fe:	d101      	bne.n	8003904 <shtp_open+0x34>
        // No instances available, return error
        return 0;
 8003900:	2300      	movs	r3, #0
 8003902:	e039      	b.n	8003978 <shtp_open+0xa8>
    }

    // Clear the SHTP instance as a shortcut to initializing all fields
    memset(pShtp, 0, sizeof(shtp_t));
 8003904:	f640 0234 	movw	r2, #2100	@ 0x834
 8003908:	2100      	movs	r1, #0
 800390a:	68f8      	ldr	r0, [r7, #12]
 800390c:	f003 fc15 	bl	800713a <memset>
    
    // Store reference to the HAL
    pShtp->pHal = pHal;
 8003910:	68fb      	ldr	r3, [r7, #12]
 8003912:	687a      	ldr	r2, [r7, #4]
 8003914:	601a      	str	r2, [r3, #0]

    // Clear the asynchronous event callback point
    pShtp->eventCallback = 0;
 8003916:	68fb      	ldr	r3, [r7, #12]
 8003918:	2200      	movs	r2, #0
 800391a:	605a      	str	r2, [r3, #4]
    pShtp->eventCookie = 0;
 800391c:	68fb      	ldr	r3, [r7, #12]
 800391e:	2200      	movs	r2, #0
 8003920:	609a      	str	r2, [r3, #8]

    // Initialize state vars (be prepared for adverts)
    pShtp->outMaxPayload = SH2_HAL_MAX_PAYLOAD_OUT;
 8003922:	68fb      	ldr	r3, [r7, #12]
 8003924:	f44f 7280 	mov.w	r2, #256	@ 0x100
 8003928:	829a      	strh	r2, [r3, #20]
    pShtp->outMaxTransfer = SH2_HAL_MAX_TRANSFER_OUT;
 800392a:	68fb      	ldr	r3, [r7, #12]
 800392c:	f44f 7280 	mov.w	r2, #256	@ 0x100
 8003930:	82da      	strh	r2, [r3, #22]

    // Establish SHTP App and command channel a priori
    addApp(pShtp, GUID_SHTP);
 8003932:	2100      	movs	r1, #0
 8003934:	68f8      	ldr	r0, [r7, #12]
 8003936:	f7ff fc58 	bl	80031ea <addApp>
    addChannel(pShtp, 0, GUID_SHTP, "command", false);
 800393a:	2300      	movs	r3, #0
 800393c:	9300      	str	r3, [sp, #0]
 800393e:	4b11      	ldr	r3, [pc, #68]	@ (8003984 <shtp_open+0xb4>)
 8003940:	2200      	movs	r2, #0
 8003942:	2100      	movs	r1, #0
 8003944:	68f8      	ldr	r0, [r7, #12]
 8003946:	f7ff fcd2 	bl	80032ee <addChannel>
    
    // Register SHTP advert listener and command channel listener
    shtp_listenAdvert(pShtp, GUID_SHTP, shtpAdvertHdlr, pShtp);
 800394a:	68fb      	ldr	r3, [r7, #12]
 800394c:	4a0e      	ldr	r2, [pc, #56]	@ (8003988 <shtp_open+0xb8>)
 800394e:	2100      	movs	r1, #0
 8003950:	68f8      	ldr	r0, [r7, #12]
 8003952:	f000 f869 	bl	8003a28 <shtp_listenAdvert>
    shtp_listenChan(pShtp, GUID_SHTP, "command", shtpCmdListener, pShtp);
 8003956:	68fb      	ldr	r3, [r7, #12]
 8003958:	9300      	str	r3, [sp, #0]
 800395a:	4b0c      	ldr	r3, [pc, #48]	@ (800398c <shtp_open+0xbc>)
 800395c:	4a09      	ldr	r2, [pc, #36]	@ (8003984 <shtp_open+0xb4>)
 800395e:	2100      	movs	r1, #0
 8003960:	68f8      	ldr	r0, [r7, #12]
 8003962:	f000 f840 	bl	80039e6 <shtp_listenChan>

    // When we open the HAL, it resets the device and adverts are sent automatically.
    // So we go to ADVERT_REQUESTED state.  They are on the way.
    pShtp->advertPhase = ADVERT_REQUESTED;
 8003966:	68fb      	ldr	r3, [r7, #12]
 8003968:	2201      	movs	r2, #1
 800396a:	f883 2424 	strb.w	r2, [r3, #1060]	@ 0x424

    // Open HAL
    pHal->open(pHal);
 800396e:	687b      	ldr	r3, [r7, #4]
 8003970:	681b      	ldr	r3, [r3, #0]
 8003972:	6878      	ldr	r0, [r7, #4]
 8003974:	4798      	blx	r3

    return pShtp;
 8003976:	68fb      	ldr	r3, [r7, #12]
}
 8003978:	4618      	mov	r0, r3
 800397a:	3710      	adds	r7, #16
 800397c:	46bd      	mov	sp, r7
 800397e:	bd80      	pop	{r7, pc}
 8003980:	20000e90 	.word	0x20000e90
 8003984:	08007794 	.word	0x08007794
 8003988:	080031a7 	.word	0x080031a7
 800398c:	0800365d 	.word	0x0800365d

08003990 <shtp_close>:

// Releases resources associated with this SHTP instance.
// HAL will not be closed.
void shtp_close(void *pInstance)
{
 8003990:	b580      	push	{r7, lr}
 8003992:	b084      	sub	sp, #16
 8003994:	af00      	add	r7, sp, #0
 8003996:	6078      	str	r0, [r7, #4]
    shtp_t *pShtp = (shtp_t *)pInstance;
 8003998:	687b      	ldr	r3, [r7, #4]
 800399a:	60fb      	str	r3, [r7, #12]

    pShtp->pHal->close(pShtp->pHal);
 800399c:	68fb      	ldr	r3, [r7, #12]
 800399e:	681b      	ldr	r3, [r3, #0]
 80039a0:	685b      	ldr	r3, [r3, #4]
 80039a2:	68fa      	ldr	r2, [r7, #12]
 80039a4:	6812      	ldr	r2, [r2, #0]
 80039a6:	4610      	mov	r0, r2
 80039a8:	4798      	blx	r3
    
    // Clear pShtp
    // (Resetting pShtp->pHal to 0, returns this instance to the free pool)
    memset(pShtp, 0, sizeof(shtp_t));
 80039aa:	f640 0234 	movw	r2, #2100	@ 0x834
 80039ae:	2100      	movs	r1, #0
 80039b0:	68f8      	ldr	r0, [r7, #12]
 80039b2:	f003 fbc2 	bl	800713a <memset>
}
 80039b6:	bf00      	nop
 80039b8:	3710      	adds	r7, #16
 80039ba:	46bd      	mov	sp, r7
 80039bc:	bd80      	pop	{r7, pc}

080039be <shtp_setEventCallback>:

// Register the pointer of the callback function for reporting asynchronous events
void shtp_setEventCallback(void *pInstance, 
                           shtp_EventCallback_t * eventCallback, 
                           void *eventCookie) {
 80039be:	b480      	push	{r7}
 80039c0:	b087      	sub	sp, #28
 80039c2:	af00      	add	r7, sp, #0
 80039c4:	60f8      	str	r0, [r7, #12]
 80039c6:	60b9      	str	r1, [r7, #8]
 80039c8:	607a      	str	r2, [r7, #4]
    shtp_t *pShtp = (shtp_t *)pInstance;
 80039ca:	68fb      	ldr	r3, [r7, #12]
 80039cc:	617b      	str	r3, [r7, #20]

    pShtp->eventCallback = eventCallback;
 80039ce:	697b      	ldr	r3, [r7, #20]
 80039d0:	68ba      	ldr	r2, [r7, #8]
 80039d2:	605a      	str	r2, [r3, #4]
    pShtp->eventCookie = eventCookie;
 80039d4:	697b      	ldr	r3, [r7, #20]
 80039d6:	687a      	ldr	r2, [r7, #4]
 80039d8:	609a      	str	r2, [r3, #8]
}
 80039da:	bf00      	nop
 80039dc:	371c      	adds	r7, #28
 80039de:	46bd      	mov	sp, r7
 80039e0:	f85d 7b04 	ldr.w	r7, [sp], #4
 80039e4:	4770      	bx	lr

080039e6 <shtp_listenChan>:

// Register a listener for an SHTP channel
int shtp_listenChan(void *pInstance,
                    uint16_t guid, const char * chan,
                    shtp_Callback_t *callback, void * cookie)
{
 80039e6:	b580      	push	{r7, lr}
 80039e8:	b088      	sub	sp, #32
 80039ea:	af02      	add	r7, sp, #8
 80039ec:	60f8      	str	r0, [r7, #12]
 80039ee:	607a      	str	r2, [r7, #4]
 80039f0:	603b      	str	r3, [r7, #0]
 80039f2:	460b      	mov	r3, r1
 80039f4:	817b      	strh	r3, [r7, #10]
    shtp_t *pShtp = (shtp_t *)pInstance;
 80039f6:	68fb      	ldr	r3, [r7, #12]
 80039f8:	617b      	str	r3, [r7, #20]
    
    // Balk if channel name isn't valid
    if ((chan == 0) || (strlen(chan) == 0)) return SH2_ERR_BAD_PARAM;
 80039fa:	687b      	ldr	r3, [r7, #4]
 80039fc:	2b00      	cmp	r3, #0
 80039fe:	d003      	beq.n	8003a08 <shtp_listenChan+0x22>
 8003a00:	687b      	ldr	r3, [r7, #4]
 8003a02:	781b      	ldrb	r3, [r3, #0]
 8003a04:	2b00      	cmp	r3, #0
 8003a06:	d102      	bne.n	8003a0e <shtp_listenChan+0x28>
 8003a08:	f06f 0301 	mvn.w	r3, #1
 8003a0c:	e008      	b.n	8003a20 <shtp_listenChan+0x3a>

    return addChanListener(pShtp, guid, chan, callback, cookie);
 8003a0e:	8979      	ldrh	r1, [r7, #10]
 8003a10:	6a3b      	ldr	r3, [r7, #32]
 8003a12:	9300      	str	r3, [sp, #0]
 8003a14:	683b      	ldr	r3, [r7, #0]
 8003a16:	687a      	ldr	r2, [r7, #4]
 8003a18:	6978      	ldr	r0, [r7, #20]
 8003a1a:	f7ff fade 	bl	8002fda <addChanListener>
 8003a1e:	4603      	mov	r3, r0
}
 8003a20:	4618      	mov	r0, r3
 8003a22:	3718      	adds	r7, #24
 8003a24:	46bd      	mov	sp, r7
 8003a26:	bd80      	pop	{r7, pc}

08003a28 <shtp_listenAdvert>:

// Register a listener for SHTP advertisements 
int shtp_listenAdvert(void *pInstance,
                      uint16_t guid,
                      shtp_AdvertCallback_t *advertCallback, void * cookie)
{
 8003a28:	b580      	push	{r7, lr}
 8003a2a:	b086      	sub	sp, #24
 8003a2c:	af00      	add	r7, sp, #0
 8003a2e:	60f8      	str	r0, [r7, #12]
 8003a30:	607a      	str	r2, [r7, #4]
 8003a32:	603b      	str	r3, [r7, #0]
 8003a34:	460b      	mov	r3, r1
 8003a36:	817b      	strh	r3, [r7, #10]
    shtp_t *pShtp = (shtp_t *)pInstance;
 8003a38:	68fb      	ldr	r3, [r7, #12]
 8003a3a:	617b      	str	r3, [r7, #20]
    
    // Register the advert listener
    addAdvertListener(pShtp, guid, advertCallback, cookie);
 8003a3c:	8979      	ldrh	r1, [r7, #10]
 8003a3e:	683b      	ldr	r3, [r7, #0]
 8003a40:	687a      	ldr	r2, [r7, #4]
 8003a42:	6978      	ldr	r0, [r7, #20]
 8003a44:	f7ff f9fe 	bl	8002e44 <addAdvertListener>

    // Arrange for a new set of advertisements, for this listener
    if (pShtp->advertPhase == ADVERT_IDLE) {
 8003a48:	697b      	ldr	r3, [r7, #20]
 8003a4a:	f893 3424 	ldrb.w	r3, [r3, #1060]	@ 0x424
 8003a4e:	2b02      	cmp	r3, #2
 8003a50:	d103      	bne.n	8003a5a <shtp_listenAdvert+0x32>
        pShtp->advertPhase = ADVERT_NEEDED;
 8003a52:	697b      	ldr	r3, [r7, #20]
 8003a54:	2200      	movs	r2, #0
 8003a56:	f883 2424 	strb.w	r2, [r3, #1060]	@ 0x424
    }

    return SH2_OK;
 8003a5a:	2300      	movs	r3, #0
}
 8003a5c:	4618      	mov	r0, r3
 8003a5e:	3718      	adds	r7, #24
 8003a60:	46bd      	mov	sp, r7
 8003a62:	bd80      	pop	{r7, pc}

08003a64 <shtp_chanNo>:

// Look up the channel number for a particular app, channel.
uint8_t shtp_chanNo(void *pInstance,
                    const char * appName, const char * chanName)
{
 8003a64:	b580      	push	{r7, lr}
 8003a66:	b088      	sub	sp, #32
 8003a68:	af00      	add	r7, sp, #0
 8003a6a:	60f8      	str	r0, [r7, #12]
 8003a6c:	60b9      	str	r1, [r7, #8]
 8003a6e:	607a      	str	r2, [r7, #4]
    shtp_t *pShtp = (shtp_t *)pInstance;
 8003a70:	68fb      	ldr	r3, [r7, #12]
 8003a72:	613b      	str	r3, [r7, #16]
    
    int chan = 0;
 8003a74:	2300      	movs	r3, #0
 8003a76:	61fb      	str	r3, [r7, #28]
    uint32_t guid = 0xFFFFFFFF;
 8003a78:	f04f 33ff 	mov.w	r3, #4294967295	@ 0xffffffff
 8003a7c:	61bb      	str	r3, [r7, #24]

    // Determine GUID for this appname
    for (int n = 0; n < SH2_MAX_APPS; n++) {
 8003a7e:	2300      	movs	r3, #0
 8003a80:	617b      	str	r3, [r7, #20]
 8003a82:	e01f      	b.n	8003ac4 <shtp_chanNo+0x60>
        if (strcmp(pShtp->app[n].appName, appName) == 0) {
 8003a84:	697a      	ldr	r2, [r7, #20]
 8003a86:	4613      	mov	r3, r2
 8003a88:	00db      	lsls	r3, r3, #3
 8003a8a:	4413      	add	r3, r2
 8003a8c:	009b      	lsls	r3, r3, #2
 8003a8e:	f503 6385 	add.w	r3, r3, #1064	@ 0x428
 8003a92:	693a      	ldr	r2, [r7, #16]
 8003a94:	4413      	add	r3, r2
 8003a96:	3304      	adds	r3, #4
 8003a98:	68b9      	ldr	r1, [r7, #8]
 8003a9a:	4618      	mov	r0, r3
 8003a9c:	f7fc fbbc 	bl	8000218 <strcmp>
 8003aa0:	4603      	mov	r3, r0
 8003aa2:	2b00      	cmp	r3, #0
 8003aa4:	d10b      	bne.n	8003abe <shtp_chanNo+0x5a>
            guid = pShtp->app[n].guid;
 8003aa6:	6939      	ldr	r1, [r7, #16]
 8003aa8:	697a      	ldr	r2, [r7, #20]
 8003aaa:	4613      	mov	r3, r2
 8003aac:	00db      	lsls	r3, r3, #3
 8003aae:	4413      	add	r3, r2
 8003ab0:	009b      	lsls	r3, r3, #2
 8003ab2:	440b      	add	r3, r1
 8003ab4:	f503 6385 	add.w	r3, r3, #1064	@ 0x428
 8003ab8:	681b      	ldr	r3, [r3, #0]
 8003aba:	61bb      	str	r3, [r7, #24]
            break;
 8003abc:	e005      	b.n	8003aca <shtp_chanNo+0x66>
    for (int n = 0; n < SH2_MAX_APPS; n++) {
 8003abe:	697b      	ldr	r3, [r7, #20]
 8003ac0:	3301      	adds	r3, #1
 8003ac2:	617b      	str	r3, [r7, #20]
 8003ac4:	697b      	ldr	r3, [r7, #20]
 8003ac6:	2b04      	cmp	r3, #4
 8003ac8:	dddc      	ble.n	8003a84 <shtp_chanNo+0x20>
        }
    }
    if (guid == 0xFFFFFFFF) return -1;
 8003aca:	69bb      	ldr	r3, [r7, #24]
 8003acc:	f1b3 3fff 	cmp.w	r3, #4294967295	@ 0xffffffff
 8003ad0:	d101      	bne.n	8003ad6 <shtp_chanNo+0x72>
 8003ad2:	23ff      	movs	r3, #255	@ 0xff
 8003ad4:	e028      	b.n	8003b28 <shtp_chanNo+0xc4>

    for (chan = 0; chan < SH2_MAX_CHANS; chan++) {
 8003ad6:	2300      	movs	r3, #0
 8003ad8:	61fb      	str	r3, [r7, #28]
 8003ada:	e021      	b.n	8003b20 <shtp_chanNo+0xbc>
        if ((strcmp(pShtp->chan[chan].chanName, chanName) == 0) &&
 8003adc:	69fb      	ldr	r3, [r7, #28]
 8003ade:	2234      	movs	r2, #52	@ 0x34
 8003ae0:	fb02 f303 	mul.w	r3, r2, r3
 8003ae4:	f503 63a4 	add.w	r3, r3, #1312	@ 0x520
 8003ae8:	693a      	ldr	r2, [r7, #16]
 8003aea:	4413      	add	r3, r2
 8003aec:	3304      	adds	r3, #4
 8003aee:	6879      	ldr	r1, [r7, #4]
 8003af0:	4618      	mov	r0, r3
 8003af2:	f7fc fb91 	bl	8000218 <strcmp>
 8003af6:	4603      	mov	r3, r0
 8003af8:	2b00      	cmp	r3, #0
 8003afa:	d10e      	bne.n	8003b1a <shtp_chanNo+0xb6>
            pShtp->chan[chan].guid == guid) {
 8003afc:	693a      	ldr	r2, [r7, #16]
 8003afe:	69fb      	ldr	r3, [r7, #28]
 8003b00:	2134      	movs	r1, #52	@ 0x34
 8003b02:	fb01 f303 	mul.w	r3, r1, r3
 8003b06:	4413      	add	r3, r2
 8003b08:	f503 63a4 	add.w	r3, r3, #1312	@ 0x520
 8003b0c:	681b      	ldr	r3, [r3, #0]
        if ((strcmp(pShtp->chan[chan].chanName, chanName) == 0) &&
 8003b0e:	69ba      	ldr	r2, [r7, #24]
 8003b10:	429a      	cmp	r2, r3
 8003b12:	d102      	bne.n	8003b1a <shtp_chanNo+0xb6>
            // Found match
            return chan;
 8003b14:	69fb      	ldr	r3, [r7, #28]
 8003b16:	b2db      	uxtb	r3, r3
 8003b18:	e006      	b.n	8003b28 <shtp_chanNo+0xc4>
    for (chan = 0; chan < SH2_MAX_CHANS; chan++) {
 8003b1a:	69fb      	ldr	r3, [r7, #28]
 8003b1c:	3301      	adds	r3, #1
 8003b1e:	61fb      	str	r3, [r7, #28]
 8003b20:	69fb      	ldr	r3, [r7, #28]
 8003b22:	2b07      	cmp	r3, #7
 8003b24:	ddda      	ble.n	8003adc <shtp_chanNo+0x78>
        }
    }

    // Not found
    return 0xFF;
 8003b26:	23ff      	movs	r3, #255	@ 0xff
}
 8003b28:	4618      	mov	r0, r3
 8003b2a:	3720      	adds	r7, #32
 8003b2c:	46bd      	mov	sp, r7
 8003b2e:	bd80      	pop	{r7, pc}

08003b30 <shtp_send>:

// Send an SHTP payload on a particular channel
int shtp_send(void *pInstance,
              uint8_t channel, const uint8_t *payload, uint16_t len)
{
 8003b30:	b580      	push	{r7, lr}
 8003b32:	b086      	sub	sp, #24
 8003b34:	af00      	add	r7, sp, #0
 8003b36:	60f8      	str	r0, [r7, #12]
 8003b38:	607a      	str	r2, [r7, #4]
 8003b3a:	461a      	mov	r2, r3
 8003b3c:	460b      	mov	r3, r1
 8003b3e:	72fb      	strb	r3, [r7, #11]
 8003b40:	4613      	mov	r3, r2
 8003b42:	813b      	strh	r3, [r7, #8]
    shtp_t *pShtp = (shtp_t *)pInstance;
 8003b44:	68fb      	ldr	r3, [r7, #12]
 8003b46:	617b      	str	r3, [r7, #20]
    int ret = SH2_OK;
 8003b48:	2300      	movs	r3, #0
 8003b4a:	613b      	str	r3, [r7, #16]
    
    if (len > pShtp->outMaxPayload) {
 8003b4c:	697b      	ldr	r3, [r7, #20]
 8003b4e:	8a9b      	ldrh	r3, [r3, #20]
 8003b50:	893a      	ldrh	r2, [r7, #8]
 8003b52:	429a      	cmp	r2, r3
 8003b54:	d902      	bls.n	8003b5c <shtp_send+0x2c>
        return SH2_ERR_BAD_PARAM;
 8003b56:	f06f 0301 	mvn.w	r3, #1
 8003b5a:	e014      	b.n	8003b86 <shtp_send+0x56>
    }
    if (channel >= SH2_MAX_CHANS) {
 8003b5c:	7afb      	ldrb	r3, [r7, #11]
 8003b5e:	2b07      	cmp	r3, #7
 8003b60:	d909      	bls.n	8003b76 <shtp_send+0x46>
        pShtp->badTxChan++;
 8003b62:	697b      	ldr	r3, [r7, #20]
 8003b64:	f8d3 3830 	ldr.w	r3, [r3, #2096]	@ 0x830
 8003b68:	1c5a      	adds	r2, r3, #1
 8003b6a:	697b      	ldr	r3, [r7, #20]
 8003b6c:	f8c3 2830 	str.w	r2, [r3, #2096]	@ 0x830
        return SH2_ERR_BAD_PARAM;
 8003b70:	f06f 0301 	mvn.w	r3, #1
 8003b74:	e007      	b.n	8003b86 <shtp_send+0x56>
    }
    
    ret = txProcess(pShtp, channel, payload, len);
 8003b76:	893b      	ldrh	r3, [r7, #8]
 8003b78:	7af9      	ldrb	r1, [r7, #11]
 8003b7a:	687a      	ldr	r2, [r7, #4]
 8003b7c:	6978      	ldr	r0, [r7, #20]
 8003b7e:	f7ff fa7f 	bl	8003080 <txProcess>
 8003b82:	6138      	str	r0, [r7, #16]

    return ret;
 8003b84:	693b      	ldr	r3, [r7, #16]
}
 8003b86:	4618      	mov	r0, r3
 8003b88:	3718      	adds	r7, #24
 8003b8a:	46bd      	mov	sp, r7
 8003b8c:	bd80      	pop	{r7, pc}
	...

08003b90 <shtp_service>:

// Check for received data and process it.
void shtp_service(void *pInstance)
{
 8003b90:	b590      	push	{r4, r7, lr}
 8003b92:	b087      	sub	sp, #28
 8003b94:	af00      	add	r7, sp, #0
 8003b96:	6078      	str	r0, [r7, #4]
    shtp_t *pShtp = (shtp_t *)pInstance;
 8003b98:	687b      	ldr	r3, [r7, #4]
 8003b9a:	617b      	str	r3, [r7, #20]
    uint32_t t_us = 0;
 8003b9c:	2300      	movs	r3, #0
 8003b9e:	60bb      	str	r3, [r7, #8]

    if (pShtp->advertPhase == ADVERT_NEEDED) {
 8003ba0:	697b      	ldr	r3, [r7, #20]
 8003ba2:	f893 3424 	ldrb.w	r3, [r3, #1060]	@ 0x424
 8003ba6:	2b00      	cmp	r3, #0
 8003ba8:	d111      	bne.n	8003bce <shtp_service+0x3e>
        pShtp->advertPhase = ADVERT_REQUESTED;  // do this before send, to avoid recursion.
 8003baa:	697b      	ldr	r3, [r7, #20]
 8003bac:	2201      	movs	r2, #1
 8003bae:	f883 2424 	strb.w	r2, [r3, #1060]	@ 0x424
        int status = shtp_send(pShtp, SHTP_CHAN_COMMAND, advertise, sizeof(advertise));
 8003bb2:	2302      	movs	r3, #2
 8003bb4:	4a15      	ldr	r2, [pc, #84]	@ (8003c0c <shtp_service+0x7c>)
 8003bb6:	2100      	movs	r1, #0
 8003bb8:	6978      	ldr	r0, [r7, #20]
 8003bba:	f7ff ffb9 	bl	8003b30 <shtp_send>
 8003bbe:	6138      	str	r0, [r7, #16]
        if (status != SH2_OK) {
 8003bc0:	693b      	ldr	r3, [r7, #16]
 8003bc2:	2b00      	cmp	r3, #0
 8003bc4:	d003      	beq.n	8003bce <shtp_service+0x3e>
            // Oops, advert request failed.  Go back to needing one.
            pShtp->advertPhase = ADVERT_NEEDED;
 8003bc6:	697b      	ldr	r3, [r7, #20]
 8003bc8:	2200      	movs	r2, #0
 8003bca:	f883 2424 	strb.w	r2, [r3, #1060]	@ 0x424
        }
    }

    int len = pShtp->pHal->read(pShtp->pHal, pShtp->inTransfer, sizeof(pShtp->inTransfer), &t_us);
 8003bce:	697b      	ldr	r3, [r7, #20]
 8003bd0:	681b      	ldr	r3, [r3, #0]
 8003bd2:	689c      	ldr	r4, [r3, #8]
 8003bd4:	697b      	ldr	r3, [r7, #20]
 8003bd6:	6818      	ldr	r0, [r3, #0]
 8003bd8:	697b      	ldr	r3, [r7, #20]
 8003bda:	f503 7129 	add.w	r1, r3, #676	@ 0x2a4
 8003bde:	f107 0308 	add.w	r3, r7, #8
 8003be2:	f44f 72c0 	mov.w	r2, #384	@ 0x180
 8003be6:	47a0      	blx	r4
 8003be8:	60f8      	str	r0, [r7, #12]
    if (len) {
 8003bea:	68fb      	ldr	r3, [r7, #12]
 8003bec:	2b00      	cmp	r3, #0
 8003bee:	d008      	beq.n	8003c02 <shtp_service+0x72>
        rxAssemble(pShtp, pShtp->inTransfer, len, t_us);
 8003bf0:	697b      	ldr	r3, [r7, #20]
 8003bf2:	f503 7129 	add.w	r1, r3, #676	@ 0x2a4
 8003bf6:	68fb      	ldr	r3, [r7, #12]
 8003bf8:	b29a      	uxth	r2, r3
 8003bfa:	68bb      	ldr	r3, [r7, #8]
 8003bfc:	6978      	ldr	r0, [r7, #20]
 8003bfe:	f7ff fd50 	bl	80036a2 <rxAssemble>
    }
}
 8003c02:	bf00      	nop
 8003c04:	371c      	adds	r7, #28
 8003c06:	46bd      	mov	sp, r7
 8003c08:	bd90      	pop	{r4, r7, pc}
 8003c0a:	bf00      	nop
 8003c0c:	080077b4 	.word	0x080077b4

08003c10 <main>:
/**
  * @brief  The application entry point.
  * @retval int
  */
int main(void)
{
 8003c10:	b580      	push	{r7, lr}
 8003c12:	af00      	add	r7, sp, #0
  /* USER CODE END 1 */

  /* MCU Configuration--------------------------------------------------------*/

  /* Reset of all peripherals, Initializes the Flash interface and the Systick. */
  HAL_Init();
 8003c14:	f000 fc0e 	bl	8004434 <HAL_Init>
  /* USER CODE BEGIN Init */

  /* USER CODE END Init */

  /* Configure the system clock */
  SystemClock_Config();
 8003c18:	f000 f82e 	bl	8003c78 <SystemClock_Config>
  /* USER CODE BEGIN SysInit */

  /* USER CODE END SysInit */

  /* Initialize all configured peripherals */
  MX_GPIO_Init();
 8003c1c:	f000 f8fc 	bl	8003e18 <MX_GPIO_Init>
  MX_FDCAN1_Init();
 8003c20:	f000 f876 	bl	8003d10 <MX_FDCAN1_Init>
  MX_SPI2_Init();
 8003c24:	f000 f8ba 	bl	8003d9c <MX_SPI2_Init>
  /* USER CODE BEGIN 2 */
  CEVA_BNO085_Init();
 8003c28:	f7fd f934 	bl	8000e94 <CEVA_BNO085_Init>

  /* USER CODE END 2 */

  /* Initialize leds */
  BSP_LED_Init(LED_GREEN);
 8003c2c:	2000      	movs	r0, #0
 8003c2e:	f000 fa9b 	bl	8004168 <BSP_LED_Init>

  /* Initialize USER push-button, will be used to trigger an interrupt each time it's pressed.*/
  BSP_PB_Init(BUTTON_USER, BUTTON_MODE_EXTI);
 8003c32:	2101      	movs	r1, #1
 8003c34:	2000      	movs	r0, #0
 8003c36:	f000 facd 	bl	80041d4 <BSP_PB_Init>

  /* Initialize COM1 port (115200, 8 bits (7-bit data + 1 stop bit), no parity */
  BspCOMInit.BaudRate   = 115200;
 8003c3a:	4b0e      	ldr	r3, [pc, #56]	@ (8003c74 <main+0x64>)
 8003c3c:	f44f 32e1 	mov.w	r2, #115200	@ 0x1c200
 8003c40:	601a      	str	r2, [r3, #0]
  BspCOMInit.WordLength = COM_WORDLENGTH_8B;
 8003c42:	4b0c      	ldr	r3, [pc, #48]	@ (8003c74 <main+0x64>)
 8003c44:	2200      	movs	r2, #0
 8003c46:	605a      	str	r2, [r3, #4]
  BspCOMInit.StopBits   = COM_STOPBITS_1;
 8003c48:	4b0a      	ldr	r3, [pc, #40]	@ (8003c74 <main+0x64>)
 8003c4a:	2200      	movs	r2, #0
 8003c4c:	811a      	strh	r2, [r3, #8]
  BspCOMInit.Parity     = COM_PARITY_NONE;
 8003c4e:	4b09      	ldr	r3, [pc, #36]	@ (8003c74 <main+0x64>)
 8003c50:	2200      	movs	r2, #0
 8003c52:	815a      	strh	r2, [r3, #10]
  BspCOMInit.HwFlowCtl  = COM_HWCONTROL_NONE;
 8003c54:	4b07      	ldr	r3, [pc, #28]	@ (8003c74 <main+0x64>)
 8003c56:	2200      	movs	r2, #0
 8003c58:	819a      	strh	r2, [r3, #12]
  if (BSP_COM_Init(COM1, &BspCOMInit) != BSP_ERROR_NONE)
 8003c5a:	4906      	ldr	r1, [pc, #24]	@ (8003c74 <main+0x64>)
 8003c5c:	2000      	movs	r0, #0
 8003c5e:	f000 fb33 	bl	80042c8 <BSP_COM_Init>
 8003c62:	4603      	mov	r3, r0
 8003c64:	2b00      	cmp	r3, #0
 8003c66:	d001      	beq.n	8003c6c <main+0x5c>
  {
    Error_Handler();
 8003c68:	f000 f94a 	bl	8003f00 <Error_Handler>
  {

    /* USER CODE END WHILE */

    /* USER CODE BEGIN 3 */
    CEVA_BNO085_Service();
 8003c6c:	f7fd f954 	bl	8000f18 <CEVA_BNO085_Service>
 8003c70:	e7fc      	b.n	8003c6c <main+0x5c>
 8003c72:	bf00      	nop
 8003c74:	20000e94 	.word	0x20000e94

08003c78 <SystemClock_Config>:
/**
  * @brief System Clock Configuration
  * @retval None
  */
void SystemClock_Config(void)
{
 8003c78:	b580      	push	{r7, lr}
 8003c7a:	b094      	sub	sp, #80	@ 0x50
 8003c7c:	af00      	add	r7, sp, #0
  RCC_OscInitTypeDef RCC_OscInitStruct = {0};
 8003c7e:	f107 0318 	add.w	r3, r7, #24
 8003c82:	2238      	movs	r2, #56	@ 0x38
 8003c84:	2100      	movs	r1, #0
 8003c86:	4618      	mov	r0, r3
 8003c88:	f003 fa57 	bl	800713a <memset>
  RCC_ClkInitTypeDef RCC_ClkInitStruct = {0};
 8003c8c:	1d3b      	adds	r3, r7, #4
 8003c8e:	2200      	movs	r2, #0
 8003c90:	601a      	str	r2, [r3, #0]
 8003c92:	605a      	str	r2, [r3, #4]
 8003c94:	609a      	str	r2, [r3, #8]
 8003c96:	60da      	str	r2, [r3, #12]
 8003c98:	611a      	str	r2, [r3, #16]

  /** Configure the main internal regulator output voltage
  */
  HAL_PWREx_ControlVoltageScaling(PWR_REGULATOR_VOLTAGE_SCALE1_BOOST);
 8003c9a:	2000      	movs	r0, #0
 8003c9c:	f001 f908 	bl	8004eb0 <HAL_PWREx_ControlVoltageScaling>

  /** Initializes the RCC Oscillators according to the specified parameters
  * in the RCC_OscInitTypeDef structure.
  */
  RCC_OscInitStruct.OscillatorType = RCC_OSCILLATORTYPE_HSI;
 8003ca0:	2302      	movs	r3, #2
 8003ca2:	61bb      	str	r3, [r7, #24]
  RCC_OscInitStruct.HSIState = RCC_HSI_ON;
 8003ca4:	f44f 7380 	mov.w	r3, #256	@ 0x100
 8003ca8:	627b      	str	r3, [r7, #36]	@ 0x24
  RCC_OscInitStruct.HSICalibrationValue = RCC_HSICALIBRATION_DEFAULT;
 8003caa:	2340      	movs	r3, #64	@ 0x40
 8003cac:	62bb      	str	r3, [r7, #40]	@ 0x28
  RCC_OscInitStruct.PLL.PLLState = RCC_PLL_ON;
 8003cae:	2302      	movs	r3, #2
 8003cb0:	637b      	str	r3, [r7, #52]	@ 0x34
  RCC_OscInitStruct.PLL.PLLSource = RCC_PLLSOURCE_HSI;
 8003cb2:	2302      	movs	r3, #2
 8003cb4:	63bb      	str	r3, [r7, #56]	@ 0x38
  RCC_OscInitStruct.PLL.PLLM = RCC_PLLM_DIV4;
 8003cb6:	2304      	movs	r3, #4
 8003cb8:	63fb      	str	r3, [r7, #60]	@ 0x3c
  RCC_OscInitStruct.PLL.PLLN = 85;
 8003cba:	2355      	movs	r3, #85	@ 0x55
 8003cbc:	643b      	str	r3, [r7, #64]	@ 0x40
  RCC_OscInitStruct.PLL.PLLP = RCC_PLLP_DIV2;
 8003cbe:	2302      	movs	r3, #2
 8003cc0:	647b      	str	r3, [r7, #68]	@ 0x44
  RCC_OscInitStruct.PLL.PLLQ = RCC_PLLQ_DIV2;
 8003cc2:	2302      	movs	r3, #2
 8003cc4:	64bb      	str	r3, [r7, #72]	@ 0x48
  RCC_OscInitStruct.PLL.PLLR = RCC_PLLR_DIV2;
 8003cc6:	2302      	movs	r3, #2
 8003cc8:	64fb      	str	r3, [r7, #76]	@ 0x4c
  if (HAL_RCC_OscConfig(&RCC_OscInitStruct) != HAL_OK)
 8003cca:	f107 0318 	add.w	r3, r7, #24
 8003cce:	4618      	mov	r0, r3
 8003cd0:	f001 f9a2 	bl	8005018 <HAL_RCC_OscConfig>
 8003cd4:	4603      	mov	r3, r0
 8003cd6:	2b00      	cmp	r3, #0
 8003cd8:	d001      	beq.n	8003cde <SystemClock_Config+0x66>
  {
    Error_Handler();
 8003cda:	f000 f911 	bl	8003f00 <Error_Handler>
  }

  /** Initializes the CPU, AHB and APB buses clocks
  */
  RCC_ClkInitStruct.ClockType = RCC_CLOCKTYPE_HCLK|RCC_CLOCKTYPE_SYSCLK
 8003cde:	230f      	movs	r3, #15
 8003ce0:	607b      	str	r3, [r7, #4]
                              |RCC_CLOCKTYPE_PCLK1|RCC_CLOCKTYPE_PCLK2;
  RCC_ClkInitStruct.SYSCLKSource = RCC_SYSCLKSOURCE_PLLCLK;
 8003ce2:	2303      	movs	r3, #3
 8003ce4:	60bb      	str	r3, [r7, #8]
  RCC_ClkInitStruct.AHBCLKDivider = RCC_SYSCLK_DIV1;
 8003ce6:	2300      	movs	r3, #0
 8003ce8:	60fb      	str	r3, [r7, #12]
  RCC_ClkInitStruct.APB1CLKDivider = RCC_HCLK_DIV1;
 8003cea:	2300      	movs	r3, #0
 8003cec:	613b      	str	r3, [r7, #16]
  RCC_ClkInitStruct.APB2CLKDivider = RCC_HCLK_DIV1;
 8003cee:	2300      	movs	r3, #0
 8003cf0:	617b      	str	r3, [r7, #20]

  if (HAL_RCC_ClockConfig(&RCC_ClkInitStruct, FLASH_LATENCY_4) != HAL_OK)
 8003cf2:	1d3b      	adds	r3, r7, #4
 8003cf4:	2104      	movs	r1, #4
 8003cf6:	4618      	mov	r0, r3
 8003cf8:	f001 fca0 	bl	800563c <HAL_RCC_ClockConfig>
 8003cfc:	4603      	mov	r3, r0
 8003cfe:	2b00      	cmp	r3, #0
 8003d00:	d001      	beq.n	8003d06 <SystemClock_Config+0x8e>
  {
    Error_Handler();
 8003d02:	f000 f8fd 	bl	8003f00 <Error_Handler>
  }
}
 8003d06:	bf00      	nop
 8003d08:	3750      	adds	r7, #80	@ 0x50
 8003d0a:	46bd      	mov	sp, r7
 8003d0c:	bd80      	pop	{r7, pc}
	...

08003d10 <MX_FDCAN1_Init>:
  * @brief FDCAN1 Initialization Function
  * @param None
  * @retval None
  */
static void MX_FDCAN1_Init(void)
{
 8003d10:	b580      	push	{r7, lr}
 8003d12:	af00      	add	r7, sp, #0
  /* USER CODE END FDCAN1_Init 0 */

  /* USER CODE BEGIN FDCAN1_Init 1 */

  /* USER CODE END FDCAN1_Init 1 */
  hfdcan1.Instance = FDCAN1;
 8003d14:	4b1f      	ldr	r3, [pc, #124]	@ (8003d94 <MX_FDCAN1_Init+0x84>)
 8003d16:	4a20      	ldr	r2, [pc, #128]	@ (8003d98 <MX_FDCAN1_Init+0x88>)
 8003d18:	601a      	str	r2, [r3, #0]
  hfdcan1.Init.ClockDivider = FDCAN_CLOCK_DIV1;
 8003d1a:	4b1e      	ldr	r3, [pc, #120]	@ (8003d94 <MX_FDCAN1_Init+0x84>)
 8003d1c:	2200      	movs	r2, #0
 8003d1e:	605a      	str	r2, [r3, #4]
  hfdcan1.Init.FrameFormat = FDCAN_FRAME_CLASSIC;
 8003d20:	4b1c      	ldr	r3, [pc, #112]	@ (8003d94 <MX_FDCAN1_Init+0x84>)
 8003d22:	2200      	movs	r2, #0
 8003d24:	609a      	str	r2, [r3, #8]
  hfdcan1.Init.Mode = FDCAN_MODE_NORMAL;
 8003d26:	4b1b      	ldr	r3, [pc, #108]	@ (8003d94 <MX_FDCAN1_Init+0x84>)
 8003d28:	2200      	movs	r2, #0
 8003d2a:	60da      	str	r2, [r3, #12]
  hfdcan1.Init.AutoRetransmission = DISABLE;
 8003d2c:	4b19      	ldr	r3, [pc, #100]	@ (8003d94 <MX_FDCAN1_Init+0x84>)
 8003d2e:	2200      	movs	r2, #0
 8003d30:	741a      	strb	r2, [r3, #16]
  hfdcan1.Init.TransmitPause = DISABLE;
 8003d32:	4b18      	ldr	r3, [pc, #96]	@ (8003d94 <MX_FDCAN1_Init+0x84>)
 8003d34:	2200      	movs	r2, #0
 8003d36:	745a      	strb	r2, [r3, #17]
  hfdcan1.Init.ProtocolException = DISABLE;
 8003d38:	4b16      	ldr	r3, [pc, #88]	@ (8003d94 <MX_FDCAN1_Init+0x84>)
 8003d3a:	2200      	movs	r2, #0
 8003d3c:	749a      	strb	r2, [r3, #18]
  hfdcan1.Init.NominalPrescaler = 16;
 8003d3e:	4b15      	ldr	r3, [pc, #84]	@ (8003d94 <MX_FDCAN1_Init+0x84>)
 8003d40:	2210      	movs	r2, #16
 8003d42:	615a      	str	r2, [r3, #20]
  hfdcan1.Init.NominalSyncJumpWidth = 1;
 8003d44:	4b13      	ldr	r3, [pc, #76]	@ (8003d94 <MX_FDCAN1_Init+0x84>)
 8003d46:	2201      	movs	r2, #1
 8003d48:	619a      	str	r2, [r3, #24]
  hfdcan1.Init.NominalTimeSeg1 = 1;
 8003d4a:	4b12      	ldr	r3, [pc, #72]	@ (8003d94 <MX_FDCAN1_Init+0x84>)
 8003d4c:	2201      	movs	r2, #1
 8003d4e:	61da      	str	r2, [r3, #28]
  hfdcan1.Init.NominalTimeSeg2 = 1;
 8003d50:	4b10      	ldr	r3, [pc, #64]	@ (8003d94 <MX_FDCAN1_Init+0x84>)
 8003d52:	2201      	movs	r2, #1
 8003d54:	621a      	str	r2, [r3, #32]
  hfdcan1.Init.DataPrescaler = 1;
 8003d56:	4b0f      	ldr	r3, [pc, #60]	@ (8003d94 <MX_FDCAN1_Init+0x84>)
 8003d58:	2201      	movs	r2, #1
 8003d5a:	625a      	str	r2, [r3, #36]	@ 0x24
  hfdcan1.Init.DataSyncJumpWidth = 1;
 8003d5c:	4b0d      	ldr	r3, [pc, #52]	@ (8003d94 <MX_FDCAN1_Init+0x84>)
 8003d5e:	2201      	movs	r2, #1
 8003d60:	629a      	str	r2, [r3, #40]	@ 0x28
  hfdcan1.Init.DataTimeSeg1 = 1;
 8003d62:	4b0c      	ldr	r3, [pc, #48]	@ (8003d94 <MX_FDCAN1_Init+0x84>)
 8003d64:	2201      	movs	r2, #1
 8003d66:	62da      	str	r2, [r3, #44]	@ 0x2c
  hfdcan1.Init.DataTimeSeg2 = 1;
 8003d68:	4b0a      	ldr	r3, [pc, #40]	@ (8003d94 <MX_FDCAN1_Init+0x84>)
 8003d6a:	2201      	movs	r2, #1
 8003d6c:	631a      	str	r2, [r3, #48]	@ 0x30
  hfdcan1.Init.StdFiltersNbr = 0;
 8003d6e:	4b09      	ldr	r3, [pc, #36]	@ (8003d94 <MX_FDCAN1_Init+0x84>)
 8003d70:	2200      	movs	r2, #0
 8003d72:	635a      	str	r2, [r3, #52]	@ 0x34
  hfdcan1.Init.ExtFiltersNbr = 0;
 8003d74:	4b07      	ldr	r3, [pc, #28]	@ (8003d94 <MX_FDCAN1_Init+0x84>)
 8003d76:	2200      	movs	r2, #0
 8003d78:	639a      	str	r2, [r3, #56]	@ 0x38
  hfdcan1.Init.TxFifoQueueMode = FDCAN_TX_FIFO_OPERATION;
 8003d7a:	4b06      	ldr	r3, [pc, #24]	@ (8003d94 <MX_FDCAN1_Init+0x84>)
 8003d7c:	2200      	movs	r2, #0
 8003d7e:	63da      	str	r2, [r3, #60]	@ 0x3c
  if (HAL_FDCAN_Init(&hfdcan1) != HAL_OK)
 8003d80:	4804      	ldr	r0, [pc, #16]	@ (8003d94 <MX_FDCAN1_Init+0x84>)
 8003d82:	f000 fd29 	bl	80047d8 <HAL_FDCAN_Init>
 8003d86:	4603      	mov	r3, r0
 8003d88:	2b00      	cmp	r3, #0
 8003d8a:	d001      	beq.n	8003d90 <MX_FDCAN1_Init+0x80>
  {
    Error_Handler();
 8003d8c:	f000 f8b8 	bl	8003f00 <Error_Handler>
  }
  /* USER CODE BEGIN FDCAN1_Init 2 */

  /* USER CODE END FDCAN1_Init 2 */

}
 8003d90:	bf00      	nop
 8003d92:	bd80      	pop	{r7, pc}
 8003d94:	20000ea4 	.word	0x20000ea4
 8003d98:	40006400 	.word	0x40006400

08003d9c <MX_SPI2_Init>:
  * @brief SPI2 Initialization Function
  * @param None
  * @retval None
  */
static void MX_SPI2_Init(void)
{
 8003d9c:	b580      	push	{r7, lr}
 8003d9e:	af00      	add	r7, sp, #0

  /* USER CODE BEGIN SPI2_Init 1 */

  /* USER CODE END SPI2_Init 1 */
  /* SPI2 parameter configuration*/
  hspi2.Instance = SPI2;
 8003da0:	4b1b      	ldr	r3, [pc, #108]	@ (8003e10 <MX_SPI2_Init+0x74>)
 8003da2:	4a1c      	ldr	r2, [pc, #112]	@ (8003e14 <MX_SPI2_Init+0x78>)
 8003da4:	601a      	str	r2, [r3, #0]
  hspi2.Init.Mode = SPI_MODE_MASTER;
 8003da6:	4b1a      	ldr	r3, [pc, #104]	@ (8003e10 <MX_SPI2_Init+0x74>)
 8003da8:	f44f 7282 	mov.w	r2, #260	@ 0x104
 8003dac:	605a      	str	r2, [r3, #4]
  hspi2.Init.Direction = SPI_DIRECTION_2LINES;
 8003dae:	4b18      	ldr	r3, [pc, #96]	@ (8003e10 <MX_SPI2_Init+0x74>)
 8003db0:	2200      	movs	r2, #0
 8003db2:	609a      	str	r2, [r3, #8]
  hspi2.Init.DataSize = SPI_DATASIZE_8BIT;
 8003db4:	4b16      	ldr	r3, [pc, #88]	@ (8003e10 <MX_SPI2_Init+0x74>)
 8003db6:	f44f 62e0 	mov.w	r2, #1792	@ 0x700
 8003dba:	60da      	str	r2, [r3, #12]
  hspi2.Init.CLKPolarity = SPI_POLARITY_HIGH;
 8003dbc:	4b14      	ldr	r3, [pc, #80]	@ (8003e10 <MX_SPI2_Init+0x74>)
 8003dbe:	2202      	movs	r2, #2
 8003dc0:	611a      	str	r2, [r3, #16]
  hspi2.Init.CLKPhase = SPI_PHASE_2EDGE;
 8003dc2:	4b13      	ldr	r3, [pc, #76]	@ (8003e10 <MX_SPI2_Init+0x74>)
 8003dc4:	2201      	movs	r2, #1
 8003dc6:	615a      	str	r2, [r3, #20]
  hspi2.Init.NSS = SPI_NSS_SOFT;
 8003dc8:	4b11      	ldr	r3, [pc, #68]	@ (8003e10 <MX_SPI2_Init+0x74>)
 8003dca:	f44f 7200 	mov.w	r2, #512	@ 0x200
 8003dce:	619a      	str	r2, [r3, #24]
  hspi2.Init.BaudRatePrescaler = SPI_BAUDRATEPRESCALER_256;
 8003dd0:	4b0f      	ldr	r3, [pc, #60]	@ (8003e10 <MX_SPI2_Init+0x74>)
 8003dd2:	2238      	movs	r2, #56	@ 0x38
 8003dd4:	61da      	str	r2, [r3, #28]
  hspi2.Init.FirstBit = SPI_FIRSTBIT_MSB;
 8003dd6:	4b0e      	ldr	r3, [pc, #56]	@ (8003e10 <MX_SPI2_Init+0x74>)
 8003dd8:	2200      	movs	r2, #0
 8003dda:	621a      	str	r2, [r3, #32]
  hspi2.Init.TIMode = SPI_TIMODE_DISABLE;
 8003ddc:	4b0c      	ldr	r3, [pc, #48]	@ (8003e10 <MX_SPI2_Init+0x74>)
 8003dde:	2200      	movs	r2, #0
 8003de0:	625a      	str	r2, [r3, #36]	@ 0x24
  hspi2.Init.CRCCalculation = SPI_CRCCALCULATION_DISABLE;
 8003de2:	4b0b      	ldr	r3, [pc, #44]	@ (8003e10 <MX_SPI2_Init+0x74>)
 8003de4:	2200      	movs	r2, #0
 8003de6:	629a      	str	r2, [r3, #40]	@ 0x28
  hspi2.Init.CRCPolynomial = 7;
 8003de8:	4b09      	ldr	r3, [pc, #36]	@ (8003e10 <MX_SPI2_Init+0x74>)
 8003dea:	2207      	movs	r2, #7
 8003dec:	62da      	str	r2, [r3, #44]	@ 0x2c
  hspi2.Init.CRCLength = SPI_CRC_LENGTH_DATASIZE;
 8003dee:	4b08      	ldr	r3, [pc, #32]	@ (8003e10 <MX_SPI2_Init+0x74>)
 8003df0:	2200      	movs	r2, #0
 8003df2:	631a      	str	r2, [r3, #48]	@ 0x30
  hspi2.Init.NSSPMode = SPI_NSS_PULSE_DISABLE;
 8003df4:	4b06      	ldr	r3, [pc, #24]	@ (8003e10 <MX_SPI2_Init+0x74>)
 8003df6:	2200      	movs	r2, #0
 8003df8:	635a      	str	r2, [r3, #52]	@ 0x34
  if (HAL_SPI_Init(&hspi2) != HAL_OK)
 8003dfa:	4805      	ldr	r0, [pc, #20]	@ (8003e10 <MX_SPI2_Init+0x74>)
 8003dfc:	f002 f82a 	bl	8005e54 <HAL_SPI_Init>
 8003e00:	4603      	mov	r3, r0
 8003e02:	2b00      	cmp	r3, #0
 8003e04:	d001      	beq.n	8003e0a <MX_SPI2_Init+0x6e>
  {
    Error_Handler();
 8003e06:	f000 f87b 	bl	8003f00 <Error_Handler>
  }
  /* USER CODE BEGIN SPI2_Init 2 */

  /* USER CODE END SPI2_Init 2 */

}
 8003e0a:	bf00      	nop
 8003e0c:	bd80      	pop	{r7, pc}
 8003e0e:	bf00      	nop
 8003e10:	20000f08 	.word	0x20000f08
 8003e14:	40003800 	.word	0x40003800

08003e18 <MX_GPIO_Init>:
  * @brief GPIO Initialization Function
  * @param None
  * @retval None
  */
static void MX_GPIO_Init(void)
{
 8003e18:	b580      	push	{r7, lr}
 8003e1a:	b08a      	sub	sp, #40	@ 0x28
 8003e1c:	af00      	add	r7, sp, #0
  GPIO_InitTypeDef GPIO_InitStruct = {0};
 8003e1e:	f107 0314 	add.w	r3, r7, #20
 8003e22:	2200      	movs	r2, #0
 8003e24:	601a      	str	r2, [r3, #0]
 8003e26:	605a      	str	r2, [r3, #4]
 8003e28:	609a      	str	r2, [r3, #8]
 8003e2a:	60da      	str	r2, [r3, #12]
 8003e2c:	611a      	str	r2, [r3, #16]
  /* USER CODE BEGIN MX_GPIO_Init_1 */

  /* USER CODE END MX_GPIO_Init_1 */

  /* GPIO Ports Clock Enable */
  __HAL_RCC_GPIOC_CLK_ENABLE();
 8003e2e:	4b31      	ldr	r3, [pc, #196]	@ (8003ef4 <MX_GPIO_Init+0xdc>)
 8003e30:	6cdb      	ldr	r3, [r3, #76]	@ 0x4c
 8003e32:	4a30      	ldr	r2, [pc, #192]	@ (8003ef4 <MX_GPIO_Init+0xdc>)
 8003e34:	f043 0304 	orr.w	r3, r3, #4
 8003e38:	64d3      	str	r3, [r2, #76]	@ 0x4c
 8003e3a:	4b2e      	ldr	r3, [pc, #184]	@ (8003ef4 <MX_GPIO_Init+0xdc>)
 8003e3c:	6cdb      	ldr	r3, [r3, #76]	@ 0x4c
 8003e3e:	f003 0304 	and.w	r3, r3, #4
 8003e42:	613b      	str	r3, [r7, #16]
 8003e44:	693b      	ldr	r3, [r7, #16]
  __HAL_RCC_GPIOF_CLK_ENABLE();
 8003e46:	4b2b      	ldr	r3, [pc, #172]	@ (8003ef4 <MX_GPIO_Init+0xdc>)
 8003e48:	6cdb      	ldr	r3, [r3, #76]	@ 0x4c
 8003e4a:	4a2a      	ldr	r2, [pc, #168]	@ (8003ef4 <MX_GPIO_Init+0xdc>)
 8003e4c:	f043 0320 	orr.w	r3, r3, #32
 8003e50:	64d3      	str	r3, [r2, #76]	@ 0x4c
 8003e52:	4b28      	ldr	r3, [pc, #160]	@ (8003ef4 <MX_GPIO_Init+0xdc>)
 8003e54:	6cdb      	ldr	r3, [r3, #76]	@ 0x4c
 8003e56:	f003 0320 	and.w	r3, r3, #32
 8003e5a:	60fb      	str	r3, [r7, #12]
 8003e5c:	68fb      	ldr	r3, [r7, #12]
  __HAL_RCC_GPIOB_CLK_ENABLE();
 8003e5e:	4b25      	ldr	r3, [pc, #148]	@ (8003ef4 <MX_GPIO_Init+0xdc>)
 8003e60:	6cdb      	ldr	r3, [r3, #76]	@ 0x4c
 8003e62:	4a24      	ldr	r2, [pc, #144]	@ (8003ef4 <MX_GPIO_Init+0xdc>)
 8003e64:	f043 0302 	orr.w	r3, r3, #2
 8003e68:	64d3      	str	r3, [r2, #76]	@ 0x4c
 8003e6a:	4b22      	ldr	r3, [pc, #136]	@ (8003ef4 <MX_GPIO_Init+0xdc>)
 8003e6c:	6cdb      	ldr	r3, [r3, #76]	@ 0x4c
 8003e6e:	f003 0302 	and.w	r3, r3, #2
 8003e72:	60bb      	str	r3, [r7, #8]
 8003e74:	68bb      	ldr	r3, [r7, #8]
  __HAL_RCC_GPIOA_CLK_ENABLE();
 8003e76:	4b1f      	ldr	r3, [pc, #124]	@ (8003ef4 <MX_GPIO_Init+0xdc>)
 8003e78:	6cdb      	ldr	r3, [r3, #76]	@ 0x4c
 8003e7a:	4a1e      	ldr	r2, [pc, #120]	@ (8003ef4 <MX_GPIO_Init+0xdc>)
 8003e7c:	f043 0301 	orr.w	r3, r3, #1
 8003e80:	64d3      	str	r3, [r2, #76]	@ 0x4c
 8003e82:	4b1c      	ldr	r3, [pc, #112]	@ (8003ef4 <MX_GPIO_Init+0xdc>)
 8003e84:	6cdb      	ldr	r3, [r3, #76]	@ 0x4c
 8003e86:	f003 0301 	and.w	r3, r3, #1
 8003e8a:	607b      	str	r3, [r7, #4]
 8003e8c:	687b      	ldr	r3, [r7, #4]

  /*Configure GPIO pin Output Level */
  HAL_GPIO_WritePin(GPIOB, SPI2_RST_Pin|SPI2_CS_Pin, GPIO_PIN_SET);
 8003e8e:	2201      	movs	r2, #1
 8003e90:	f44f 51a0 	mov.w	r1, #5120	@ 0x1400
 8003e94:	4818      	ldr	r0, [pc, #96]	@ (8003ef8 <MX_GPIO_Init+0xe0>)
 8003e96:	f000 fff3 	bl	8004e80 <HAL_GPIO_WritePin>

  /*Configure GPIO pins : SPI2_RST_Pin SPI2_CS_Pin */
  GPIO_InitStruct.Pin = SPI2_RST_Pin|SPI2_CS_Pin;
 8003e9a:	f44f 53a0 	mov.w	r3, #5120	@ 0x1400
 8003e9e:	617b      	str	r3, [r7, #20]
  GPIO_InitStruct.Mode = GPIO_MODE_OUTPUT_PP;
 8003ea0:	2301      	movs	r3, #1
 8003ea2:	61bb      	str	r3, [r7, #24]
  GPIO_InitStruct.Pull = GPIO_PULLUP;
 8003ea4:	2301      	movs	r3, #1
 8003ea6:	61fb      	str	r3, [r7, #28]
  GPIO_InitStruct.Speed = GPIO_SPEED_FREQ_LOW;
 8003ea8:	2300      	movs	r3, #0
 8003eaa:	623b      	str	r3, [r7, #32]
  HAL_GPIO_Init(GPIOB, &GPIO_InitStruct);
 8003eac:	f107 0314 	add.w	r3, r7, #20
 8003eb0:	4619      	mov	r1, r3
 8003eb2:	4811      	ldr	r0, [pc, #68]	@ (8003ef8 <MX_GPIO_Init+0xe0>)
 8003eb4:	f000 fe40 	bl	8004b38 <HAL_GPIO_Init>

  /*Configure GPIO pin : SPI2_INT_Pin */
  GPIO_InitStruct.Pin = SPI2_INT_Pin;
 8003eb8:	f44f 6300 	mov.w	r3, #2048	@ 0x800
 8003ebc:	617b      	str	r3, [r7, #20]
  GPIO_InitStruct.Mode = GPIO_MODE_INPUT;
 8003ebe:	2300      	movs	r3, #0
 8003ec0:	61bb      	str	r3, [r7, #24]
  GPIO_InitStruct.Pull = GPIO_PULLUP;
 8003ec2:	2301      	movs	r3, #1
 8003ec4:	61fb      	str	r3, [r7, #28]
  HAL_GPIO_Init(SPI2_INT_GPIO_Port, &GPIO_InitStruct);
 8003ec6:	f107 0314 	add.w	r3, r7, #20
 8003eca:	4619      	mov	r1, r3
 8003ecc:	480a      	ldr	r0, [pc, #40]	@ (8003ef8 <MX_GPIO_Init+0xe0>)
 8003ece:	f000 fe33 	bl	8004b38 <HAL_GPIO_Init>

  /*Configure GPIO pins : LIMIT_SW1_1_Pin LIMIT_SW1_2_Pin LIMIT_SW2_1_Pin LIMIT_SW2_2_Pin */
  GPIO_InitStruct.Pin = LIMIT_SW1_1_Pin|LIMIT_SW1_2_Pin|LIMIT_SW2_1_Pin|LIMIT_SW2_2_Pin;
 8003ed2:	f44f 7370 	mov.w	r3, #960	@ 0x3c0
 8003ed6:	617b      	str	r3, [r7, #20]
  GPIO_InitStruct.Mode = GPIO_MODE_INPUT;
 8003ed8:	2300      	movs	r3, #0
 8003eda:	61bb      	str	r3, [r7, #24]
  GPIO_InitStruct.Pull = GPIO_NOPULL;
 8003edc:	2300      	movs	r3, #0
 8003ede:	61fb      	str	r3, [r7, #28]
  HAL_GPIO_Init(GPIOC, &GPIO_InitStruct);
 8003ee0:	f107 0314 	add.w	r3, r7, #20
 8003ee4:	4619      	mov	r1, r3
 8003ee6:	4805      	ldr	r0, [pc, #20]	@ (8003efc <MX_GPIO_Init+0xe4>)
 8003ee8:	f000 fe26 	bl	8004b38 <HAL_GPIO_Init>

  /* USER CODE BEGIN MX_GPIO_Init_2 */

  /* USER CODE END MX_GPIO_Init_2 */
}
 8003eec:	bf00      	nop
 8003eee:	3728      	adds	r7, #40	@ 0x28
 8003ef0:	46bd      	mov	sp, r7
 8003ef2:	bd80      	pop	{r7, pc}
 8003ef4:	40021000 	.word	0x40021000
 8003ef8:	48000400 	.word	0x48000400
 8003efc:	48000800 	.word	0x48000800

08003f00 <Error_Handler>:
/**
  * @brief  This function is executed in case of error occurrence.
  * @retval None
  */
void Error_Handler(void)
{
 8003f00:	b480      	push	{r7}
 8003f02:	af00      	add	r7, sp, #0
  \details Disables IRQ interrupts by setting the I-bit in the CPSR.
           Can only be executed in Privileged modes.
 */
__STATIC_FORCEINLINE void __disable_irq(void)
{
  __ASM volatile ("cpsid i" : : : "memory");
 8003f04:	b672      	cpsid	i
}
 8003f06:	bf00      	nop
  /* USER CODE BEGIN Error_Handler_Debug */
  /* User can add his own implementation to report the HAL error return state */
  __disable_irq();
  while (1)
 8003f08:	bf00      	nop
 8003f0a:	e7fd      	b.n	8003f08 <Error_Handler+0x8>

08003f0c <HAL_MspInit>:
/* USER CODE END 0 */
/**
  * Initializes the Global MSP.
  */
void HAL_MspInit(void)
{
 8003f0c:	b580      	push	{r7, lr}
 8003f0e:	b082      	sub	sp, #8
 8003f10:	af00      	add	r7, sp, #0

  /* USER CODE BEGIN MspInit 0 */

  /* USER CODE END MspInit 0 */

  __HAL_RCC_SYSCFG_CLK_ENABLE();
 8003f12:	4b0f      	ldr	r3, [pc, #60]	@ (8003f50 <HAL_MspInit+0x44>)
 8003f14:	6e1b      	ldr	r3, [r3, #96]	@ 0x60
 8003f16:	4a0e      	ldr	r2, [pc, #56]	@ (8003f50 <HAL_MspInit+0x44>)
 8003f18:	f043 0301 	orr.w	r3, r3, #1
 8003f1c:	6613      	str	r3, [r2, #96]	@ 0x60
 8003f1e:	4b0c      	ldr	r3, [pc, #48]	@ (8003f50 <HAL_MspInit+0x44>)
 8003f20:	6e1b      	ldr	r3, [r3, #96]	@ 0x60
 8003f22:	f003 0301 	and.w	r3, r3, #1
 8003f26:	607b      	str	r3, [r7, #4]
 8003f28:	687b      	ldr	r3, [r7, #4]
  __HAL_RCC_PWR_CLK_ENABLE();
 8003f2a:	4b09      	ldr	r3, [pc, #36]	@ (8003f50 <HAL_MspInit+0x44>)
 8003f2c:	6d9b      	ldr	r3, [r3, #88]	@ 0x58
 8003f2e:	4a08      	ldr	r2, [pc, #32]	@ (8003f50 <HAL_MspInit+0x44>)
 8003f30:	f043 5380 	orr.w	r3, r3, #268435456	@ 0x10000000
 8003f34:	6593      	str	r3, [r2, #88]	@ 0x58
 8003f36:	4b06      	ldr	r3, [pc, #24]	@ (8003f50 <HAL_MspInit+0x44>)
 8003f38:	6d9b      	ldr	r3, [r3, #88]	@ 0x58
 8003f3a:	f003 5380 	and.w	r3, r3, #268435456	@ 0x10000000
 8003f3e:	603b      	str	r3, [r7, #0]
 8003f40:	683b      	ldr	r3, [r7, #0]

  /* System interrupt init*/

  /** Disable the internal Pull-Up in Dead Battery pins of UCPD peripheral
  */
  HAL_PWREx_DisableUCPDDeadBattery();
 8003f42:	f001 f859 	bl	8004ff8 <HAL_PWREx_DisableUCPDDeadBattery>

  /* USER CODE BEGIN MspInit 1 */

  /* USER CODE END MspInit 1 */
}
 8003f46:	bf00      	nop
 8003f48:	3708      	adds	r7, #8
 8003f4a:	46bd      	mov	sp, r7
 8003f4c:	bd80      	pop	{r7, pc}
 8003f4e:	bf00      	nop
 8003f50:	40021000 	.word	0x40021000

08003f54 <HAL_FDCAN_MspInit>:
  * This function configures the hardware resources used in this example
  * @param hfdcan: FDCAN handle pointer
  * @retval None
  */
void HAL_FDCAN_MspInit(FDCAN_HandleTypeDef* hfdcan)
{
 8003f54:	b580      	push	{r7, lr}
 8003f56:	b09a      	sub	sp, #104	@ 0x68
 8003f58:	af00      	add	r7, sp, #0
 8003f5a:	6078      	str	r0, [r7, #4]
  GPIO_InitTypeDef GPIO_InitStruct = {0};
 8003f5c:	f107 0354 	add.w	r3, r7, #84	@ 0x54
 8003f60:	2200      	movs	r2, #0
 8003f62:	601a      	str	r2, [r3, #0]
 8003f64:	605a      	str	r2, [r3, #4]
 8003f66:	609a      	str	r2, [r3, #8]
 8003f68:	60da      	str	r2, [r3, #12]
 8003f6a:	611a      	str	r2, [r3, #16]
  RCC_PeriphCLKInitTypeDef PeriphClkInit = {0};
 8003f6c:	f107 0310 	add.w	r3, r7, #16
 8003f70:	2244      	movs	r2, #68	@ 0x44
 8003f72:	2100      	movs	r1, #0
 8003f74:	4618      	mov	r0, r3
 8003f76:	f003 f8e0 	bl	800713a <memset>
  if(hfdcan->Instance==FDCAN1)
 8003f7a:	687b      	ldr	r3, [r7, #4]
 8003f7c:	681b      	ldr	r3, [r3, #0]
 8003f7e:	4a20      	ldr	r2, [pc, #128]	@ (8004000 <HAL_FDCAN_MspInit+0xac>)
 8003f80:	4293      	cmp	r3, r2
 8003f82:	d139      	bne.n	8003ff8 <HAL_FDCAN_MspInit+0xa4>

    /* USER CODE END FDCAN1_MspInit 0 */

  /** Initializes the peripherals clocks
  */
    PeriphClkInit.PeriphClockSelection = RCC_PERIPHCLK_FDCAN;
 8003f84:	f44f 5380 	mov.w	r3, #4096	@ 0x1000
 8003f88:	613b      	str	r3, [r7, #16]
    PeriphClkInit.FdcanClockSelection = RCC_FDCANCLKSOURCE_PCLK1;
 8003f8a:	f04f 7300 	mov.w	r3, #33554432	@ 0x2000000
 8003f8e:	643b      	str	r3, [r7, #64]	@ 0x40
    if (HAL_RCCEx_PeriphCLKConfig(&PeriphClkInit) != HAL_OK)
 8003f90:	f107 0310 	add.w	r3, r7, #16
 8003f94:	4618      	mov	r0, r3
 8003f96:	f001 fd6d 	bl	8005a74 <HAL_RCCEx_PeriphCLKConfig>
 8003f9a:	4603      	mov	r3, r0
 8003f9c:	2b00      	cmp	r3, #0
 8003f9e:	d001      	beq.n	8003fa4 <HAL_FDCAN_MspInit+0x50>
    {
      Error_Handler();
 8003fa0:	f7ff ffae 	bl	8003f00 <Error_Handler>
    }

    /* Peripheral clock enable */
    __HAL_RCC_FDCAN_CLK_ENABLE();
 8003fa4:	4b17      	ldr	r3, [pc, #92]	@ (8004004 <HAL_FDCAN_MspInit+0xb0>)
 8003fa6:	6d9b      	ldr	r3, [r3, #88]	@ 0x58
 8003fa8:	4a16      	ldr	r2, [pc, #88]	@ (8004004 <HAL_FDCAN_MspInit+0xb0>)
 8003faa:	f043 7300 	orr.w	r3, r3, #33554432	@ 0x2000000
 8003fae:	6593      	str	r3, [r2, #88]	@ 0x58
 8003fb0:	4b14      	ldr	r3, [pc, #80]	@ (8004004 <HAL_FDCAN_MspInit+0xb0>)
 8003fb2:	6d9b      	ldr	r3, [r3, #88]	@ 0x58
 8003fb4:	f003 7300 	and.w	r3, r3, #33554432	@ 0x2000000
 8003fb8:	60fb      	str	r3, [r7, #12]
 8003fba:	68fb      	ldr	r3, [r7, #12]

    __HAL_RCC_GPIOA_CLK_ENABLE();
 8003fbc:	4b11      	ldr	r3, [pc, #68]	@ (8004004 <HAL_FDCAN_MspInit+0xb0>)
 8003fbe:	6cdb      	ldr	r3, [r3, #76]	@ 0x4c
 8003fc0:	4a10      	ldr	r2, [pc, #64]	@ (8004004 <HAL_FDCAN_MspInit+0xb0>)
 8003fc2:	f043 0301 	orr.w	r3, r3, #1
 8003fc6:	64d3      	str	r3, [r2, #76]	@ 0x4c
 8003fc8:	4b0e      	ldr	r3, [pc, #56]	@ (8004004 <HAL_FDCAN_MspInit+0xb0>)
 8003fca:	6cdb      	ldr	r3, [r3, #76]	@ 0x4c
 8003fcc:	f003 0301 	and.w	r3, r3, #1
 8003fd0:	60bb      	str	r3, [r7, #8]
 8003fd2:	68bb      	ldr	r3, [r7, #8]
    /**FDCAN1 GPIO Configuration
    PA11     ------> FDCAN1_RX
    PA12     ------> FDCAN1_TX
    */
    GPIO_InitStruct.Pin = GPIO_PIN_11|GPIO_PIN_12;
 8003fd4:	f44f 53c0 	mov.w	r3, #6144	@ 0x1800
 8003fd8:	657b      	str	r3, [r7, #84]	@ 0x54
    GPIO_InitStruct.Mode = GPIO_MODE_AF_PP;
 8003fda:	2302      	movs	r3, #2
 8003fdc:	65bb      	str	r3, [r7, #88]	@ 0x58
    GPIO_InitStruct.Pull = GPIO_NOPULL;
 8003fde:	2300      	movs	r3, #0
 8003fe0:	65fb      	str	r3, [r7, #92]	@ 0x5c
    GPIO_InitStruct.Speed = GPIO_SPEED_FREQ_LOW;
 8003fe2:	2300      	movs	r3, #0
 8003fe4:	663b      	str	r3, [r7, #96]	@ 0x60
    GPIO_InitStruct.Alternate = GPIO_AF9_FDCAN1;
 8003fe6:	2309      	movs	r3, #9
 8003fe8:	667b      	str	r3, [r7, #100]	@ 0x64
    HAL_GPIO_Init(GPIOA, &GPIO_InitStruct);
 8003fea:	f107 0354 	add.w	r3, r7, #84	@ 0x54
 8003fee:	4619      	mov	r1, r3
 8003ff0:	f04f 4090 	mov.w	r0, #1207959552	@ 0x48000000
 8003ff4:	f000 fda0 	bl	8004b38 <HAL_GPIO_Init>

    /* USER CODE END FDCAN1_MspInit 1 */

  }

}
 8003ff8:	bf00      	nop
 8003ffa:	3768      	adds	r7, #104	@ 0x68
 8003ffc:	46bd      	mov	sp, r7
 8003ffe:	bd80      	pop	{r7, pc}
 8004000:	40006400 	.word	0x40006400
 8004004:	40021000 	.word	0x40021000

08004008 <HAL_SPI_MspInit>:
  * This function configures the hardware resources used in this example
  * @param hspi: SPI handle pointer
  * @retval None
  */
void HAL_SPI_MspInit(SPI_HandleTypeDef* hspi)
{
 8004008:	b580      	push	{r7, lr}
 800400a:	b08a      	sub	sp, #40	@ 0x28
 800400c:	af00      	add	r7, sp, #0
 800400e:	6078      	str	r0, [r7, #4]
  GPIO_InitTypeDef GPIO_InitStruct = {0};
 8004010:	f107 0314 	add.w	r3, r7, #20
 8004014:	2200      	movs	r2, #0
 8004016:	601a      	str	r2, [r3, #0]
 8004018:	605a      	str	r2, [r3, #4]
 800401a:	609a      	str	r2, [r3, #8]
 800401c:	60da      	str	r2, [r3, #12]
 800401e:	611a      	str	r2, [r3, #16]
  if(hspi->Instance==SPI2)
 8004020:	687b      	ldr	r3, [r7, #4]
 8004022:	681b      	ldr	r3, [r3, #0]
 8004024:	4a17      	ldr	r2, [pc, #92]	@ (8004084 <HAL_SPI_MspInit+0x7c>)
 8004026:	4293      	cmp	r3, r2
 8004028:	d128      	bne.n	800407c <HAL_SPI_MspInit+0x74>
  {
    /* USER CODE BEGIN SPI2_MspInit 0 */

    /* USER CODE END SPI2_MspInit 0 */
    /* Peripheral clock enable */
    __HAL_RCC_SPI2_CLK_ENABLE();
 800402a:	4b17      	ldr	r3, [pc, #92]	@ (8004088 <HAL_SPI_MspInit+0x80>)
 800402c:	6d9b      	ldr	r3, [r3, #88]	@ 0x58
 800402e:	4a16      	ldr	r2, [pc, #88]	@ (8004088 <HAL_SPI_MspInit+0x80>)
 8004030:	f443 4380 	orr.w	r3, r3, #16384	@ 0x4000
 8004034:	6593      	str	r3, [r2, #88]	@ 0x58
 8004036:	4b14      	ldr	r3, [pc, #80]	@ (8004088 <HAL_SPI_MspInit+0x80>)
 8004038:	6d9b      	ldr	r3, [r3, #88]	@ 0x58
 800403a:	f403 4380 	and.w	r3, r3, #16384	@ 0x4000
 800403e:	613b      	str	r3, [r7, #16]
 8004040:	693b      	ldr	r3, [r7, #16]

    __HAL_RCC_GPIOB_CLK_ENABLE();
 8004042:	4b11      	ldr	r3, [pc, #68]	@ (8004088 <HAL_SPI_MspInit+0x80>)
 8004044:	6cdb      	ldr	r3, [r3, #76]	@ 0x4c
 8004046:	4a10      	ldr	r2, [pc, #64]	@ (8004088 <HAL_SPI_MspInit+0x80>)
 8004048:	f043 0302 	orr.w	r3, r3, #2
 800404c:	64d3      	str	r3, [r2, #76]	@ 0x4c
 800404e:	4b0e      	ldr	r3, [pc, #56]	@ (8004088 <HAL_SPI_MspInit+0x80>)
 8004050:	6cdb      	ldr	r3, [r3, #76]	@ 0x4c
 8004052:	f003 0302 	and.w	r3, r3, #2
 8004056:	60fb      	str	r3, [r7, #12]
 8004058:	68fb      	ldr	r3, [r7, #12]
    /**SPI2 GPIO Configuration
    PB13     ------> SPI2_SCK
    PB14     ------> SPI2_MISO
    PB15     ------> SPI2_MOSI
    */
    GPIO_InitStruct.Pin = GPIO_PIN_13|GPIO_PIN_14|GPIO_PIN_15;
 800405a:	f44f 4360 	mov.w	r3, #57344	@ 0xe000
 800405e:	617b      	str	r3, [r7, #20]
    GPIO_InitStruct.Mode = GPIO_MODE_AF_PP;
 8004060:	2302      	movs	r3, #2
 8004062:	61bb      	str	r3, [r7, #24]
    GPIO_InitStruct.Pull = GPIO_NOPULL;
 8004064:	2300      	movs	r3, #0
 8004066:	61fb      	str	r3, [r7, #28]
    GPIO_InitStruct.Speed = GPIO_SPEED_FREQ_VERY_HIGH;
 8004068:	2303      	movs	r3, #3
 800406a:	623b      	str	r3, [r7, #32]
    GPIO_InitStruct.Alternate = GPIO_AF5_SPI2;
 800406c:	2305      	movs	r3, #5
 800406e:	627b      	str	r3, [r7, #36]	@ 0x24
    HAL_GPIO_Init(GPIOB, &GPIO_InitStruct);
 8004070:	f107 0314 	add.w	r3, r7, #20
 8004074:	4619      	mov	r1, r3
 8004076:	4805      	ldr	r0, [pc, #20]	@ (800408c <HAL_SPI_MspInit+0x84>)
 8004078:	f000 fd5e 	bl	8004b38 <HAL_GPIO_Init>

    /* USER CODE END SPI2_MspInit 1 */

  }

}
 800407c:	bf00      	nop
 800407e:	3728      	adds	r7, #40	@ 0x28
 8004080:	46bd      	mov	sp, r7
 8004082:	bd80      	pop	{r7, pc}
 8004084:	40003800 	.word	0x40003800
 8004088:	40021000 	.word	0x40021000
 800408c:	48000400 	.word	0x48000400

08004090 <NMI_Handler>:
/******************************************************************************/
/**
  * @brief This function handles Non maskable interrupt.
  */
void NMI_Handler(void)
{
 8004090:	b480      	push	{r7}
 8004092:	af00      	add	r7, sp, #0
  /* USER CODE BEGIN NonMaskableInt_IRQn 0 */

  /* USER CODE END NonMaskableInt_IRQn 0 */
  /* USER CODE BEGIN NonMaskableInt_IRQn 1 */
   while (1)
 8004094:	bf00      	nop
 8004096:	e7fd      	b.n	8004094 <NMI_Handler+0x4>

08004098 <HardFault_Handler>:

/**
  * @brief This function handles Hard fault interrupt.
  */
void HardFault_Handler(void)
{
 8004098:	b480      	push	{r7}
 800409a:	af00      	add	r7, sp, #0
  /* USER CODE BEGIN HardFault_IRQn 0 */

  /* USER CODE END HardFault_IRQn 0 */
  while (1)
 800409c:	bf00      	nop
 800409e:	e7fd      	b.n	800409c <HardFault_Handler+0x4>

080040a0 <MemManage_Handler>:

/**
  * @brief This function handles Memory management fault.
  */
void MemManage_Handler(void)
{
 80040a0:	b480      	push	{r7}
 80040a2:	af00      	add	r7, sp, #0
  /* USER CODE BEGIN MemoryManagement_IRQn 0 */

  /* USER CODE END MemoryManagement_IRQn 0 */
  while (1)
 80040a4:	bf00      	nop
 80040a6:	e7fd      	b.n	80040a4 <MemManage_Handler+0x4>

080040a8 <BusFault_Handler>:

/**
  * @brief This function handles Prefetch fault, memory access fault.
  */
void BusFault_Handler(void)
{
 80040a8:	b480      	push	{r7}
 80040aa:	af00      	add	r7, sp, #0
  /* USER CODE BEGIN BusFault_IRQn 0 */

  /* USER CODE END BusFault_IRQn 0 */
  while (1)
 80040ac:	bf00      	nop
 80040ae:	e7fd      	b.n	80040ac <BusFault_Handler+0x4>

080040b0 <UsageFault_Handler>:

/**
  * @brief This function handles Undefined instruction or illegal state.
  */
void UsageFault_Handler(void)
{
 80040b0:	b480      	push	{r7}
 80040b2:	af00      	add	r7, sp, #0
  /* USER CODE BEGIN UsageFault_IRQn 0 */

  /* USER CODE END UsageFault_IRQn 0 */
  while (1)
 80040b4:	bf00      	nop
 80040b6:	e7fd      	b.n	80040b4 <UsageFault_Handler+0x4>

080040b8 <SVC_Handler>:

/**
  * @brief This function handles System service call via SWI instruction.
  */
void SVC_Handler(void)
{
 80040b8:	b480      	push	{r7}
 80040ba:	af00      	add	r7, sp, #0

  /* USER CODE END SVCall_IRQn 0 */
  /* USER CODE BEGIN SVCall_IRQn 1 */

  /* USER CODE END SVCall_IRQn 1 */
}
 80040bc:	bf00      	nop
 80040be:	46bd      	mov	sp, r7
 80040c0:	f85d 7b04 	ldr.w	r7, [sp], #4
 80040c4:	4770      	bx	lr

080040c6 <DebugMon_Handler>:

/**
  * @brief This function handles Debug monitor.
  */
void DebugMon_Handler(void)
{
 80040c6:	b480      	push	{r7}
 80040c8:	af00      	add	r7, sp, #0

  /* USER CODE END DebugMonitor_IRQn 0 */
  /* USER CODE BEGIN DebugMonitor_IRQn 1 */

  /* USER CODE END DebugMonitor_IRQn 1 */
}
 80040ca:	bf00      	nop
 80040cc:	46bd      	mov	sp, r7
 80040ce:	f85d 7b04 	ldr.w	r7, [sp], #4
 80040d2:	4770      	bx	lr

080040d4 <PendSV_Handler>:

/**
  * @brief This function handles Pendable request for system service.
  */
void PendSV_Handler(void)
{
 80040d4:	b480      	push	{r7}
 80040d6:	af00      	add	r7, sp, #0

  /* USER CODE END PendSV_IRQn 0 */
  /* USER CODE BEGIN PendSV_IRQn 1 */

  /* USER CODE END PendSV_IRQn 1 */
}
 80040d8:	bf00      	nop
 80040da:	46bd      	mov	sp, r7
 80040dc:	f85d 7b04 	ldr.w	r7, [sp], #4
 80040e0:	4770      	bx	lr

080040e2 <SysTick_Handler>:

/**
  * @brief This function handles System tick timer.
  */
void SysTick_Handler(void)
{
 80040e2:	b580      	push	{r7, lr}
 80040e4:	af00      	add	r7, sp, #0
  /* USER CODE BEGIN SysTick_IRQn 0 */

  /* USER CODE END SysTick_IRQn 0 */
  HAL_IncTick();
 80040e6:	f000 f9f7 	bl	80044d8 <HAL_IncTick>
  /* USER CODE BEGIN SysTick_IRQn 1 */

  /* USER CODE END SysTick_IRQn 1 */
}
 80040ea:	bf00      	nop
 80040ec:	bd80      	pop	{r7, pc}
	...

080040f0 <SystemInit>:
  * @param  None
  * @retval None
  */

void SystemInit(void)
{
 80040f0:	b480      	push	{r7}
 80040f2:	af00      	add	r7, sp, #0
  /* FPU settings ------------------------------------------------------------*/
  #if (__FPU_PRESENT == 1) && (__FPU_USED == 1)
    SCB->CPACR |= ((3UL << (10*2))|(3UL << (11*2)));  /* set CP10 and CP11 Full Access */
 80040f4:	4b06      	ldr	r3, [pc, #24]	@ (8004110 <SystemInit+0x20>)
 80040f6:	f8d3 3088 	ldr.w	r3, [r3, #136]	@ 0x88
 80040fa:	4a05      	ldr	r2, [pc, #20]	@ (8004110 <SystemInit+0x20>)
 80040fc:	f443 0370 	orr.w	r3, r3, #15728640	@ 0xf00000
 8004100:	f8c2 3088 	str.w	r3, [r2, #136]	@ 0x88

  /* Configure the Vector Table location add offset address ------------------*/
#if defined(USER_VECT_TAB_ADDRESS)
  SCB->VTOR = VECT_TAB_BASE_ADDRESS | VECT_TAB_OFFSET; /* Vector Table Relocation in Internal SRAM */
#endif /* USER_VECT_TAB_ADDRESS */
}
 8004104:	bf00      	nop
 8004106:	46bd      	mov	sp, r7
 8004108:	f85d 7b04 	ldr.w	r7, [sp], #4
 800410c:	4770      	bx	lr
 800410e:	bf00      	nop
 8004110:	e000ed00 	.word	0xe000ed00

08004114 <Reset_Handler>:

    .section	.text.Reset_Handler
	.weak	Reset_Handler
	.type	Reset_Handler, %function
Reset_Handler:
  ldr   r0, =_estack
 8004114:	480d      	ldr	r0, [pc, #52]	@ (800414c <LoopForever+0x2>)
  mov   sp, r0          /* set stack pointer */
 8004116:	4685      	mov	sp, r0
  
/* Call the clock system initialization function.*/
    bl  SystemInit
 8004118:	f7ff ffea 	bl	80040f0 <SystemInit>

/* Copy the data segment initializers from flash to SRAM */
  ldr r0, =_sdata
 800411c:	480c      	ldr	r0, [pc, #48]	@ (8004150 <LoopForever+0x6>)
  ldr r1, =_edata
 800411e:	490d      	ldr	r1, [pc, #52]	@ (8004154 <LoopForever+0xa>)
  ldr r2, =_sidata
 8004120:	4a0d      	ldr	r2, [pc, #52]	@ (8004158 <LoopForever+0xe>)
  movs r3, #0
 8004122:	2300      	movs	r3, #0
  b	LoopCopyDataInit
 8004124:	e002      	b.n	800412c <LoopCopyDataInit>

08004126 <CopyDataInit>:

CopyDataInit:
  ldr r4, [r2, r3]
 8004126:	58d4      	ldr	r4, [r2, r3]
  str r4, [r0, r3]
 8004128:	50c4      	str	r4, [r0, r3]
  adds r3, r3, #4
 800412a:	3304      	adds	r3, #4

0800412c <LoopCopyDataInit>:

LoopCopyDataInit:
  adds r4, r0, r3
 800412c:	18c4      	adds	r4, r0, r3
  cmp r4, r1
 800412e:	428c      	cmp	r4, r1
  bcc CopyDataInit
 8004130:	d3f9      	bcc.n	8004126 <CopyDataInit>
  
/* Zero fill the bss segment. */
  ldr r2, =_sbss
 8004132:	4a0a      	ldr	r2, [pc, #40]	@ (800415c <LoopForever+0x12>)
  ldr r4, =_ebss
 8004134:	4c0a      	ldr	r4, [pc, #40]	@ (8004160 <LoopForever+0x16>)
  movs r3, #0
 8004136:	2300      	movs	r3, #0
  b LoopFillZerobss
 8004138:	e001      	b.n	800413e <LoopFillZerobss>

0800413a <FillZerobss>:

FillZerobss:
  str  r3, [r2]
 800413a:	6013      	str	r3, [r2, #0]
  adds r2, r2, #4
 800413c:	3204      	adds	r2, #4

0800413e <LoopFillZerobss>:

LoopFillZerobss:
  cmp r2, r4
 800413e:	42a2      	cmp	r2, r4
  bcc FillZerobss
 8004140:	d3fb      	bcc.n	800413a <FillZerobss>
/* Call static constructors */
    bl __libc_init_array
 8004142:	f003 f809 	bl	8007158 <__libc_init_array>
/* Call the application's entry point.*/
	bl	main
 8004146:	f7ff fd63 	bl	8003c10 <main>

0800414a <LoopForever>:

LoopForever:
    b LoopForever
 800414a:	e7fe      	b.n	800414a <LoopForever>
  ldr   r0, =_estack
 800414c:	20008000 	.word	0x20008000
  ldr r0, =_sdata
 8004150:	20000000 	.word	0x20000000
  ldr r1, =_edata
 8004154:	20000130 	.word	0x20000130
  ldr r2, =_sidata
 8004158:	08007838 	.word	0x08007838
  ldr r2, =_sbss
 800415c:	20000130 	.word	0x20000130
  ldr r4, =_ebss
 8004160:	20001144 	.word	0x20001144

08004164 <ADC1_2_IRQHandler>:
 * @retval : None
*/
    .section	.text.Default_Handler,"ax",%progbits
Default_Handler:
Infinite_Loop:
	b	Infinite_Loop
 8004164:	e7fe      	b.n	8004164 <ADC1_2_IRQHandler>
	...

08004168 <BSP_LED_Init>:
  *         This parameter can be one of following parameters:
  *           @arg  LED2
  * @retval BSP status
  */
int32_t BSP_LED_Init(Led_TypeDef Led)
{
 8004168:	b580      	push	{r7, lr}
 800416a:	b088      	sub	sp, #32
 800416c:	af00      	add	r7, sp, #0
 800416e:	4603      	mov	r3, r0
 8004170:	71fb      	strb	r3, [r7, #7]
  GPIO_InitTypeDef  gpio_init_structure;

  /* Enable the GPIO LED Clock */
  LED2_GPIO_CLK_ENABLE();
 8004172:	4b16      	ldr	r3, [pc, #88]	@ (80041cc <BSP_LED_Init+0x64>)
 8004174:	6cdb      	ldr	r3, [r3, #76]	@ 0x4c
 8004176:	4a15      	ldr	r2, [pc, #84]	@ (80041cc <BSP_LED_Init+0x64>)
 8004178:	f043 0301 	orr.w	r3, r3, #1
 800417c:	64d3      	str	r3, [r2, #76]	@ 0x4c
 800417e:	4b13      	ldr	r3, [pc, #76]	@ (80041cc <BSP_LED_Init+0x64>)
 8004180:	6cdb      	ldr	r3, [r3, #76]	@ 0x4c
 8004182:	f003 0301 	and.w	r3, r3, #1
 8004186:	60bb      	str	r3, [r7, #8]
 8004188:	68bb      	ldr	r3, [r7, #8]

  /* Configure the GPIO_LED pin */
  gpio_init_structure.Pin   = LED_PIN[Led];
 800418a:	2320      	movs	r3, #32
 800418c:	60fb      	str	r3, [r7, #12]
  gpio_init_structure.Mode  = GPIO_MODE_OUTPUT_PP;
 800418e:	2301      	movs	r3, #1
 8004190:	613b      	str	r3, [r7, #16]
  gpio_init_structure.Pull  = GPIO_NOPULL;
 8004192:	2300      	movs	r3, #0
 8004194:	617b      	str	r3, [r7, #20]
  gpio_init_structure.Speed = GPIO_SPEED_FREQ_VERY_HIGH;
 8004196:	2303      	movs	r3, #3
 8004198:	61bb      	str	r3, [r7, #24]

  HAL_GPIO_Init(LED_PORT[Led], &gpio_init_structure);
 800419a:	79fb      	ldrb	r3, [r7, #7]
 800419c:	4a0c      	ldr	r2, [pc, #48]	@ (80041d0 <BSP_LED_Init+0x68>)
 800419e:	f852 3023 	ldr.w	r3, [r2, r3, lsl #2]
 80041a2:	f107 020c 	add.w	r2, r7, #12
 80041a6:	4611      	mov	r1, r2
 80041a8:	4618      	mov	r0, r3
 80041aa:	f000 fcc5 	bl	8004b38 <HAL_GPIO_Init>
  HAL_GPIO_WritePin(LED_PORT[Led], LED_PIN[Led], GPIO_PIN_RESET);
 80041ae:	79fb      	ldrb	r3, [r7, #7]
 80041b0:	4a07      	ldr	r2, [pc, #28]	@ (80041d0 <BSP_LED_Init+0x68>)
 80041b2:	f852 3023 	ldr.w	r3, [r2, r3, lsl #2]
 80041b6:	2120      	movs	r1, #32
 80041b8:	2200      	movs	r2, #0
 80041ba:	4618      	mov	r0, r3
 80041bc:	f000 fe60 	bl	8004e80 <HAL_GPIO_WritePin>

  return BSP_ERROR_NONE;
 80041c0:	2300      	movs	r3, #0
}
 80041c2:	4618      	mov	r0, r3
 80041c4:	3720      	adds	r7, #32
 80041c6:	46bd      	mov	sp, r7
 80041c8:	bd80      	pop	{r7, pc}
 80041ca:	bf00      	nop
 80041cc:	40021000 	.word	0x40021000
 80041d0:	200000c4 	.word	0x200000c4

080041d4 <BSP_PB_Init>:
  *           @arg BUTTON_MODE_EXTI: Button will be connected to EXTI line
  *                                  with interrupt generation capability
  * @retval BSP status
  */
int32_t BSP_PB_Init(Button_TypeDef Button, ButtonMode_TypeDef ButtonMode)
{
 80041d4:	b580      	push	{r7, lr}
 80041d6:	b088      	sub	sp, #32
 80041d8:	af00      	add	r7, sp, #0
 80041da:	4603      	mov	r3, r0
 80041dc:	460a      	mov	r2, r1
 80041de:	71fb      	strb	r3, [r7, #7]
 80041e0:	4613      	mov	r3, r2
 80041e2:	71bb      	strb	r3, [r7, #6]
  static BSP_EXTI_LineCallback ButtonCallback[BUTTONn] = {BUTTON_USER_EXTI_Callback};
  static uint32_t BSP_BUTTON_PRIO [BUTTONn] = {BSP_BUTTON_USER_IT_PRIORITY};
  static const uint32_t BUTTON_EXTI_LINE[BUTTONn] = {USER_BUTTON_EXTI_LINE};

  /* Enable the BUTTON Clock */
  USER_BUTTON_GPIO_CLK_ENABLE();
 80041e4:	4b2c      	ldr	r3, [pc, #176]	@ (8004298 <BSP_PB_Init+0xc4>)
 80041e6:	6cdb      	ldr	r3, [r3, #76]	@ 0x4c
 80041e8:	4a2b      	ldr	r2, [pc, #172]	@ (8004298 <BSP_PB_Init+0xc4>)
 80041ea:	f043 0304 	orr.w	r3, r3, #4
 80041ee:	64d3      	str	r3, [r2, #76]	@ 0x4c
 80041f0:	4b29      	ldr	r3, [pc, #164]	@ (8004298 <BSP_PB_Init+0xc4>)
 80041f2:	6cdb      	ldr	r3, [r3, #76]	@ 0x4c
 80041f4:	f003 0304 	and.w	r3, r3, #4
 80041f8:	60bb      	str	r3, [r7, #8]
 80041fa:	68bb      	ldr	r3, [r7, #8]

  gpio_init_structure.Pin = BUTTON_PIN[Button];
 80041fc:	f44f 5300 	mov.w	r3, #8192	@ 0x2000
 8004200:	60fb      	str	r3, [r7, #12]
  gpio_init_structure.Pull = GPIO_PULLDOWN;
 8004202:	2302      	movs	r3, #2
 8004204:	617b      	str	r3, [r7, #20]
  gpio_init_structure.Speed = GPIO_SPEED_FREQ_HIGH;
 8004206:	2302      	movs	r3, #2
 8004208:	61bb      	str	r3, [r7, #24]

  if(ButtonMode == BUTTON_MODE_GPIO)
 800420a:	79bb      	ldrb	r3, [r7, #6]
 800420c:	2b00      	cmp	r3, #0
 800420e:	d10c      	bne.n	800422a <BSP_PB_Init+0x56>
  {
    /* Configure Button pin as input */
    gpio_init_structure.Mode = GPIO_MODE_INPUT;
 8004210:	2300      	movs	r3, #0
 8004212:	613b      	str	r3, [r7, #16]
    HAL_GPIO_Init(BUTTON_PORT[Button], &gpio_init_structure);
 8004214:	79fb      	ldrb	r3, [r7, #7]
 8004216:	4a21      	ldr	r2, [pc, #132]	@ (800429c <BSP_PB_Init+0xc8>)
 8004218:	f852 3023 	ldr.w	r3, [r2, r3, lsl #2]
 800421c:	f107 020c 	add.w	r2, r7, #12
 8004220:	4611      	mov	r1, r2
 8004222:	4618      	mov	r0, r3
 8004224:	f000 fc88 	bl	8004b38 <HAL_GPIO_Init>
 8004228:	e031      	b.n	800428e <BSP_PB_Init+0xba>
  }
  else /* (ButtonMode == BUTTON_MODE_EXTI) */
  {
    /* Configure Button pin as input with External interrupt */
    gpio_init_structure.Mode = GPIO_MODE_IT_RISING;
 800422a:	f44f 1388 	mov.w	r3, #1114112	@ 0x110000
 800422e:	613b      	str	r3, [r7, #16]

    HAL_GPIO_Init(BUTTON_PORT[Button], &gpio_init_structure);
 8004230:	79fb      	ldrb	r3, [r7, #7]
 8004232:	4a1a      	ldr	r2, [pc, #104]	@ (800429c <BSP_PB_Init+0xc8>)
 8004234:	f852 3023 	ldr.w	r3, [r2, r3, lsl #2]
 8004238:	f107 020c 	add.w	r2, r7, #12
 800423c:	4611      	mov	r1, r2
 800423e:	4618      	mov	r0, r3
 8004240:	f000 fc7a 	bl	8004b38 <HAL_GPIO_Init>

    (void)HAL_EXTI_GetHandle(&hpb_exti[Button], BUTTON_EXTI_LINE[Button]);
 8004244:	79fb      	ldrb	r3, [r7, #7]
 8004246:	00db      	lsls	r3, r3, #3
 8004248:	4a15      	ldr	r2, [pc, #84]	@ (80042a0 <BSP_PB_Init+0xcc>)
 800424a:	441a      	add	r2, r3
 800424c:	79fb      	ldrb	r3, [r7, #7]
 800424e:	4915      	ldr	r1, [pc, #84]	@ (80042a4 <BSP_PB_Init+0xd0>)
 8004250:	f851 3023 	ldr.w	r3, [r1, r3, lsl #2]
 8004254:	4619      	mov	r1, r3
 8004256:	4610      	mov	r0, r2
 8004258:	f000 faaa 	bl	80047b0 <HAL_EXTI_GetHandle>
    (void)HAL_EXTI_RegisterCallback(&hpb_exti[Button],  HAL_EXTI_COMMON_CB_ID, ButtonCallback[Button]);
 800425c:	79fb      	ldrb	r3, [r7, #7]
 800425e:	00db      	lsls	r3, r3, #3
 8004260:	4a0f      	ldr	r2, [pc, #60]	@ (80042a0 <BSP_PB_Init+0xcc>)
 8004262:	1898      	adds	r0, r3, r2
 8004264:	79fb      	ldrb	r3, [r7, #7]
 8004266:	4a10      	ldr	r2, [pc, #64]	@ (80042a8 <BSP_PB_Init+0xd4>)
 8004268:	f852 3023 	ldr.w	r3, [r2, r3, lsl #2]
 800426c:	461a      	mov	r2, r3
 800426e:	2100      	movs	r1, #0
 8004270:	f000 fa81 	bl	8004776 <HAL_EXTI_RegisterCallback>

    /* Enable and set Button EXTI Interrupt to the lowest priority */
    HAL_NVIC_SetPriority((BUTTON_IRQn[Button]), BSP_BUTTON_PRIO[Button], 0x00);
 8004274:	2028      	movs	r0, #40	@ 0x28
 8004276:	79fb      	ldrb	r3, [r7, #7]
 8004278:	4a0c      	ldr	r2, [pc, #48]	@ (80042ac <BSP_PB_Init+0xd8>)
 800427a:	f852 3023 	ldr.w	r3, [r2, r3, lsl #2]
 800427e:	2200      	movs	r2, #0
 8004280:	4619      	mov	r1, r3
 8004282:	f000 fa44 	bl	800470e <HAL_NVIC_SetPriority>
    HAL_NVIC_EnableIRQ((BUTTON_IRQn[Button]));
 8004286:	2328      	movs	r3, #40	@ 0x28
 8004288:	4618      	mov	r0, r3
 800428a:	f000 fa5a 	bl	8004742 <HAL_NVIC_EnableIRQ>
  }

  return BSP_ERROR_NONE;
 800428e:	2300      	movs	r3, #0
}
 8004290:	4618      	mov	r0, r3
 8004292:	3720      	adds	r7, #32
 8004294:	46bd      	mov	sp, r7
 8004296:	bd80      	pop	{r7, pc}
 8004298:	40021000 	.word	0x40021000
 800429c:	200000c8 	.word	0x200000c8
 80042a0:	20000f6c 	.word	0x20000f6c
 80042a4:	080077d0 	.word	0x080077d0
 80042a8:	200000d0 	.word	0x200000d0
 80042ac:	200000d4 	.word	0x200000d4

080042b0 <BSP_PB_Callback>:
  * @brief  BSP Push Button callback
  * @param  Button Specifies the pin connected EXTI line
  * @retval None.
  */
__weak void BSP_PB_Callback(Button_TypeDef Button)
{
 80042b0:	b480      	push	{r7}
 80042b2:	b083      	sub	sp, #12
 80042b4:	af00      	add	r7, sp, #0
 80042b6:	4603      	mov	r3, r0
 80042b8:	71fb      	strb	r3, [r7, #7]
  /* Prevent unused argument(s) compilation warning */
  UNUSED(Button);

  /* This function should be implemented by the user application.
     It is called into this driver when an event on Button is triggered. */
}
 80042ba:	bf00      	nop
 80042bc:	370c      	adds	r7, #12
 80042be:	46bd      	mov	sp, r7
 80042c0:	f85d 7b04 	ldr.w	r7, [sp], #4
 80042c4:	4770      	bx	lr
	...

080042c8 <BSP_COM_Init>:
  * @param  COM_Init Pointer to a UART_HandleTypeDef structure that contains the
  *                  configuration information for the specified USART peripheral.
  * @retval BSP error code
  */
int32_t BSP_COM_Init(COM_TypeDef COM, COM_InitTypeDef *COM_Init)
{
 80042c8:	b580      	push	{r7, lr}
 80042ca:	b084      	sub	sp, #16
 80042cc:	af00      	add	r7, sp, #0
 80042ce:	4603      	mov	r3, r0
 80042d0:	6039      	str	r1, [r7, #0]
 80042d2:	71fb      	strb	r3, [r7, #7]
  int32_t ret = BSP_ERROR_NONE;
 80042d4:	2300      	movs	r3, #0
 80042d6:	60fb      	str	r3, [r7, #12]

  if(COM > COMn)
 80042d8:	79fb      	ldrb	r3, [r7, #7]
 80042da:	2b01      	cmp	r3, #1
 80042dc:	d903      	bls.n	80042e6 <BSP_COM_Init+0x1e>
  {
    ret = BSP_ERROR_WRONG_PARAM;
 80042de:	f06f 0301 	mvn.w	r3, #1
 80042e2:	60fb      	str	r3, [r7, #12]
 80042e4:	e018      	b.n	8004318 <BSP_COM_Init+0x50>
  }
  else
  {
#if (USE_HAL_UART_REGISTER_CALLBACKS == 0)
    /* Init the UART Msp */
    COM1_MspInit(&hcom_uart[COM]);
 80042e6:	79fb      	ldrb	r3, [r7, #7]
 80042e8:	2294      	movs	r2, #148	@ 0x94
 80042ea:	fb02 f303 	mul.w	r3, r2, r3
 80042ee:	4a0d      	ldr	r2, [pc, #52]	@ (8004324 <BSP_COM_Init+0x5c>)
 80042f0:	4413      	add	r3, r2
 80042f2:	4618      	mov	r0, r3
 80042f4:	f000 f852 	bl	800439c <COM1_MspInit>
        return BSP_ERROR_MSP_FAILURE;
      }
    }
#endif

    if(MX_LPUART1_Init(&hcom_uart[COM], COM_Init) != HAL_OK)
 80042f8:	79fb      	ldrb	r3, [r7, #7]
 80042fa:	2294      	movs	r2, #148	@ 0x94
 80042fc:	fb02 f303 	mul.w	r3, r2, r3
 8004300:	4a08      	ldr	r2, [pc, #32]	@ (8004324 <BSP_COM_Init+0x5c>)
 8004302:	4413      	add	r3, r2
 8004304:	6839      	ldr	r1, [r7, #0]
 8004306:	4618      	mov	r0, r3
 8004308:	f000 f80e 	bl	8004328 <MX_LPUART1_Init>
 800430c:	4603      	mov	r3, r0
 800430e:	2b00      	cmp	r3, #0
 8004310:	d002      	beq.n	8004318 <BSP_COM_Init+0x50>
    {
      return BSP_ERROR_PERIPH_FAILURE;
 8004312:	f06f 0303 	mvn.w	r3, #3
 8004316:	e000      	b.n	800431a <BSP_COM_Init+0x52>
    }
  }

  return ret;
 8004318:	68fb      	ldr	r3, [r7, #12]
}
 800431a:	4618      	mov	r0, r3
 800431c:	3710      	adds	r7, #16
 800431e:	46bd      	mov	sp, r7
 8004320:	bd80      	pop	{r7, pc}
 8004322:	bf00      	nop
 8004324:	20000f74 	.word	0x20000f74

08004328 <MX_LPUART1_Init>:
  * @param  COM_Init Pointer to a UART_HandleTypeDef structure that contains the
  *                  configuration information for the specified USART peripheral.
  * @retval HAL error code
  */
__weak HAL_StatusTypeDef MX_LPUART1_Init(UART_HandleTypeDef *huart, MX_UART_InitTypeDef *COM_Init)
{
 8004328:	b580      	push	{r7, lr}
 800432a:	b082      	sub	sp, #8
 800432c:	af00      	add	r7, sp, #0
 800432e:	6078      	str	r0, [r7, #4]
 8004330:	6039      	str	r1, [r7, #0]
  /* USART configuration */
 huart->Instance          = COM_USART[COM1];
 8004332:	4b15      	ldr	r3, [pc, #84]	@ (8004388 <MX_LPUART1_Init+0x60>)
 8004334:	681a      	ldr	r2, [r3, #0]
 8004336:	687b      	ldr	r3, [r7, #4]
 8004338:	601a      	str	r2, [r3, #0]
 huart->Init.BaudRate     = COM_Init->BaudRate;
 800433a:	683b      	ldr	r3, [r7, #0]
 800433c:	681a      	ldr	r2, [r3, #0]
 800433e:	687b      	ldr	r3, [r7, #4]
 8004340:	605a      	str	r2, [r3, #4]
 huart->Init.Mode         = UART_MODE_TX_RX;
 8004342:	687b      	ldr	r3, [r7, #4]
 8004344:	220c      	movs	r2, #12
 8004346:	615a      	str	r2, [r3, #20]
 huart->Init.Parity       = (uint32_t)COM_Init->Parity;
 8004348:	683b      	ldr	r3, [r7, #0]
 800434a:	895b      	ldrh	r3, [r3, #10]
 800434c:	461a      	mov	r2, r3
 800434e:	687b      	ldr	r3, [r7, #4]
 8004350:	611a      	str	r2, [r3, #16]
 huart->Init.WordLength   = COM_Init->WordLength;
 8004352:	683b      	ldr	r3, [r7, #0]
 8004354:	685a      	ldr	r2, [r3, #4]
 8004356:	687b      	ldr	r3, [r7, #4]
 8004358:	609a      	str	r2, [r3, #8]
 huart->Init.StopBits     = (uint32_t)COM_Init->StopBits;
 800435a:	683b      	ldr	r3, [r7, #0]
 800435c:	891b      	ldrh	r3, [r3, #8]
 800435e:	461a      	mov	r2, r3
 8004360:	687b      	ldr	r3, [r7, #4]
 8004362:	60da      	str	r2, [r3, #12]
 huart->Init.HwFlowCtl    = (uint32_t)COM_Init->HwFlowCtl;
 8004364:	683b      	ldr	r3, [r7, #0]
 8004366:	899b      	ldrh	r3, [r3, #12]
 8004368:	461a      	mov	r2, r3
 800436a:	687b      	ldr	r3, [r7, #4]
 800436c:	619a      	str	r2, [r3, #24]
 huart->Init.OverSampling = UART_OVERSAMPLING_8;
 800436e:	687b      	ldr	r3, [r7, #4]
 8004370:	f44f 4200 	mov.w	r2, #32768	@ 0x8000
 8004374:	61da      	str	r2, [r3, #28]

 return HAL_UART_Init(huart);
 8004376:	6878      	ldr	r0, [r7, #4]
 8004378:	f002 f99a 	bl	80066b0 <HAL_UART_Init>
 800437c:	4603      	mov	r3, r0
}
 800437e:	4618      	mov	r0, r3
 8004380:	3708      	adds	r7, #8
 8004382:	46bd      	mov	sp, r7
 8004384:	bd80      	pop	{r7, pc}
 8004386:	bf00      	nop
 8004388:	200000cc 	.word	0x200000cc

0800438c <BUTTON_USER_EXTI_Callback>:
/**
  * @brief  Key EXTI line detection callbacks.
  * @retval BSP status
  */
static void BUTTON_USER_EXTI_Callback(void)
{
 800438c:	b580      	push	{r7, lr}
 800438e:	af00      	add	r7, sp, #0
  BSP_PB_Callback(BUTTON_USER);
 8004390:	2000      	movs	r0, #0
 8004392:	f7ff ff8d 	bl	80042b0 <BSP_PB_Callback>
}
 8004396:	bf00      	nop
 8004398:	bd80      	pop	{r7, pc}
	...

0800439c <COM1_MspInit>:
  * @brief  Initializes COM1 MSP.
  * @param  huart UART handle
  * @retval BSP status
  */
static void COM1_MspInit(UART_HandleTypeDef *huart)
{
 800439c:	b580      	push	{r7, lr}
 800439e:	b08a      	sub	sp, #40	@ 0x28
 80043a0:	af00      	add	r7, sp, #0
 80043a2:	6078      	str	r0, [r7, #4]

  /* Prevent unused argument(s) compilation warning */
  UNUSED(huart);

  /* Enable GPIO clock */
  COM1_TX_GPIO_CLK_ENABLE();
 80043a4:	4b22      	ldr	r3, [pc, #136]	@ (8004430 <COM1_MspInit+0x94>)
 80043a6:	6cdb      	ldr	r3, [r3, #76]	@ 0x4c
 80043a8:	4a21      	ldr	r2, [pc, #132]	@ (8004430 <COM1_MspInit+0x94>)
 80043aa:	f043 0301 	orr.w	r3, r3, #1
 80043ae:	64d3      	str	r3, [r2, #76]	@ 0x4c
 80043b0:	4b1f      	ldr	r3, [pc, #124]	@ (8004430 <COM1_MspInit+0x94>)
 80043b2:	6cdb      	ldr	r3, [r3, #76]	@ 0x4c
 80043b4:	f003 0301 	and.w	r3, r3, #1
 80043b8:	613b      	str	r3, [r7, #16]
 80043ba:	693b      	ldr	r3, [r7, #16]
  COM1_RX_GPIO_CLK_ENABLE();
 80043bc:	4b1c      	ldr	r3, [pc, #112]	@ (8004430 <COM1_MspInit+0x94>)
 80043be:	6cdb      	ldr	r3, [r3, #76]	@ 0x4c
 80043c0:	4a1b      	ldr	r2, [pc, #108]	@ (8004430 <COM1_MspInit+0x94>)
 80043c2:	f043 0301 	orr.w	r3, r3, #1
 80043c6:	64d3      	str	r3, [r2, #76]	@ 0x4c
 80043c8:	4b19      	ldr	r3, [pc, #100]	@ (8004430 <COM1_MspInit+0x94>)
 80043ca:	6cdb      	ldr	r3, [r3, #76]	@ 0x4c
 80043cc:	f003 0301 	and.w	r3, r3, #1
 80043d0:	60fb      	str	r3, [r7, #12]
 80043d2:	68fb      	ldr	r3, [r7, #12]

  /* Enable USART clock */
  COM1_CLK_ENABLE();
 80043d4:	4b16      	ldr	r3, [pc, #88]	@ (8004430 <COM1_MspInit+0x94>)
 80043d6:	6ddb      	ldr	r3, [r3, #92]	@ 0x5c
 80043d8:	4a15      	ldr	r2, [pc, #84]	@ (8004430 <COM1_MspInit+0x94>)
 80043da:	f043 0301 	orr.w	r3, r3, #1
 80043de:	65d3      	str	r3, [r2, #92]	@ 0x5c
 80043e0:	4b13      	ldr	r3, [pc, #76]	@ (8004430 <COM1_MspInit+0x94>)
 80043e2:	6ddb      	ldr	r3, [r3, #92]	@ 0x5c
 80043e4:	f003 0301 	and.w	r3, r3, #1
 80043e8:	60bb      	str	r3, [r7, #8]
 80043ea:	68bb      	ldr	r3, [r7, #8]

  /* Configure USART Tx as alternate function */
  gpio_init_structure.Pin       = COM1_TX_PIN;
 80043ec:	2304      	movs	r3, #4
 80043ee:	617b      	str	r3, [r7, #20]
  gpio_init_structure.Mode      = GPIO_MODE_AF_PP;
 80043f0:	2302      	movs	r3, #2
 80043f2:	61bb      	str	r3, [r7, #24]
  gpio_init_structure.Speed     = GPIO_SPEED_FREQ_HIGH;
 80043f4:	2302      	movs	r3, #2
 80043f6:	623b      	str	r3, [r7, #32]
  gpio_init_structure.Pull      = GPIO_PULLUP;
 80043f8:	2301      	movs	r3, #1
 80043fa:	61fb      	str	r3, [r7, #28]
  gpio_init_structure.Alternate = COM1_TX_AF;
 80043fc:	230c      	movs	r3, #12
 80043fe:	627b      	str	r3, [r7, #36]	@ 0x24
  HAL_GPIO_Init(COM1_TX_GPIO_PORT, &gpio_init_structure);
 8004400:	f107 0314 	add.w	r3, r7, #20
 8004404:	4619      	mov	r1, r3
 8004406:	f04f 4090 	mov.w	r0, #1207959552	@ 0x48000000
 800440a:	f000 fb95 	bl	8004b38 <HAL_GPIO_Init>

  /* Configure USART Rx as alternate function */
  gpio_init_structure.Pin = COM1_RX_PIN;
 800440e:	2308      	movs	r3, #8
 8004410:	617b      	str	r3, [r7, #20]
  gpio_init_structure.Mode = GPIO_MODE_AF_PP;
 8004412:	2302      	movs	r3, #2
 8004414:	61bb      	str	r3, [r7, #24]
  gpio_init_structure.Alternate = COM1_RX_AF;
 8004416:	230c      	movs	r3, #12
 8004418:	627b      	str	r3, [r7, #36]	@ 0x24
  HAL_GPIO_Init(COM1_RX_GPIO_PORT, &gpio_init_structure);
 800441a:	f107 0314 	add.w	r3, r7, #20
 800441e:	4619      	mov	r1, r3
 8004420:	f04f 4090 	mov.w	r0, #1207959552	@ 0x48000000
 8004424:	f000 fb88 	bl	8004b38 <HAL_GPIO_Init>
}
 8004428:	bf00      	nop
 800442a:	3728      	adds	r7, #40	@ 0x28
 800442c:	46bd      	mov	sp, r7
 800442e:	bd80      	pop	{r7, pc}
 8004430:	40021000 	.word	0x40021000

08004434 <HAL_Init>:
  *         each 1ms in the SysTick_Handler() interrupt handler.
  *
  * @retval HAL status
  */
HAL_StatusTypeDef HAL_Init(void)
{
 8004434:	b580      	push	{r7, lr}
 8004436:	b082      	sub	sp, #8
 8004438:	af00      	add	r7, sp, #0
  HAL_StatusTypeDef  status = HAL_OK;
 800443a:	2300      	movs	r3, #0
 800443c:	71fb      	strb	r3, [r7, #7]
#if (PREFETCH_ENABLE != 0U)
  __HAL_FLASH_PREFETCH_BUFFER_ENABLE();
#endif /* PREFETCH_ENABLE */

  /* Set Interrupt Group Priority */
  HAL_NVIC_SetPriorityGrouping(NVIC_PRIORITYGROUP_4);
 800443e:	2003      	movs	r0, #3
 8004440:	f000 f95a 	bl	80046f8 <HAL_NVIC_SetPriorityGrouping>

  /* Use SysTick as time base source and configure 1ms tick (default clock after Reset is HSI) */
  if (HAL_InitTick(TICK_INT_PRIORITY) != HAL_OK)
 8004444:	2000      	movs	r0, #0
 8004446:	f000 f80d 	bl	8004464 <HAL_InitTick>
 800444a:	4603      	mov	r3, r0
 800444c:	2b00      	cmp	r3, #0
 800444e:	d002      	beq.n	8004456 <HAL_Init+0x22>
  {
    status = HAL_ERROR;
 8004450:	2301      	movs	r3, #1
 8004452:	71fb      	strb	r3, [r7, #7]
 8004454:	e001      	b.n	800445a <HAL_Init+0x26>
  }
  else
  {
    /* Init the low level hardware */
    HAL_MspInit();
 8004456:	f7ff fd59 	bl	8003f0c <HAL_MspInit>
  }

  /* Return function status */
  return status;
 800445a:	79fb      	ldrb	r3, [r7, #7]

}
 800445c:	4618      	mov	r0, r3
 800445e:	3708      	adds	r7, #8
 8004460:	46bd      	mov	sp, r7
 8004462:	bd80      	pop	{r7, pc}

08004464 <HAL_InitTick>:
  *       implementation  in user file.
  * @param TickPriority: Tick interrupt priority.
  * @retval HAL status
  */
__weak HAL_StatusTypeDef HAL_InitTick(uint32_t TickPriority)
{
 8004464:	b580      	push	{r7, lr}
 8004466:	b084      	sub	sp, #16
 8004468:	af00      	add	r7, sp, #0
 800446a:	6078      	str	r0, [r7, #4]
  HAL_StatusTypeDef  status = HAL_OK;
 800446c:	2300      	movs	r3, #0
 800446e:	73fb      	strb	r3, [r7, #15]

  if (uwTickFreq != 0U)
 8004470:	4b16      	ldr	r3, [pc, #88]	@ (80044cc <HAL_InitTick+0x68>)
 8004472:	681b      	ldr	r3, [r3, #0]
 8004474:	2b00      	cmp	r3, #0
 8004476:	d022      	beq.n	80044be <HAL_InitTick+0x5a>
  {
    /* Configure the SysTick to have interrupt in 1ms time basis*/
    if (HAL_SYSTICK_Config(SystemCoreClock / (1000U / uwTickFreq)) == 0U)
 8004478:	4b15      	ldr	r3, [pc, #84]	@ (80044d0 <HAL_InitTick+0x6c>)
 800447a:	681a      	ldr	r2, [r3, #0]
 800447c:	4b13      	ldr	r3, [pc, #76]	@ (80044cc <HAL_InitTick+0x68>)
 800447e:	681b      	ldr	r3, [r3, #0]
 8004480:	f44f 717a 	mov.w	r1, #1000	@ 0x3e8
 8004484:	fbb1 f3f3 	udiv	r3, r1, r3
 8004488:	fbb2 f3f3 	udiv	r3, r2, r3
 800448c:	4618      	mov	r0, r3
 800448e:	f000 f966 	bl	800475e <HAL_SYSTICK_Config>
 8004492:	4603      	mov	r3, r0
 8004494:	2b00      	cmp	r3, #0
 8004496:	d10f      	bne.n	80044b8 <HAL_InitTick+0x54>
    {
      /* Configure the SysTick IRQ priority */
      if (TickPriority < (1UL << __NVIC_PRIO_BITS))
 8004498:	687b      	ldr	r3, [r7, #4]
 800449a:	2b0f      	cmp	r3, #15
 800449c:	d809      	bhi.n	80044b2 <HAL_InitTick+0x4e>
      {
        HAL_NVIC_SetPriority(SysTick_IRQn, TickPriority, 0U);
 800449e:	2200      	movs	r2, #0
 80044a0:	6879      	ldr	r1, [r7, #4]
 80044a2:	f04f 30ff 	mov.w	r0, #4294967295	@ 0xffffffff
 80044a6:	f000 f932 	bl	800470e <HAL_NVIC_SetPriority>
        uwTickPrio = TickPriority;
 80044aa:	4a0a      	ldr	r2, [pc, #40]	@ (80044d4 <HAL_InitTick+0x70>)
 80044ac:	687b      	ldr	r3, [r7, #4]
 80044ae:	6013      	str	r3, [r2, #0]
 80044b0:	e007      	b.n	80044c2 <HAL_InitTick+0x5e>
      }
      else
      {
        status = HAL_ERROR;
 80044b2:	2301      	movs	r3, #1
 80044b4:	73fb      	strb	r3, [r7, #15]
 80044b6:	e004      	b.n	80044c2 <HAL_InitTick+0x5e>
      }
    }
    else
    {
      status = HAL_ERROR;
 80044b8:	2301      	movs	r3, #1
 80044ba:	73fb      	strb	r3, [r7, #15]
 80044bc:	e001      	b.n	80044c2 <HAL_InitTick+0x5e>
    }
  }
  else
  {
    status = HAL_ERROR;
 80044be:	2301      	movs	r3, #1
 80044c0:	73fb      	strb	r3, [r7, #15]
  }

  /* Return function status */
  return status;
 80044c2:	7bfb      	ldrb	r3, [r7, #15]
}
 80044c4:	4618      	mov	r0, r3
 80044c6:	3710      	adds	r7, #16
 80044c8:	46bd      	mov	sp, r7
 80044ca:	bd80      	pop	{r7, pc}
 80044cc:	200000dc 	.word	0x200000dc
 80044d0:	200000c0 	.word	0x200000c0
 80044d4:	200000d8 	.word	0x200000d8

080044d8 <HAL_IncTick>:
  * @note This function is declared as __weak to be overwritten in case of other
  *      implementations in user file.
  * @retval None
  */
__weak void HAL_IncTick(void)
{
 80044d8:	b480      	push	{r7}
 80044da:	af00      	add	r7, sp, #0
  uwTick += uwTickFreq;
 80044dc:	4b05      	ldr	r3, [pc, #20]	@ (80044f4 <HAL_IncTick+0x1c>)
 80044de:	681a      	ldr	r2, [r3, #0]
 80044e0:	4b05      	ldr	r3, [pc, #20]	@ (80044f8 <HAL_IncTick+0x20>)
 80044e2:	681b      	ldr	r3, [r3, #0]
 80044e4:	4413      	add	r3, r2
 80044e6:	4a03      	ldr	r2, [pc, #12]	@ (80044f4 <HAL_IncTick+0x1c>)
 80044e8:	6013      	str	r3, [r2, #0]
}
 80044ea:	bf00      	nop
 80044ec:	46bd      	mov	sp, r7
 80044ee:	f85d 7b04 	ldr.w	r7, [sp], #4
 80044f2:	4770      	bx	lr
 80044f4:	20001008 	.word	0x20001008
 80044f8:	200000dc 	.word	0x200000dc

080044fc <HAL_GetTick>:
  * @note This function is declared as __weak to be overwritten in case of other
  *       implementations in user file.
  * @retval tick value
  */
__weak uint32_t HAL_GetTick(void)
{
 80044fc:	b480      	push	{r7}
 80044fe:	af00      	add	r7, sp, #0
  return uwTick;
 8004500:	4b03      	ldr	r3, [pc, #12]	@ (8004510 <HAL_GetTick+0x14>)
 8004502:	681b      	ldr	r3, [r3, #0]
}
 8004504:	4618      	mov	r0, r3
 8004506:	46bd      	mov	sp, r7
 8004508:	f85d 7b04 	ldr.w	r7, [sp], #4
 800450c:	4770      	bx	lr
 800450e:	bf00      	nop
 8004510:	20001008 	.word	0x20001008

08004514 <HAL_Delay>:
  *       implementations in user file.
  * @param Delay specifies the delay time length, in milliseconds.
  * @retval None
  */
__weak void HAL_Delay(uint32_t Delay)
{
 8004514:	b580      	push	{r7, lr}
 8004516:	b084      	sub	sp, #16
 8004518:	af00      	add	r7, sp, #0
 800451a:	6078      	str	r0, [r7, #4]
  uint32_t tickstart = HAL_GetTick();
 800451c:	f7ff ffee 	bl	80044fc <HAL_GetTick>
 8004520:	60b8      	str	r0, [r7, #8]
  uint32_t wait = Delay;
 8004522:	687b      	ldr	r3, [r7, #4]
 8004524:	60fb      	str	r3, [r7, #12]

  /* Add a freq to guarantee minimum wait */
  if (wait < HAL_MAX_DELAY)
 8004526:	68fb      	ldr	r3, [r7, #12]
 8004528:	f1b3 3fff 	cmp.w	r3, #4294967295	@ 0xffffffff
 800452c:	d004      	beq.n	8004538 <HAL_Delay+0x24>
  {
    wait += (uint32_t)(uwTickFreq);
 800452e:	4b09      	ldr	r3, [pc, #36]	@ (8004554 <HAL_Delay+0x40>)
 8004530:	681b      	ldr	r3, [r3, #0]
 8004532:	68fa      	ldr	r2, [r7, #12]
 8004534:	4413      	add	r3, r2
 8004536:	60fb      	str	r3, [r7, #12]
  }

  while ((HAL_GetTick() - tickstart) < wait)
 8004538:	bf00      	nop
 800453a:	f7ff ffdf 	bl	80044fc <HAL_GetTick>
 800453e:	4602      	mov	r2, r0
 8004540:	68bb      	ldr	r3, [r7, #8]
 8004542:	1ad3      	subs	r3, r2, r3
 8004544:	68fa      	ldr	r2, [r7, #12]
 8004546:	429a      	cmp	r2, r3
 8004548:	d8f7      	bhi.n	800453a <HAL_Delay+0x26>
  {
  }
}
 800454a:	bf00      	nop
 800454c:	bf00      	nop
 800454e:	3710      	adds	r7, #16
 8004550:	46bd      	mov	sp, r7
 8004552:	bd80      	pop	{r7, pc}
 8004554:	200000dc 	.word	0x200000dc

08004558 <__NVIC_SetPriorityGrouping>:
           In case of a conflict between priority grouping and available
           priority bits (__NVIC_PRIO_BITS), the smallest possible priority group is set.
  \param [in]      PriorityGroup  Priority grouping field.
 */
__STATIC_INLINE void __NVIC_SetPriorityGrouping(uint32_t PriorityGroup)
{
 8004558:	b480      	push	{r7}
 800455a:	b085      	sub	sp, #20
 800455c:	af00      	add	r7, sp, #0
 800455e:	6078      	str	r0, [r7, #4]
  uint32_t reg_value;
  uint32_t PriorityGroupTmp = (PriorityGroup & (uint32_t)0x07UL);             /* only values 0..7 are used          */
 8004560:	687b      	ldr	r3, [r7, #4]
 8004562:	f003 0307 	and.w	r3, r3, #7
 8004566:	60fb      	str	r3, [r7, #12]

  reg_value  =  SCB->AIRCR;                                                   /* read old register configuration    */
 8004568:	4b0c      	ldr	r3, [pc, #48]	@ (800459c <__NVIC_SetPriorityGrouping+0x44>)
 800456a:	68db      	ldr	r3, [r3, #12]
 800456c:	60bb      	str	r3, [r7, #8]
  reg_value &= ~((uint32_t)(SCB_AIRCR_VECTKEY_Msk | SCB_AIRCR_PRIGROUP_Msk)); /* clear bits to change               */
 800456e:	68ba      	ldr	r2, [r7, #8]
 8004570:	f64f 03ff 	movw	r3, #63743	@ 0xf8ff
 8004574:	4013      	ands	r3, r2
 8004576:	60bb      	str	r3, [r7, #8]
  reg_value  =  (reg_value                                   |
                ((uint32_t)0x5FAUL << SCB_AIRCR_VECTKEY_Pos) |
                (PriorityGroupTmp << SCB_AIRCR_PRIGROUP_Pos)  );              /* Insert write key and priority group */
 8004578:	68fb      	ldr	r3, [r7, #12]
 800457a:	021a      	lsls	r2, r3, #8
                ((uint32_t)0x5FAUL << SCB_AIRCR_VECTKEY_Pos) |
 800457c:	68bb      	ldr	r3, [r7, #8]
 800457e:	4313      	orrs	r3, r2
  reg_value  =  (reg_value                                   |
 8004580:	f043 63bf 	orr.w	r3, r3, #100139008	@ 0x5f80000
 8004584:	f443 3300 	orr.w	r3, r3, #131072	@ 0x20000
 8004588:	60bb      	str	r3, [r7, #8]
  SCB->AIRCR =  reg_value;
 800458a:	4a04      	ldr	r2, [pc, #16]	@ (800459c <__NVIC_SetPriorityGrouping+0x44>)
 800458c:	68bb      	ldr	r3, [r7, #8]
 800458e:	60d3      	str	r3, [r2, #12]
}
 8004590:	bf00      	nop
 8004592:	3714      	adds	r7, #20
 8004594:	46bd      	mov	sp, r7
 8004596:	f85d 7b04 	ldr.w	r7, [sp], #4
 800459a:	4770      	bx	lr
 800459c:	e000ed00 	.word	0xe000ed00

080045a0 <__NVIC_GetPriorityGrouping>:
  \brief   Get Priority Grouping
  \details Reads the priority grouping field from the NVIC Interrupt Controller.
  \return                Priority grouping field (SCB->AIRCR [10:8] PRIGROUP field).
 */
__STATIC_INLINE uint32_t __NVIC_GetPriorityGrouping(void)
{
 80045a0:	b480      	push	{r7}
 80045a2:	af00      	add	r7, sp, #0
  return ((uint32_t)((SCB->AIRCR & SCB_AIRCR_PRIGROUP_Msk) >> SCB_AIRCR_PRIGROUP_Pos));
 80045a4:	4b04      	ldr	r3, [pc, #16]	@ (80045b8 <__NVIC_GetPriorityGrouping+0x18>)
 80045a6:	68db      	ldr	r3, [r3, #12]
 80045a8:	0a1b      	lsrs	r3, r3, #8
 80045aa:	f003 0307 	and.w	r3, r3, #7
}
 80045ae:	4618      	mov	r0, r3
 80045b0:	46bd      	mov	sp, r7
 80045b2:	f85d 7b04 	ldr.w	r7, [sp], #4
 80045b6:	4770      	bx	lr
 80045b8:	e000ed00 	.word	0xe000ed00

080045bc <__NVIC_EnableIRQ>:
  \details Enables a device specific interrupt in the NVIC interrupt controller.
  \param [in]      IRQn  Device specific interrupt number.
  \note    IRQn must not be negative.
 */
__STATIC_INLINE void __NVIC_EnableIRQ(IRQn_Type IRQn)
{
 80045bc:	b480      	push	{r7}
 80045be:	b083      	sub	sp, #12
 80045c0:	af00      	add	r7, sp, #0
 80045c2:	4603      	mov	r3, r0
 80045c4:	71fb      	strb	r3, [r7, #7]
  if ((int32_t)(IRQn) >= 0)
 80045c6:	f997 3007 	ldrsb.w	r3, [r7, #7]
 80045ca:	2b00      	cmp	r3, #0
 80045cc:	db0b      	blt.n	80045e6 <__NVIC_EnableIRQ+0x2a>
  {
    __COMPILER_BARRIER();
    NVIC->ISER[(((uint32_t)IRQn) >> 5UL)] = (uint32_t)(1UL << (((uint32_t)IRQn) & 0x1FUL));
 80045ce:	79fb      	ldrb	r3, [r7, #7]
 80045d0:	f003 021f 	and.w	r2, r3, #31
 80045d4:	4907      	ldr	r1, [pc, #28]	@ (80045f4 <__NVIC_EnableIRQ+0x38>)
 80045d6:	f997 3007 	ldrsb.w	r3, [r7, #7]
 80045da:	095b      	lsrs	r3, r3, #5
 80045dc:	2001      	movs	r0, #1
 80045de:	fa00 f202 	lsl.w	r2, r0, r2
 80045e2:	f841 2023 	str.w	r2, [r1, r3, lsl #2]
    __COMPILER_BARRIER();
  }
}
 80045e6:	bf00      	nop
 80045e8:	370c      	adds	r7, #12
 80045ea:	46bd      	mov	sp, r7
 80045ec:	f85d 7b04 	ldr.w	r7, [sp], #4
 80045f0:	4770      	bx	lr
 80045f2:	bf00      	nop
 80045f4:	e000e100 	.word	0xe000e100

080045f8 <__NVIC_SetPriority>:
  \param [in]      IRQn  Interrupt number.
  \param [in]  priority  Priority to set.
  \note    The priority cannot be set for every processor exception.
 */
__STATIC_INLINE void __NVIC_SetPriority(IRQn_Type IRQn, uint32_t priority)
{
 80045f8:	b480      	push	{r7}
 80045fa:	b083      	sub	sp, #12
 80045fc:	af00      	add	r7, sp, #0
 80045fe:	4603      	mov	r3, r0
 8004600:	6039      	str	r1, [r7, #0]
 8004602:	71fb      	strb	r3, [r7, #7]
  if ((int32_t)(IRQn) >= 0)
 8004604:	f997 3007 	ldrsb.w	r3, [r7, #7]
 8004608:	2b00      	cmp	r3, #0
 800460a:	db0a      	blt.n	8004622 <__NVIC_SetPriority+0x2a>
  {
    NVIC->IP[((uint32_t)IRQn)]               = (uint8_t)((priority << (8U - __NVIC_PRIO_BITS)) & (uint32_t)0xFFUL);
 800460c:	683b      	ldr	r3, [r7, #0]
 800460e:	b2da      	uxtb	r2, r3
 8004610:	490c      	ldr	r1, [pc, #48]	@ (8004644 <__NVIC_SetPriority+0x4c>)
 8004612:	f997 3007 	ldrsb.w	r3, [r7, #7]
 8004616:	0112      	lsls	r2, r2, #4
 8004618:	b2d2      	uxtb	r2, r2
 800461a:	440b      	add	r3, r1
 800461c:	f883 2300 	strb.w	r2, [r3, #768]	@ 0x300
  }
  else
  {
    SCB->SHP[(((uint32_t)IRQn) & 0xFUL)-4UL] = (uint8_t)((priority << (8U - __NVIC_PRIO_BITS)) & (uint32_t)0xFFUL);
  }
}
 8004620:	e00a      	b.n	8004638 <__NVIC_SetPriority+0x40>
    SCB->SHP[(((uint32_t)IRQn) & 0xFUL)-4UL] = (uint8_t)((priority << (8U - __NVIC_PRIO_BITS)) & (uint32_t)0xFFUL);
 8004622:	683b      	ldr	r3, [r7, #0]
 8004624:	b2da      	uxtb	r2, r3
 8004626:	4908      	ldr	r1, [pc, #32]	@ (8004648 <__NVIC_SetPriority+0x50>)
 8004628:	79fb      	ldrb	r3, [r7, #7]
 800462a:	f003 030f 	and.w	r3, r3, #15
 800462e:	3b04      	subs	r3, #4
 8004630:	0112      	lsls	r2, r2, #4
 8004632:	b2d2      	uxtb	r2, r2
 8004634:	440b      	add	r3, r1
 8004636:	761a      	strb	r2, [r3, #24]
}
 8004638:	bf00      	nop
 800463a:	370c      	adds	r7, #12
 800463c:	46bd      	mov	sp, r7
 800463e:	f85d 7b04 	ldr.w	r7, [sp], #4
 8004642:	4770      	bx	lr
 8004644:	e000e100 	.word	0xe000e100
 8004648:	e000ed00 	.word	0xe000ed00

0800464c <NVIC_EncodePriority>:
  \param [in]   PreemptPriority  Preemptive priority value (starting from 0).
  \param [in]       SubPriority  Subpriority value (starting from 0).
  \return                        Encoded priority. Value can be used in the function \ref NVIC_SetPriority().
 */
__STATIC_INLINE uint32_t NVIC_EncodePriority (uint32_t PriorityGroup, uint32_t PreemptPriority, uint32_t SubPriority)
{
 800464c:	b480      	push	{r7}
 800464e:	b089      	sub	sp, #36	@ 0x24
 8004650:	af00      	add	r7, sp, #0
 8004652:	60f8      	str	r0, [r7, #12]
 8004654:	60b9      	str	r1, [r7, #8]
 8004656:	607a      	str	r2, [r7, #4]
  uint32_t PriorityGroupTmp = (PriorityGroup & (uint32_t)0x07UL);   /* only values 0..7 are used          */
 8004658:	68fb      	ldr	r3, [r7, #12]
 800465a:	f003 0307 	and.w	r3, r3, #7
 800465e:	61fb      	str	r3, [r7, #28]
  uint32_t PreemptPriorityBits;
  uint32_t SubPriorityBits;

  PreemptPriorityBits = ((7UL - PriorityGroupTmp) > (uint32_t)(__NVIC_PRIO_BITS)) ? (uint32_t)(__NVIC_PRIO_BITS) : (uint32_t)(7UL - PriorityGroupTmp);
 8004660:	69fb      	ldr	r3, [r7, #28]
 8004662:	f1c3 0307 	rsb	r3, r3, #7
 8004666:	2b04      	cmp	r3, #4
 8004668:	bf28      	it	cs
 800466a:	2304      	movcs	r3, #4
 800466c:	61bb      	str	r3, [r7, #24]
  SubPriorityBits     = ((PriorityGroupTmp + (uint32_t)(__NVIC_PRIO_BITS)) < (uint32_t)7UL) ? (uint32_t)0UL : (uint32_t)((PriorityGroupTmp - 7UL) + (uint32_t)(__NVIC_PRIO_BITS));
 800466e:	69fb      	ldr	r3, [r7, #28]
 8004670:	3304      	adds	r3, #4
 8004672:	2b06      	cmp	r3, #6
 8004674:	d902      	bls.n	800467c <NVIC_EncodePriority+0x30>
 8004676:	69fb      	ldr	r3, [r7, #28]
 8004678:	3b03      	subs	r3, #3
 800467a:	e000      	b.n	800467e <NVIC_EncodePriority+0x32>
 800467c:	2300      	movs	r3, #0
 800467e:	617b      	str	r3, [r7, #20]

  return (
           ((PreemptPriority & (uint32_t)((1UL << (PreemptPriorityBits)) - 1UL)) << SubPriorityBits) |
 8004680:	f04f 32ff 	mov.w	r2, #4294967295	@ 0xffffffff
 8004684:	69bb      	ldr	r3, [r7, #24]
 8004686:	fa02 f303 	lsl.w	r3, r2, r3
 800468a:	43da      	mvns	r2, r3
 800468c:	68bb      	ldr	r3, [r7, #8]
 800468e:	401a      	ands	r2, r3
 8004690:	697b      	ldr	r3, [r7, #20]
 8004692:	409a      	lsls	r2, r3
           ((SubPriority     & (uint32_t)((1UL << (SubPriorityBits    )) - 1UL)))
 8004694:	f04f 31ff 	mov.w	r1, #4294967295	@ 0xffffffff
 8004698:	697b      	ldr	r3, [r7, #20]
 800469a:	fa01 f303 	lsl.w	r3, r1, r3
 800469e:	43d9      	mvns	r1, r3
 80046a0:	687b      	ldr	r3, [r7, #4]
 80046a2:	400b      	ands	r3, r1
           ((PreemptPriority & (uint32_t)((1UL << (PreemptPriorityBits)) - 1UL)) << SubPriorityBits) |
 80046a4:	4313      	orrs	r3, r2
         );
}
 80046a6:	4618      	mov	r0, r3
 80046a8:	3724      	adds	r7, #36	@ 0x24
 80046aa:	46bd      	mov	sp, r7
 80046ac:	f85d 7b04 	ldr.w	r7, [sp], #4
 80046b0:	4770      	bx	lr
	...

080046b4 <SysTick_Config>:
  \note    When the variable <b>__Vendor_SysTickConfig</b> is set to 1, then the
           function <b>SysTick_Config</b> is not included. In this case, the file <b><i>device</i>.h</b>
           must contain a vendor-specific implementation of this function.
 */
__STATIC_INLINE uint32_t SysTick_Config(uint32_t ticks)
{
 80046b4:	b580      	push	{r7, lr}
 80046b6:	b082      	sub	sp, #8
 80046b8:	af00      	add	r7, sp, #0
 80046ba:	6078      	str	r0, [r7, #4]
  if ((ticks - 1UL) > SysTick_LOAD_RELOAD_Msk)
 80046bc:	687b      	ldr	r3, [r7, #4]
 80046be:	3b01      	subs	r3, #1
 80046c0:	f1b3 7f80 	cmp.w	r3, #16777216	@ 0x1000000
 80046c4:	d301      	bcc.n	80046ca <SysTick_Config+0x16>
  {
    return (1UL);                                                   /* Reload value impossible */
 80046c6:	2301      	movs	r3, #1
 80046c8:	e00f      	b.n	80046ea <SysTick_Config+0x36>
  }

  SysTick->LOAD  = (uint32_t)(ticks - 1UL);                         /* set reload register */
 80046ca:	4a0a      	ldr	r2, [pc, #40]	@ (80046f4 <SysTick_Config+0x40>)
 80046cc:	687b      	ldr	r3, [r7, #4]
 80046ce:	3b01      	subs	r3, #1
 80046d0:	6053      	str	r3, [r2, #4]
  NVIC_SetPriority (SysTick_IRQn, (1UL << __NVIC_PRIO_BITS) - 1UL); /* set Priority for Systick Interrupt */
 80046d2:	210f      	movs	r1, #15
 80046d4:	f04f 30ff 	mov.w	r0, #4294967295	@ 0xffffffff
 80046d8:	f7ff ff8e 	bl	80045f8 <__NVIC_SetPriority>
  SysTick->VAL   = 0UL;                                             /* Load the SysTick Counter Value */
 80046dc:	4b05      	ldr	r3, [pc, #20]	@ (80046f4 <SysTick_Config+0x40>)
 80046de:	2200      	movs	r2, #0
 80046e0:	609a      	str	r2, [r3, #8]
  SysTick->CTRL  = SysTick_CTRL_CLKSOURCE_Msk |
 80046e2:	4b04      	ldr	r3, [pc, #16]	@ (80046f4 <SysTick_Config+0x40>)
 80046e4:	2207      	movs	r2, #7
 80046e6:	601a      	str	r2, [r3, #0]
                   SysTick_CTRL_TICKINT_Msk   |
                   SysTick_CTRL_ENABLE_Msk;                         /* Enable SysTick IRQ and SysTick Timer */
  return (0UL);                                                     /* Function successful */
 80046e8:	2300      	movs	r3, #0
}
 80046ea:	4618      	mov	r0, r3
 80046ec:	3708      	adds	r7, #8
 80046ee:	46bd      	mov	sp, r7
 80046f0:	bd80      	pop	{r7, pc}
 80046f2:	bf00      	nop
 80046f4:	e000e010 	.word	0xe000e010

080046f8 <HAL_NVIC_SetPriorityGrouping>:
  * @note   When the NVIC_PriorityGroup_0 is selected, IRQ pre-emption is no more possible.
  *         The pending IRQ priority will be managed only by the subpriority.
  * @retval None
  */
void HAL_NVIC_SetPriorityGrouping(uint32_t PriorityGroup)
{
 80046f8:	b580      	push	{r7, lr}
 80046fa:	b082      	sub	sp, #8
 80046fc:	af00      	add	r7, sp, #0
 80046fe:	6078      	str	r0, [r7, #4]
  /* Check the parameters */
  assert_param(IS_NVIC_PRIORITY_GROUP(PriorityGroup));

  /* Set the PRIGROUP[10:8] bits according to the PriorityGroup parameter value */
  NVIC_SetPriorityGrouping(PriorityGroup);
 8004700:	6878      	ldr	r0, [r7, #4]
 8004702:	f7ff ff29 	bl	8004558 <__NVIC_SetPriorityGrouping>
}
 8004706:	bf00      	nop
 8004708:	3708      	adds	r7, #8
 800470a:	46bd      	mov	sp, r7
 800470c:	bd80      	pop	{r7, pc}

0800470e <HAL_NVIC_SetPriority>:
  *         This parameter can be a value between 0 and 15
  *         A lower priority value indicates a higher priority.
  * @retval None
  */
void HAL_NVIC_SetPriority(IRQn_Type IRQn, uint32_t PreemptPriority, uint32_t SubPriority)
{
 800470e:	b580      	push	{r7, lr}
 8004710:	b086      	sub	sp, #24
 8004712:	af00      	add	r7, sp, #0
 8004714:	4603      	mov	r3, r0
 8004716:	60b9      	str	r1, [r7, #8]
 8004718:	607a      	str	r2, [r7, #4]
 800471a:	73fb      	strb	r3, [r7, #15]

  /* Check the parameters */
  assert_param(IS_NVIC_SUB_PRIORITY(SubPriority));
  assert_param(IS_NVIC_PREEMPTION_PRIORITY(PreemptPriority));

  prioritygroup = NVIC_GetPriorityGrouping();
 800471c:	f7ff ff40 	bl	80045a0 <__NVIC_GetPriorityGrouping>
 8004720:	6178      	str	r0, [r7, #20]

  NVIC_SetPriority(IRQn, NVIC_EncodePriority(prioritygroup, PreemptPriority, SubPriority));
 8004722:	687a      	ldr	r2, [r7, #4]
 8004724:	68b9      	ldr	r1, [r7, #8]
 8004726:	6978      	ldr	r0, [r7, #20]
 8004728:	f7ff ff90 	bl	800464c <NVIC_EncodePriority>
 800472c:	4602      	mov	r2, r0
 800472e:	f997 300f 	ldrsb.w	r3, [r7, #15]
 8004732:	4611      	mov	r1, r2
 8004734:	4618      	mov	r0, r3
 8004736:	f7ff ff5f 	bl	80045f8 <__NVIC_SetPriority>
}
 800473a:	bf00      	nop
 800473c:	3718      	adds	r7, #24
 800473e:	46bd      	mov	sp, r7
 8004740:	bd80      	pop	{r7, pc}

08004742 <HAL_NVIC_EnableIRQ>:
  *         This parameter can be an enumerator of IRQn_Type enumeration
  *         (For the complete STM32 Devices IRQ Channels list, please refer to the appropriate CMSIS device file (stm32g4xxxx.h))
  * @retval None
  */
void HAL_NVIC_EnableIRQ(IRQn_Type IRQn)
{
 8004742:	b580      	push	{r7, lr}
 8004744:	b082      	sub	sp, #8
 8004746:	af00      	add	r7, sp, #0
 8004748:	4603      	mov	r3, r0
 800474a:	71fb      	strb	r3, [r7, #7]
  /* Check the parameters */
  assert_param(IS_NVIC_DEVICE_IRQ(IRQn));
  
  /* Enable interrupt */
  NVIC_EnableIRQ(IRQn);
 800474c:	f997 3007 	ldrsb.w	r3, [r7, #7]
 8004750:	4618      	mov	r0, r3
 8004752:	f7ff ff33 	bl	80045bc <__NVIC_EnableIRQ>
}
 8004756:	bf00      	nop
 8004758:	3708      	adds	r7, #8
 800475a:	46bd      	mov	sp, r7
 800475c:	bd80      	pop	{r7, pc}

0800475e <HAL_SYSTICK_Config>:
  * @param  TicksNumb: Specifies the ticks Number of ticks between two interrupts.
  * @retval status:  - 0  Function succeeded.
  *                  - 1  Function failed.
  */
uint32_t HAL_SYSTICK_Config(uint32_t TicksNumb)
{
 800475e:	b580      	push	{r7, lr}
 8004760:	b082      	sub	sp, #8
 8004762:	af00      	add	r7, sp, #0
 8004764:	6078      	str	r0, [r7, #4]
   return SysTick_Config(TicksNumb);
 8004766:	6878      	ldr	r0, [r7, #4]
 8004768:	f7ff ffa4 	bl	80046b4 <SysTick_Config>
 800476c:	4603      	mov	r3, r0
}
 800476e:	4618      	mov	r0, r3
 8004770:	3708      	adds	r7, #8
 8004772:	46bd      	mov	sp, r7
 8004774:	bd80      	pop	{r7, pc}

08004776 <HAL_EXTI_RegisterCallback>:
  *         This parameter can be one of @arg @ref EXTI_CallbackIDTypeDef values.
  * @param  pPendingCbfn function pointer to be stored as callback.
  * @retval HAL Status.
  */
HAL_StatusTypeDef HAL_EXTI_RegisterCallback(EXTI_HandleTypeDef *hexti, EXTI_CallbackIDTypeDef CallbackID, void (*pPendingCbfn)(void))
{
 8004776:	b480      	push	{r7}
 8004778:	b087      	sub	sp, #28
 800477a:	af00      	add	r7, sp, #0
 800477c:	60f8      	str	r0, [r7, #12]
 800477e:	460b      	mov	r3, r1
 8004780:	607a      	str	r2, [r7, #4]
 8004782:	72fb      	strb	r3, [r7, #11]
  HAL_StatusTypeDef status = HAL_OK;
 8004784:	2300      	movs	r3, #0
 8004786:	75fb      	strb	r3, [r7, #23]

  /* Check the parameters */
  assert_param(IS_EXTI_CB(CallbackID));

  switch (CallbackID)
 8004788:	7afb      	ldrb	r3, [r7, #11]
 800478a:	2b00      	cmp	r3, #0
 800478c:	d103      	bne.n	8004796 <HAL_EXTI_RegisterCallback+0x20>
  {
    /* set common callback */
    case  HAL_EXTI_COMMON_CB_ID:
      hexti->PendingCallback = pPendingCbfn;
 800478e:	68fb      	ldr	r3, [r7, #12]
 8004790:	687a      	ldr	r2, [r7, #4]
 8004792:	605a      	str	r2, [r3, #4]
      break;
 8004794:	e005      	b.n	80047a2 <HAL_EXTI_RegisterCallback+0x2c>

    default:
      hexti->PendingCallback = NULL;
 8004796:	68fb      	ldr	r3, [r7, #12]
 8004798:	2200      	movs	r2, #0
 800479a:	605a      	str	r2, [r3, #4]
      status = HAL_ERROR;
 800479c:	2301      	movs	r3, #1
 800479e:	75fb      	strb	r3, [r7, #23]
      break;
 80047a0:	bf00      	nop
  }

  return status;
 80047a2:	7dfb      	ldrb	r3, [r7, #23]
}
 80047a4:	4618      	mov	r0, r3
 80047a6:	371c      	adds	r7, #28
 80047a8:	46bd      	mov	sp, r7
 80047aa:	f85d 7b04 	ldr.w	r7, [sp], #4
 80047ae:	4770      	bx	lr

080047b0 <HAL_EXTI_GetHandle>:
  * @param  ExtiLine Exti line number.
  *         This parameter can be from 0 to @ref EXTI_LINE_NB.
  * @retval HAL Status.
  */
HAL_StatusTypeDef HAL_EXTI_GetHandle(EXTI_HandleTypeDef *hexti, uint32_t ExtiLine)
{
 80047b0:	b480      	push	{r7}
 80047b2:	b083      	sub	sp, #12
 80047b4:	af00      	add	r7, sp, #0
 80047b6:	6078      	str	r0, [r7, #4]
 80047b8:	6039      	str	r1, [r7, #0]
  /* Check the parameters */
  assert_param(IS_EXTI_LINE(ExtiLine));

  /* Check null pointer */
  if (hexti == NULL)
 80047ba:	687b      	ldr	r3, [r7, #4]
 80047bc:	2b00      	cmp	r3, #0
 80047be:	d101      	bne.n	80047c4 <HAL_EXTI_GetHandle+0x14>
  {
    return HAL_ERROR;
 80047c0:	2301      	movs	r3, #1
 80047c2:	e003      	b.n	80047cc <HAL_EXTI_GetHandle+0x1c>
  }
  else
  {
    /* Store line number as handle private field */
    hexti->Line = ExtiLine;
 80047c4:	687b      	ldr	r3, [r7, #4]
 80047c6:	683a      	ldr	r2, [r7, #0]
 80047c8:	601a      	str	r2, [r3, #0]

    return HAL_OK;
 80047ca:	2300      	movs	r3, #0
  }
}
 80047cc:	4618      	mov	r0, r3
 80047ce:	370c      	adds	r7, #12
 80047d0:	46bd      	mov	sp, r7
 80047d2:	f85d 7b04 	ldr.w	r7, [sp], #4
 80047d6:	4770      	bx	lr

080047d8 <HAL_FDCAN_Init>:
  * @param  hfdcan pointer to an FDCAN_HandleTypeDef structure that contains
  *         the configuration information for the specified FDCAN.
  * @retval HAL status
  */
HAL_StatusTypeDef HAL_FDCAN_Init(FDCAN_HandleTypeDef *hfdcan)
{
 80047d8:	b580      	push	{r7, lr}
 80047da:	b084      	sub	sp, #16
 80047dc:	af00      	add	r7, sp, #0
 80047de:	6078      	str	r0, [r7, #4]
  uint32_t tickstart;

  /* Check FDCAN handle */
  if (hfdcan == NULL)
 80047e0:	687b      	ldr	r3, [r7, #4]
 80047e2:	2b00      	cmp	r3, #0
 80047e4:	d101      	bne.n	80047ea <HAL_FDCAN_Init+0x12>
  {
    return HAL_ERROR;
 80047e6:	2301      	movs	r3, #1
 80047e8:	e147      	b.n	8004a7a <HAL_FDCAN_Init+0x2a2>

    /* Init the low level hardware: CLOCK, NVIC */
    hfdcan->MspInitCallback(hfdcan);
  }
#else
  if (hfdcan->State == HAL_FDCAN_STATE_RESET)
 80047ea:	687b      	ldr	r3, [r7, #4]
 80047ec:	f893 305c 	ldrb.w	r3, [r3, #92]	@ 0x5c
 80047f0:	b2db      	uxtb	r3, r3
 80047f2:	2b00      	cmp	r3, #0
 80047f4:	d106      	bne.n	8004804 <HAL_FDCAN_Init+0x2c>
  {
    /* Allocate lock resource and initialize it */
    hfdcan->Lock = HAL_UNLOCKED;
 80047f6:	687b      	ldr	r3, [r7, #4]
 80047f8:	2200      	movs	r2, #0
 80047fa:	f883 205d 	strb.w	r2, [r3, #93]	@ 0x5d

    /* Init the low level hardware: CLOCK, NVIC */
    HAL_FDCAN_MspInit(hfdcan);
 80047fe:	6878      	ldr	r0, [r7, #4]
 8004800:	f7ff fba8 	bl	8003f54 <HAL_FDCAN_MspInit>
  }
#endif /* USE_HAL_FDCAN_REGISTER_CALLBACKS */

  /* Exit from Sleep mode */
  CLEAR_BIT(hfdcan->Instance->CCCR, FDCAN_CCCR_CSR);
 8004804:	687b      	ldr	r3, [r7, #4]
 8004806:	681b      	ldr	r3, [r3, #0]
 8004808:	699a      	ldr	r2, [r3, #24]
 800480a:	687b      	ldr	r3, [r7, #4]
 800480c:	681b      	ldr	r3, [r3, #0]
 800480e:	f022 0210 	bic.w	r2, r2, #16
 8004812:	619a      	str	r2, [r3, #24]

  /* Get tick */
  tickstart = HAL_GetTick();
 8004814:	f7ff fe72 	bl	80044fc <HAL_GetTick>
 8004818:	60f8      	str	r0, [r7, #12]

  /* Check Sleep mode acknowledge */
  while ((hfdcan->Instance->CCCR & FDCAN_CCCR_CSA) == FDCAN_CCCR_CSA)
 800481a:	e012      	b.n	8004842 <HAL_FDCAN_Init+0x6a>
  {
    if ((HAL_GetTick() - tickstart) > FDCAN_TIMEOUT_VALUE)
 800481c:	f7ff fe6e 	bl	80044fc <HAL_GetTick>
 8004820:	4602      	mov	r2, r0
 8004822:	68fb      	ldr	r3, [r7, #12]
 8004824:	1ad3      	subs	r3, r2, r3
 8004826:	2b0a      	cmp	r3, #10
 8004828:	d90b      	bls.n	8004842 <HAL_FDCAN_Init+0x6a>
    {
      /* Update error code */
      hfdcan->ErrorCode |= HAL_FDCAN_ERROR_TIMEOUT;
 800482a:	687b      	ldr	r3, [r7, #4]
 800482c:	6e1b      	ldr	r3, [r3, #96]	@ 0x60
 800482e:	f043 0201 	orr.w	r2, r3, #1
 8004832:	687b      	ldr	r3, [r7, #4]
 8004834:	661a      	str	r2, [r3, #96]	@ 0x60

      /* Change FDCAN state */
      hfdcan->State = HAL_FDCAN_STATE_ERROR;
 8004836:	687b      	ldr	r3, [r7, #4]
 8004838:	2203      	movs	r2, #3
 800483a:	f883 205c 	strb.w	r2, [r3, #92]	@ 0x5c

      return HAL_ERROR;
 800483e:	2301      	movs	r3, #1
 8004840:	e11b      	b.n	8004a7a <HAL_FDCAN_Init+0x2a2>
  while ((hfdcan->Instance->CCCR & FDCAN_CCCR_CSA) == FDCAN_CCCR_CSA)
 8004842:	687b      	ldr	r3, [r7, #4]
 8004844:	681b      	ldr	r3, [r3, #0]
 8004846:	699b      	ldr	r3, [r3, #24]
 8004848:	f003 0308 	and.w	r3, r3, #8
 800484c:	2b08      	cmp	r3, #8
 800484e:	d0e5      	beq.n	800481c <HAL_FDCAN_Init+0x44>
    }
  }

  /* Request initialisation */
  SET_BIT(hfdcan->Instance->CCCR, FDCAN_CCCR_INIT);
 8004850:	687b      	ldr	r3, [r7, #4]
 8004852:	681b      	ldr	r3, [r3, #0]
 8004854:	699a      	ldr	r2, [r3, #24]
 8004856:	687b      	ldr	r3, [r7, #4]
 8004858:	681b      	ldr	r3, [r3, #0]
 800485a:	f042 0201 	orr.w	r2, r2, #1
 800485e:	619a      	str	r2, [r3, #24]

  /* Get tick */
  tickstart = HAL_GetTick();
 8004860:	f7ff fe4c 	bl	80044fc <HAL_GetTick>
 8004864:	60f8      	str	r0, [r7, #12]

  /* Wait until the INIT bit into CCCR register is set */
  while ((hfdcan->Instance->CCCR & FDCAN_CCCR_INIT) == 0U)
 8004866:	e012      	b.n	800488e <HAL_FDCAN_Init+0xb6>
  {
    /* Check for the Timeout */
    if ((HAL_GetTick() - tickstart) > FDCAN_TIMEOUT_VALUE)
 8004868:	f7ff fe48 	bl	80044fc <HAL_GetTick>
 800486c:	4602      	mov	r2, r0
 800486e:	68fb      	ldr	r3, [r7, #12]
 8004870:	1ad3      	subs	r3, r2, r3
 8004872:	2b0a      	cmp	r3, #10
 8004874:	d90b      	bls.n	800488e <HAL_FDCAN_Init+0xb6>
    {
      /* Update error code */
      hfdcan->ErrorCode |= HAL_FDCAN_ERROR_TIMEOUT;
 8004876:	687b      	ldr	r3, [r7, #4]
 8004878:	6e1b      	ldr	r3, [r3, #96]	@ 0x60
 800487a:	f043 0201 	orr.w	r2, r3, #1
 800487e:	687b      	ldr	r3, [r7, #4]
 8004880:	661a      	str	r2, [r3, #96]	@ 0x60

      /* Change FDCAN state */
      hfdcan->State = HAL_FDCAN_STATE_ERROR;
 8004882:	687b      	ldr	r3, [r7, #4]
 8004884:	2203      	movs	r2, #3
 8004886:	f883 205c 	strb.w	r2, [r3, #92]	@ 0x5c

      return HAL_ERROR;
 800488a:	2301      	movs	r3, #1
 800488c:	e0f5      	b.n	8004a7a <HAL_FDCAN_Init+0x2a2>
  while ((hfdcan->Instance->CCCR & FDCAN_CCCR_INIT) == 0U)
 800488e:	687b      	ldr	r3, [r7, #4]
 8004890:	681b      	ldr	r3, [r3, #0]
 8004892:	699b      	ldr	r3, [r3, #24]
 8004894:	f003 0301 	and.w	r3, r3, #1
 8004898:	2b00      	cmp	r3, #0
 800489a:	d0e5      	beq.n	8004868 <HAL_FDCAN_Init+0x90>
    }
  }

  /* Enable configuration change */
  SET_BIT(hfdcan->Instance->CCCR, FDCAN_CCCR_CCE);
 800489c:	687b      	ldr	r3, [r7, #4]
 800489e:	681b      	ldr	r3, [r3, #0]
 80048a0:	699a      	ldr	r2, [r3, #24]
 80048a2:	687b      	ldr	r3, [r7, #4]
 80048a4:	681b      	ldr	r3, [r3, #0]
 80048a6:	f042 0202 	orr.w	r2, r2, #2
 80048aa:	619a      	str	r2, [r3, #24]

  /* Check FDCAN instance */
  if (hfdcan->Instance == FDCAN1)
 80048ac:	687b      	ldr	r3, [r7, #4]
 80048ae:	681b      	ldr	r3, [r3, #0]
 80048b0:	4a74      	ldr	r2, [pc, #464]	@ (8004a84 <HAL_FDCAN_Init+0x2ac>)
 80048b2:	4293      	cmp	r3, r2
 80048b4:	d103      	bne.n	80048be <HAL_FDCAN_Init+0xe6>
  {
    /* Configure Clock divider */
    FDCAN_CONFIG->CKDIV = hfdcan->Init.ClockDivider;
 80048b6:	4a74      	ldr	r2, [pc, #464]	@ (8004a88 <HAL_FDCAN_Init+0x2b0>)
 80048b8:	687b      	ldr	r3, [r7, #4]
 80048ba:	685b      	ldr	r3, [r3, #4]
 80048bc:	6013      	str	r3, [r2, #0]
  }

  /* Set the no automatic retransmission */
  if (hfdcan->Init.AutoRetransmission == ENABLE)
 80048be:	687b      	ldr	r3, [r7, #4]
 80048c0:	7c1b      	ldrb	r3, [r3, #16]
 80048c2:	2b01      	cmp	r3, #1
 80048c4:	d108      	bne.n	80048d8 <HAL_FDCAN_Init+0x100>
  {
    CLEAR_BIT(hfdcan->Instance->CCCR, FDCAN_CCCR_DAR);
 80048c6:	687b      	ldr	r3, [r7, #4]
 80048c8:	681b      	ldr	r3, [r3, #0]
 80048ca:	699a      	ldr	r2, [r3, #24]
 80048cc:	687b      	ldr	r3, [r7, #4]
 80048ce:	681b      	ldr	r3, [r3, #0]
 80048d0:	f022 0240 	bic.w	r2, r2, #64	@ 0x40
 80048d4:	619a      	str	r2, [r3, #24]
 80048d6:	e007      	b.n	80048e8 <HAL_FDCAN_Init+0x110>
  }
  else
  {
    SET_BIT(hfdcan->Instance->CCCR, FDCAN_CCCR_DAR);
 80048d8:	687b      	ldr	r3, [r7, #4]
 80048da:	681b      	ldr	r3, [r3, #0]
 80048dc:	699a      	ldr	r2, [r3, #24]
 80048de:	687b      	ldr	r3, [r7, #4]
 80048e0:	681b      	ldr	r3, [r3, #0]
 80048e2:	f042 0240 	orr.w	r2, r2, #64	@ 0x40
 80048e6:	619a      	str	r2, [r3, #24]
  }

  /* Set the transmit pause feature */
  if (hfdcan->Init.TransmitPause == ENABLE)
 80048e8:	687b      	ldr	r3, [r7, #4]
 80048ea:	7c5b      	ldrb	r3, [r3, #17]
 80048ec:	2b01      	cmp	r3, #1
 80048ee:	d108      	bne.n	8004902 <HAL_FDCAN_Init+0x12a>
  {
    SET_BIT(hfdcan->Instance->CCCR, FDCAN_CCCR_TXP);
 80048f0:	687b      	ldr	r3, [r7, #4]
 80048f2:	681b      	ldr	r3, [r3, #0]
 80048f4:	699a      	ldr	r2, [r3, #24]
 80048f6:	687b      	ldr	r3, [r7, #4]
 80048f8:	681b      	ldr	r3, [r3, #0]
 80048fa:	f442 4280 	orr.w	r2, r2, #16384	@ 0x4000
 80048fe:	619a      	str	r2, [r3, #24]
 8004900:	e007      	b.n	8004912 <HAL_FDCAN_Init+0x13a>
  }
  else
  {
    CLEAR_BIT(hfdcan->Instance->CCCR, FDCAN_CCCR_TXP);
 8004902:	687b      	ldr	r3, [r7, #4]
 8004904:	681b      	ldr	r3, [r3, #0]
 8004906:	699a      	ldr	r2, [r3, #24]
 8004908:	687b      	ldr	r3, [r7, #4]
 800490a:	681b      	ldr	r3, [r3, #0]
 800490c:	f422 4280 	bic.w	r2, r2, #16384	@ 0x4000
 8004910:	619a      	str	r2, [r3, #24]
  }

  /* Set the Protocol Exception Handling */
  if (hfdcan->Init.ProtocolException == ENABLE)
 8004912:	687b      	ldr	r3, [r7, #4]
 8004914:	7c9b      	ldrb	r3, [r3, #18]
 8004916:	2b01      	cmp	r3, #1
 8004918:	d108      	bne.n	800492c <HAL_FDCAN_Init+0x154>
  {
    CLEAR_BIT(hfdcan->Instance->CCCR, FDCAN_CCCR_PXHD);
 800491a:	687b      	ldr	r3, [r7, #4]
 800491c:	681b      	ldr	r3, [r3, #0]
 800491e:	699a      	ldr	r2, [r3, #24]
 8004920:	687b      	ldr	r3, [r7, #4]
 8004922:	681b      	ldr	r3, [r3, #0]
 8004924:	f422 5280 	bic.w	r2, r2, #4096	@ 0x1000
 8004928:	619a      	str	r2, [r3, #24]
 800492a:	e007      	b.n	800493c <HAL_FDCAN_Init+0x164>
  }
  else
  {
    SET_BIT(hfdcan->Instance->CCCR, FDCAN_CCCR_PXHD);
 800492c:	687b      	ldr	r3, [r7, #4]
 800492e:	681b      	ldr	r3, [r3, #0]
 8004930:	699a      	ldr	r2, [r3, #24]
 8004932:	687b      	ldr	r3, [r7, #4]
 8004934:	681b      	ldr	r3, [r3, #0]
 8004936:	f442 5280 	orr.w	r2, r2, #4096	@ 0x1000
 800493a:	619a      	str	r2, [r3, #24]
  }

  /* Set FDCAN Frame Format */
  MODIFY_REG(hfdcan->Instance->CCCR, FDCAN_FRAME_FD_BRS, hfdcan->Init.FrameFormat);
 800493c:	687b      	ldr	r3, [r7, #4]
 800493e:	681b      	ldr	r3, [r3, #0]
 8004940:	699b      	ldr	r3, [r3, #24]
 8004942:	f423 7140 	bic.w	r1, r3, #768	@ 0x300
 8004946:	687b      	ldr	r3, [r7, #4]
 8004948:	689a      	ldr	r2, [r3, #8]
 800494a:	687b      	ldr	r3, [r7, #4]
 800494c:	681b      	ldr	r3, [r3, #0]
 800494e:	430a      	orrs	r2, r1
 8004950:	619a      	str	r2, [r3, #24]

  /* Reset FDCAN Operation Mode */
  CLEAR_BIT(hfdcan->Instance->CCCR, (FDCAN_CCCR_TEST | FDCAN_CCCR_MON | FDCAN_CCCR_ASM));
 8004952:	687b      	ldr	r3, [r7, #4]
 8004954:	681b      	ldr	r3, [r3, #0]
 8004956:	699a      	ldr	r2, [r3, #24]
 8004958:	687b      	ldr	r3, [r7, #4]
 800495a:	681b      	ldr	r3, [r3, #0]
 800495c:	f022 02a4 	bic.w	r2, r2, #164	@ 0xa4
 8004960:	619a      	str	r2, [r3, #24]
  CLEAR_BIT(hfdcan->Instance->TEST, FDCAN_TEST_LBCK);
 8004962:	687b      	ldr	r3, [r7, #4]
 8004964:	681b      	ldr	r3, [r3, #0]
 8004966:	691a      	ldr	r2, [r3, #16]
 8004968:	687b      	ldr	r3, [r7, #4]
 800496a:	681b      	ldr	r3, [r3, #0]
 800496c:	f022 0210 	bic.w	r2, r2, #16
 8004970:	611a      	str	r2, [r3, #16]
     CCCR.TEST |   0    |     0      |     0      |    1     |    1
     CCCR.MON  |   0    |     0      |     1      |    1     |    0
     TEST.LBCK |   0    |     0      |     0      |    1     |    1
     CCCR.ASM  |   0    |     1      |     0      |    0     |    0
  */
  if (hfdcan->Init.Mode == FDCAN_MODE_RESTRICTED_OPERATION)
 8004972:	687b      	ldr	r3, [r7, #4]
 8004974:	68db      	ldr	r3, [r3, #12]
 8004976:	2b01      	cmp	r3, #1
 8004978:	d108      	bne.n	800498c <HAL_FDCAN_Init+0x1b4>
  {
    /* Enable Restricted Operation mode */
    SET_BIT(hfdcan->Instance->CCCR, FDCAN_CCCR_ASM);
 800497a:	687b      	ldr	r3, [r7, #4]
 800497c:	681b      	ldr	r3, [r3, #0]
 800497e:	699a      	ldr	r2, [r3, #24]
 8004980:	687b      	ldr	r3, [r7, #4]
 8004982:	681b      	ldr	r3, [r3, #0]
 8004984:	f042 0204 	orr.w	r2, r2, #4
 8004988:	619a      	str	r2, [r3, #24]
 800498a:	e02c      	b.n	80049e6 <HAL_FDCAN_Init+0x20e>
  }
  else if (hfdcan->Init.Mode != FDCAN_MODE_NORMAL)
 800498c:	687b      	ldr	r3, [r7, #4]
 800498e:	68db      	ldr	r3, [r3, #12]
 8004990:	2b00      	cmp	r3, #0
 8004992:	d028      	beq.n	80049e6 <HAL_FDCAN_Init+0x20e>
  {
    if (hfdcan->Init.Mode != FDCAN_MODE_BUS_MONITORING)
 8004994:	687b      	ldr	r3, [r7, #4]
 8004996:	68db      	ldr	r3, [r3, #12]
 8004998:	2b02      	cmp	r3, #2
 800499a:	d01c      	beq.n	80049d6 <HAL_FDCAN_Init+0x1fe>
    {
      /* Enable write access to TEST register */
      SET_BIT(hfdcan->Instance->CCCR, FDCAN_CCCR_TEST);
 800499c:	687b      	ldr	r3, [r7, #4]
 800499e:	681b      	ldr	r3, [r3, #0]
 80049a0:	699a      	ldr	r2, [r3, #24]
 80049a2:	687b      	ldr	r3, [r7, #4]
 80049a4:	681b      	ldr	r3, [r3, #0]
 80049a6:	f042 0280 	orr.w	r2, r2, #128	@ 0x80
 80049aa:	619a      	str	r2, [r3, #24]

      /* Enable LoopBack mode */
      SET_BIT(hfdcan->Instance->TEST, FDCAN_TEST_LBCK);
 80049ac:	687b      	ldr	r3, [r7, #4]
 80049ae:	681b      	ldr	r3, [r3, #0]
 80049b0:	691a      	ldr	r2, [r3, #16]
 80049b2:	687b      	ldr	r3, [r7, #4]
 80049b4:	681b      	ldr	r3, [r3, #0]
 80049b6:	f042 0210 	orr.w	r2, r2, #16
 80049ba:	611a      	str	r2, [r3, #16]

      if (hfdcan->Init.Mode == FDCAN_MODE_INTERNAL_LOOPBACK)
 80049bc:	687b      	ldr	r3, [r7, #4]
 80049be:	68db      	ldr	r3, [r3, #12]
 80049c0:	2b03      	cmp	r3, #3
 80049c2:	d110      	bne.n	80049e6 <HAL_FDCAN_Init+0x20e>
      {
        SET_BIT(hfdcan->Instance->CCCR, FDCAN_CCCR_MON);
 80049c4:	687b      	ldr	r3, [r7, #4]
 80049c6:	681b      	ldr	r3, [r3, #0]
 80049c8:	699a      	ldr	r2, [r3, #24]
 80049ca:	687b      	ldr	r3, [r7, #4]
 80049cc:	681b      	ldr	r3, [r3, #0]
 80049ce:	f042 0220 	orr.w	r2, r2, #32
 80049d2:	619a      	str	r2, [r3, #24]
 80049d4:	e007      	b.n	80049e6 <HAL_FDCAN_Init+0x20e>
      }
    }
    else
    {
      /* Enable bus monitoring mode */
      SET_BIT(hfdcan->Instance->CCCR, FDCAN_CCCR_MON);
 80049d6:	687b      	ldr	r3, [r7, #4]
 80049d8:	681b      	ldr	r3, [r3, #0]
 80049da:	699a      	ldr	r2, [r3, #24]
 80049dc:	687b      	ldr	r3, [r7, #4]
 80049de:	681b      	ldr	r3, [r3, #0]
 80049e0:	f042 0220 	orr.w	r2, r2, #32
 80049e4:	619a      	str	r2, [r3, #24]
  {
    /* Nothing to do: normal mode */
  }

  /* Set the nominal bit timing register */
  hfdcan->Instance->NBTP = ((((uint32_t)hfdcan->Init.NominalSyncJumpWidth - 1U) << FDCAN_NBTP_NSJW_Pos) | \
 80049e6:	687b      	ldr	r3, [r7, #4]
 80049e8:	699b      	ldr	r3, [r3, #24]
 80049ea:	3b01      	subs	r3, #1
 80049ec:	065a      	lsls	r2, r3, #25
                            (((uint32_t)hfdcan->Init.NominalTimeSeg1 - 1U) << FDCAN_NBTP_NTSEG1_Pos)    | \
 80049ee:	687b      	ldr	r3, [r7, #4]
 80049f0:	69db      	ldr	r3, [r3, #28]
 80049f2:	3b01      	subs	r3, #1
 80049f4:	021b      	lsls	r3, r3, #8
  hfdcan->Instance->NBTP = ((((uint32_t)hfdcan->Init.NominalSyncJumpWidth - 1U) << FDCAN_NBTP_NSJW_Pos) | \
 80049f6:	431a      	orrs	r2, r3
                            (((uint32_t)hfdcan->Init.NominalTimeSeg2 - 1U) << FDCAN_NBTP_NTSEG2_Pos)    | \
 80049f8:	687b      	ldr	r3, [r7, #4]
 80049fa:	6a1b      	ldr	r3, [r3, #32]
 80049fc:	3b01      	subs	r3, #1
                            (((uint32_t)hfdcan->Init.NominalTimeSeg1 - 1U) << FDCAN_NBTP_NTSEG1_Pos)    | \
 80049fe:	ea42 0103 	orr.w	r1, r2, r3
                            (((uint32_t)hfdcan->Init.NominalPrescaler - 1U) << FDCAN_NBTP_NBRP_Pos));
 8004a02:	687b      	ldr	r3, [r7, #4]
 8004a04:	695b      	ldr	r3, [r3, #20]
 8004a06:	3b01      	subs	r3, #1
 8004a08:	041a      	lsls	r2, r3, #16
  hfdcan->Instance->NBTP = ((((uint32_t)hfdcan->Init.NominalSyncJumpWidth - 1U) << FDCAN_NBTP_NSJW_Pos) | \
 8004a0a:	687b      	ldr	r3, [r7, #4]
 8004a0c:	681b      	ldr	r3, [r3, #0]
                            (((uint32_t)hfdcan->Init.NominalTimeSeg2 - 1U) << FDCAN_NBTP_NTSEG2_Pos)    | \
 8004a0e:	430a      	orrs	r2, r1
  hfdcan->Instance->NBTP = ((((uint32_t)hfdcan->Init.NominalSyncJumpWidth - 1U) << FDCAN_NBTP_NSJW_Pos) | \
 8004a10:	61da      	str	r2, [r3, #28]

  /* If FD operation with BRS is selected, set the data bit timing register */
  if (hfdcan->Init.FrameFormat == FDCAN_FRAME_FD_BRS)
 8004a12:	687b      	ldr	r3, [r7, #4]
 8004a14:	689b      	ldr	r3, [r3, #8]
 8004a16:	f5b3 7f40 	cmp.w	r3, #768	@ 0x300
 8004a1a:	d115      	bne.n	8004a48 <HAL_FDCAN_Init+0x270>
  {
    hfdcan->Instance->DBTP = ((((uint32_t)hfdcan->Init.DataSyncJumpWidth - 1U) << FDCAN_DBTP_DSJW_Pos)  | \
 8004a1c:	687b      	ldr	r3, [r7, #4]
 8004a1e:	6a9b      	ldr	r3, [r3, #40]	@ 0x28
 8004a20:	1e5a      	subs	r2, r3, #1
                              (((uint32_t)hfdcan->Init.DataTimeSeg1 - 1U) << FDCAN_DBTP_DTSEG1_Pos)     | \
 8004a22:	687b      	ldr	r3, [r7, #4]
 8004a24:	6adb      	ldr	r3, [r3, #44]	@ 0x2c
 8004a26:	3b01      	subs	r3, #1
 8004a28:	021b      	lsls	r3, r3, #8
    hfdcan->Instance->DBTP = ((((uint32_t)hfdcan->Init.DataSyncJumpWidth - 1U) << FDCAN_DBTP_DSJW_Pos)  | \
 8004a2a:	431a      	orrs	r2, r3
                              (((uint32_t)hfdcan->Init.DataTimeSeg2 - 1U) << FDCAN_DBTP_DTSEG2_Pos)     | \
 8004a2c:	687b      	ldr	r3, [r7, #4]
 8004a2e:	6b1b      	ldr	r3, [r3, #48]	@ 0x30
 8004a30:	3b01      	subs	r3, #1
 8004a32:	011b      	lsls	r3, r3, #4
                              (((uint32_t)hfdcan->Init.DataTimeSeg1 - 1U) << FDCAN_DBTP_DTSEG1_Pos)     | \
 8004a34:	ea42 0103 	orr.w	r1, r2, r3
                              (((uint32_t)hfdcan->Init.DataPrescaler - 1U) << FDCAN_DBTP_DBRP_Pos));
 8004a38:	687b      	ldr	r3, [r7, #4]
 8004a3a:	6a5b      	ldr	r3, [r3, #36]	@ 0x24
 8004a3c:	3b01      	subs	r3, #1
 8004a3e:	041a      	lsls	r2, r3, #16
    hfdcan->Instance->DBTP = ((((uint32_t)hfdcan->Init.DataSyncJumpWidth - 1U) << FDCAN_DBTP_DSJW_Pos)  | \
 8004a40:	687b      	ldr	r3, [r7, #4]
 8004a42:	681b      	ldr	r3, [r3, #0]
                              (((uint32_t)hfdcan->Init.DataTimeSeg2 - 1U) << FDCAN_DBTP_DTSEG2_Pos)     | \
 8004a44:	430a      	orrs	r2, r1
    hfdcan->Instance->DBTP = ((((uint32_t)hfdcan->Init.DataSyncJumpWidth - 1U) << FDCAN_DBTP_DSJW_Pos)  | \
 8004a46:	60da      	str	r2, [r3, #12]
  }

  /* Select between Tx FIFO and Tx Queue operation modes */
  SET_BIT(hfdcan->Instance->TXBC, hfdcan->Init.TxFifoQueueMode);
 8004a48:	687b      	ldr	r3, [r7, #4]
 8004a4a:	681b      	ldr	r3, [r3, #0]
 8004a4c:	f8d3 10c0 	ldr.w	r1, [r3, #192]	@ 0xc0
 8004a50:	687b      	ldr	r3, [r7, #4]
 8004a52:	6bda      	ldr	r2, [r3, #60]	@ 0x3c
 8004a54:	687b      	ldr	r3, [r7, #4]
 8004a56:	681b      	ldr	r3, [r3, #0]
 8004a58:	430a      	orrs	r2, r1
 8004a5a:	f8c3 20c0 	str.w	r2, [r3, #192]	@ 0xc0

  /* Calculate each RAM block address */
  FDCAN_CalcultateRamBlockAddresses(hfdcan);
 8004a5e:	6878      	ldr	r0, [r7, #4]
 8004a60:	f000 f814 	bl	8004a8c <FDCAN_CalcultateRamBlockAddresses>

  /* Initialize the Latest Tx request buffer index */
  hfdcan->LatestTxFifoQRequest = 0U;
 8004a64:	687b      	ldr	r3, [r7, #4]
 8004a66:	2200      	movs	r2, #0
 8004a68:	659a      	str	r2, [r3, #88]	@ 0x58

  /* Initialize the error code */
  hfdcan->ErrorCode = HAL_FDCAN_ERROR_NONE;
 8004a6a:	687b      	ldr	r3, [r7, #4]
 8004a6c:	2200      	movs	r2, #0
 8004a6e:	661a      	str	r2, [r3, #96]	@ 0x60

  /* Initialize the FDCAN state */
  hfdcan->State = HAL_FDCAN_STATE_READY;
 8004a70:	687b      	ldr	r3, [r7, #4]
 8004a72:	2201      	movs	r2, #1
 8004a74:	f883 205c 	strb.w	r2, [r3, #92]	@ 0x5c

  /* Return function status */
  return HAL_OK;
 8004a78:	2300      	movs	r3, #0
}
 8004a7a:	4618      	mov	r0, r3
 8004a7c:	3710      	adds	r7, #16
 8004a7e:	46bd      	mov	sp, r7
 8004a80:	bd80      	pop	{r7, pc}
 8004a82:	bf00      	nop
 8004a84:	40006400 	.word	0x40006400
 8004a88:	40006500 	.word	0x40006500

08004a8c <FDCAN_CalcultateRamBlockAddresses>:
  * @param  hfdcan pointer to an FDCAN_HandleTypeDef structure that contains
  *         the configuration information for the specified FDCAN.
  * @retval none
 */
static void FDCAN_CalcultateRamBlockAddresses(FDCAN_HandleTypeDef *hfdcan)
{
 8004a8c:	b480      	push	{r7}
 8004a8e:	b085      	sub	sp, #20
 8004a90:	af00      	add	r7, sp, #0
 8004a92:	6078      	str	r0, [r7, #4]
  uint32_t RAMcounter;
  uint32_t SramCanInstanceBase = SRAMCAN_BASE;
 8004a94:	4b27      	ldr	r3, [pc, #156]	@ (8004b34 <FDCAN_CalcultateRamBlockAddresses+0xa8>)
 8004a96:	60bb      	str	r3, [r7, #8]
    SramCanInstanceBase += SRAMCAN_SIZE * 2U;
  }
#endif /* FDCAN3 */

  /* Standard filter list start address */
  hfdcan->msgRam.StandardFilterSA = SramCanInstanceBase + SRAMCAN_FLSSA;
 8004a98:	687b      	ldr	r3, [r7, #4]
 8004a9a:	68ba      	ldr	r2, [r7, #8]
 8004a9c:	641a      	str	r2, [r3, #64]	@ 0x40

  /* Standard filter elements number */
  MODIFY_REG(hfdcan->Instance->RXGFC, FDCAN_RXGFC_LSS, (hfdcan->Init.StdFiltersNbr << FDCAN_RXGFC_LSS_Pos));
 8004a9e:	687b      	ldr	r3, [r7, #4]
 8004aa0:	681b      	ldr	r3, [r3, #0]
 8004aa2:	f8d3 3080 	ldr.w	r3, [r3, #128]	@ 0x80
 8004aa6:	f423 11f8 	bic.w	r1, r3, #2031616	@ 0x1f0000
 8004aaa:	687b      	ldr	r3, [r7, #4]
 8004aac:	6b5b      	ldr	r3, [r3, #52]	@ 0x34
 8004aae:	041a      	lsls	r2, r3, #16
 8004ab0:	687b      	ldr	r3, [r7, #4]
 8004ab2:	681b      	ldr	r3, [r3, #0]
 8004ab4:	430a      	orrs	r2, r1
 8004ab6:	f8c3 2080 	str.w	r2, [r3, #128]	@ 0x80

  /* Extended filter list start address */
  hfdcan->msgRam.ExtendedFilterSA = SramCanInstanceBase + SRAMCAN_FLESA;
 8004aba:	68bb      	ldr	r3, [r7, #8]
 8004abc:	f103 0270 	add.w	r2, r3, #112	@ 0x70
 8004ac0:	687b      	ldr	r3, [r7, #4]
 8004ac2:	645a      	str	r2, [r3, #68]	@ 0x44

  /* Extended filter elements number */
  MODIFY_REG(hfdcan->Instance->RXGFC, FDCAN_RXGFC_LSE, (hfdcan->Init.ExtFiltersNbr << FDCAN_RXGFC_LSE_Pos));
 8004ac4:	687b      	ldr	r3, [r7, #4]
 8004ac6:	681b      	ldr	r3, [r3, #0]
 8004ac8:	f8d3 3080 	ldr.w	r3, [r3, #128]	@ 0x80
 8004acc:	f023 6170 	bic.w	r1, r3, #251658240	@ 0xf000000
 8004ad0:	687b      	ldr	r3, [r7, #4]
 8004ad2:	6b9b      	ldr	r3, [r3, #56]	@ 0x38
 8004ad4:	061a      	lsls	r2, r3, #24
 8004ad6:	687b      	ldr	r3, [r7, #4]
 8004ad8:	681b      	ldr	r3, [r3, #0]
 8004ada:	430a      	orrs	r2, r1
 8004adc:	f8c3 2080 	str.w	r2, [r3, #128]	@ 0x80

  /* Rx FIFO 0 start address */
  hfdcan->msgRam.RxFIFO0SA = SramCanInstanceBase + SRAMCAN_RF0SA;
 8004ae0:	68bb      	ldr	r3, [r7, #8]
 8004ae2:	f103 02b0 	add.w	r2, r3, #176	@ 0xb0
 8004ae6:	687b      	ldr	r3, [r7, #4]
 8004ae8:	649a      	str	r2, [r3, #72]	@ 0x48

  /* Rx FIFO 1 start address */
  hfdcan->msgRam.RxFIFO1SA = SramCanInstanceBase + SRAMCAN_RF1SA;
 8004aea:	68bb      	ldr	r3, [r7, #8]
 8004aec:	f503 72c4 	add.w	r2, r3, #392	@ 0x188
 8004af0:	687b      	ldr	r3, [r7, #4]
 8004af2:	64da      	str	r2, [r3, #76]	@ 0x4c

  /* Tx event FIFO start address */
  hfdcan->msgRam.TxEventFIFOSA = SramCanInstanceBase + SRAMCAN_TEFSA;
 8004af4:	68bb      	ldr	r3, [r7, #8]
 8004af6:	f503 7218 	add.w	r2, r3, #608	@ 0x260
 8004afa:	687b      	ldr	r3, [r7, #4]
 8004afc:	651a      	str	r2, [r3, #80]	@ 0x50

  /* Tx FIFO/queue start address */
  hfdcan->msgRam.TxFIFOQSA = SramCanInstanceBase + SRAMCAN_TFQSA;
 8004afe:	68bb      	ldr	r3, [r7, #8]
 8004b00:	f503 721e 	add.w	r2, r3, #632	@ 0x278
 8004b04:	687b      	ldr	r3, [r7, #4]
 8004b06:	655a      	str	r2, [r3, #84]	@ 0x54

  /* Flush the allocated Message RAM area */
  for (RAMcounter = SramCanInstanceBase; RAMcounter < (SramCanInstanceBase + SRAMCAN_SIZE); RAMcounter += 4U)
 8004b08:	68bb      	ldr	r3, [r7, #8]
 8004b0a:	60fb      	str	r3, [r7, #12]
 8004b0c:	e005      	b.n	8004b1a <FDCAN_CalcultateRamBlockAddresses+0x8e>
  {
    *(uint32_t *)(RAMcounter) = 0x00000000U;
 8004b0e:	68fb      	ldr	r3, [r7, #12]
 8004b10:	2200      	movs	r2, #0
 8004b12:	601a      	str	r2, [r3, #0]
  for (RAMcounter = SramCanInstanceBase; RAMcounter < (SramCanInstanceBase + SRAMCAN_SIZE); RAMcounter += 4U)
 8004b14:	68fb      	ldr	r3, [r7, #12]
 8004b16:	3304      	adds	r3, #4
 8004b18:	60fb      	str	r3, [r7, #12]
 8004b1a:	68bb      	ldr	r3, [r7, #8]
 8004b1c:	f503 7354 	add.w	r3, r3, #848	@ 0x350
 8004b20:	68fa      	ldr	r2, [r7, #12]
 8004b22:	429a      	cmp	r2, r3
 8004b24:	d3f3      	bcc.n	8004b0e <FDCAN_CalcultateRamBlockAddresses+0x82>
  }
}
 8004b26:	bf00      	nop
 8004b28:	bf00      	nop
 8004b2a:	3714      	adds	r7, #20
 8004b2c:	46bd      	mov	sp, r7
 8004b2e:	f85d 7b04 	ldr.w	r7, [sp], #4
 8004b32:	4770      	bx	lr
 8004b34:	4000a400 	.word	0x4000a400

08004b38 <HAL_GPIO_Init>:
  * @param  GPIO_Init pointer to a GPIO_InitTypeDef structure that contains
  *         the configuration information for the specified GPIO peripheral.
  * @retval None
  */
void HAL_GPIO_Init(GPIO_TypeDef *GPIOx, GPIO_InitTypeDef const *GPIO_Init)
{
 8004b38:	b480      	push	{r7}
 8004b3a:	b087      	sub	sp, #28
 8004b3c:	af00      	add	r7, sp, #0
 8004b3e:	6078      	str	r0, [r7, #4]
 8004b40:	6039      	str	r1, [r7, #0]
  uint32_t position = 0x00U;
 8004b42:	2300      	movs	r3, #0
 8004b44:	617b      	str	r3, [r7, #20]
  assert_param(IS_GPIO_ALL_INSTANCE(GPIOx));
  assert_param(IS_GPIO_PIN(GPIO_Init->Pin));
  assert_param(IS_GPIO_MODE(GPIO_Init->Mode));

  /* Configure the port pins */
  while (((GPIO_Init->Pin) >> position) != 0U)
 8004b46:	e164      	b.n	8004e12 <HAL_GPIO_Init+0x2da>
  {
    /* Get current io position */
    iocurrent = (GPIO_Init->Pin) & (1UL << position);
 8004b48:	683b      	ldr	r3, [r7, #0]
 8004b4a:	681a      	ldr	r2, [r3, #0]
 8004b4c:	2101      	movs	r1, #1
 8004b4e:	697b      	ldr	r3, [r7, #20]
 8004b50:	fa01 f303 	lsl.w	r3, r1, r3
 8004b54:	4013      	ands	r3, r2
 8004b56:	60fb      	str	r3, [r7, #12]

    if (iocurrent != 0x00u)
 8004b58:	68fb      	ldr	r3, [r7, #12]
 8004b5a:	2b00      	cmp	r3, #0
 8004b5c:	f000 8156 	beq.w	8004e0c <HAL_GPIO_Init+0x2d4>
    {
      /*--------------------- GPIO Mode Configuration ------------------------*/
      /* In case of Output or Alternate function mode selection */
      if(((GPIO_Init->Mode & GPIO_MODE) == MODE_OUTPUT) ||
 8004b60:	683b      	ldr	r3, [r7, #0]
 8004b62:	685b      	ldr	r3, [r3, #4]
 8004b64:	f003 0303 	and.w	r3, r3, #3
 8004b68:	2b01      	cmp	r3, #1
 8004b6a:	d005      	beq.n	8004b78 <HAL_GPIO_Init+0x40>
         ((GPIO_Init->Mode & GPIO_MODE) == MODE_AF))
 8004b6c:	683b      	ldr	r3, [r7, #0]
 8004b6e:	685b      	ldr	r3, [r3, #4]
 8004b70:	f003 0303 	and.w	r3, r3, #3
      if(((GPIO_Init->Mode & GPIO_MODE) == MODE_OUTPUT) ||
 8004b74:	2b02      	cmp	r3, #2
 8004b76:	d130      	bne.n	8004bda <HAL_GPIO_Init+0xa2>
      {
        /* Check the Speed parameter */
        assert_param(IS_GPIO_SPEED(GPIO_Init->Speed));
        /* Configure the IO Speed */
        temp = GPIOx->OSPEEDR;
 8004b78:	687b      	ldr	r3, [r7, #4]
 8004b7a:	689b      	ldr	r3, [r3, #8]
 8004b7c:	613b      	str	r3, [r7, #16]
        temp &= ~(GPIO_OSPEEDR_OSPEED0 << (position * 2U));
 8004b7e:	697b      	ldr	r3, [r7, #20]
 8004b80:	005b      	lsls	r3, r3, #1
 8004b82:	2203      	movs	r2, #3
 8004b84:	fa02 f303 	lsl.w	r3, r2, r3
 8004b88:	43db      	mvns	r3, r3
 8004b8a:	693a      	ldr	r2, [r7, #16]
 8004b8c:	4013      	ands	r3, r2
 8004b8e:	613b      	str	r3, [r7, #16]
        temp |= (GPIO_Init->Speed << (position * 2U));
 8004b90:	683b      	ldr	r3, [r7, #0]
 8004b92:	68da      	ldr	r2, [r3, #12]
 8004b94:	697b      	ldr	r3, [r7, #20]
 8004b96:	005b      	lsls	r3, r3, #1
 8004b98:	fa02 f303 	lsl.w	r3, r2, r3
 8004b9c:	693a      	ldr	r2, [r7, #16]
 8004b9e:	4313      	orrs	r3, r2
 8004ba0:	613b      	str	r3, [r7, #16]
        GPIOx->OSPEEDR = temp;
 8004ba2:	687b      	ldr	r3, [r7, #4]
 8004ba4:	693a      	ldr	r2, [r7, #16]
 8004ba6:	609a      	str	r2, [r3, #8]

        /* Configure the IO Output Type */
        temp = GPIOx->OTYPER;
 8004ba8:	687b      	ldr	r3, [r7, #4]
 8004baa:	685b      	ldr	r3, [r3, #4]
 8004bac:	613b      	str	r3, [r7, #16]
        temp &= ~(GPIO_OTYPER_OT0 << position) ;
 8004bae:	2201      	movs	r2, #1
 8004bb0:	697b      	ldr	r3, [r7, #20]
 8004bb2:	fa02 f303 	lsl.w	r3, r2, r3
 8004bb6:	43db      	mvns	r3, r3
 8004bb8:	693a      	ldr	r2, [r7, #16]
 8004bba:	4013      	ands	r3, r2
 8004bbc:	613b      	str	r3, [r7, #16]
        temp |= (((GPIO_Init->Mode & OUTPUT_TYPE) >> OUTPUT_TYPE_Pos) << position);
 8004bbe:	683b      	ldr	r3, [r7, #0]
 8004bc0:	685b      	ldr	r3, [r3, #4]
 8004bc2:	091b      	lsrs	r3, r3, #4
 8004bc4:	f003 0201 	and.w	r2, r3, #1
 8004bc8:	697b      	ldr	r3, [r7, #20]
 8004bca:	fa02 f303 	lsl.w	r3, r2, r3
 8004bce:	693a      	ldr	r2, [r7, #16]
 8004bd0:	4313      	orrs	r3, r2
 8004bd2:	613b      	str	r3, [r7, #16]
        GPIOx->OTYPER = temp;
 8004bd4:	687b      	ldr	r3, [r7, #4]
 8004bd6:	693a      	ldr	r2, [r7, #16]
 8004bd8:	605a      	str	r2, [r3, #4]
      }

      if (((GPIO_Init->Mode & GPIO_MODE) != MODE_ANALOG) ||
 8004bda:	683b      	ldr	r3, [r7, #0]
 8004bdc:	685b      	ldr	r3, [r3, #4]
 8004bde:	f003 0303 	and.w	r3, r3, #3
 8004be2:	2b03      	cmp	r3, #3
 8004be4:	d109      	bne.n	8004bfa <HAL_GPIO_Init+0xc2>
          (((GPIO_Init->Mode & GPIO_MODE) == MODE_ANALOG) && (GPIO_Init->Pull != GPIO_PULLUP)))
 8004be6:	683b      	ldr	r3, [r7, #0]
 8004be8:	685b      	ldr	r3, [r3, #4]
 8004bea:	f003 0303 	and.w	r3, r3, #3
      if (((GPIO_Init->Mode & GPIO_MODE) != MODE_ANALOG) ||
 8004bee:	2b03      	cmp	r3, #3
 8004bf0:	d11b      	bne.n	8004c2a <HAL_GPIO_Init+0xf2>
          (((GPIO_Init->Mode & GPIO_MODE) == MODE_ANALOG) && (GPIO_Init->Pull != GPIO_PULLUP)))
 8004bf2:	683b      	ldr	r3, [r7, #0]
 8004bf4:	689b      	ldr	r3, [r3, #8]
 8004bf6:	2b01      	cmp	r3, #1
 8004bf8:	d017      	beq.n	8004c2a <HAL_GPIO_Init+0xf2>
      {
        /* Check the Pull parameter */
        assert_param(IS_GPIO_PULL(GPIO_Init->Pull));

        /* Activate the Pull-up or Pull down resistor for the current IO */
        temp = GPIOx->PUPDR;
 8004bfa:	687b      	ldr	r3, [r7, #4]
 8004bfc:	68db      	ldr	r3, [r3, #12]
 8004bfe:	613b      	str	r3, [r7, #16]
        temp &= ~(GPIO_PUPDR_PUPD0 << (position * 2U));
 8004c00:	697b      	ldr	r3, [r7, #20]
 8004c02:	005b      	lsls	r3, r3, #1
 8004c04:	2203      	movs	r2, #3
 8004c06:	fa02 f303 	lsl.w	r3, r2, r3
 8004c0a:	43db      	mvns	r3, r3
 8004c0c:	693a      	ldr	r2, [r7, #16]
 8004c0e:	4013      	ands	r3, r2
 8004c10:	613b      	str	r3, [r7, #16]
        temp |= ((GPIO_Init->Pull) << (position * 2U));
 8004c12:	683b      	ldr	r3, [r7, #0]
 8004c14:	689a      	ldr	r2, [r3, #8]
 8004c16:	697b      	ldr	r3, [r7, #20]
 8004c18:	005b      	lsls	r3, r3, #1
 8004c1a:	fa02 f303 	lsl.w	r3, r2, r3
 8004c1e:	693a      	ldr	r2, [r7, #16]
 8004c20:	4313      	orrs	r3, r2
 8004c22:	613b      	str	r3, [r7, #16]
        GPIOx->PUPDR = temp;
 8004c24:	687b      	ldr	r3, [r7, #4]
 8004c26:	693a      	ldr	r2, [r7, #16]
 8004c28:	60da      	str	r2, [r3, #12]
      }

      /* In case of Alternate function mode selection */
      if ((GPIO_Init->Mode & GPIO_MODE) == MODE_AF)
 8004c2a:	683b      	ldr	r3, [r7, #0]
 8004c2c:	685b      	ldr	r3, [r3, #4]
 8004c2e:	f003 0303 	and.w	r3, r3, #3
 8004c32:	2b02      	cmp	r3, #2
 8004c34:	d123      	bne.n	8004c7e <HAL_GPIO_Init+0x146>
        /* Check the Alternate function parameters */
        assert_param(IS_GPIO_AF_INSTANCE(GPIOx));
        assert_param(IS_GPIO_AF(GPIO_Init->Alternate));

        /* Configure Alternate function mapped with the current IO */
        temp = GPIOx->AFR[position >> 3U];
 8004c36:	697b      	ldr	r3, [r7, #20]
 8004c38:	08da      	lsrs	r2, r3, #3
 8004c3a:	687b      	ldr	r3, [r7, #4]
 8004c3c:	3208      	adds	r2, #8
 8004c3e:	f853 3022 	ldr.w	r3, [r3, r2, lsl #2]
 8004c42:	613b      	str	r3, [r7, #16]
        temp &= ~(0xFU << ((position & 0x07U) * 4U));
 8004c44:	697b      	ldr	r3, [r7, #20]
 8004c46:	f003 0307 	and.w	r3, r3, #7
 8004c4a:	009b      	lsls	r3, r3, #2
 8004c4c:	220f      	movs	r2, #15
 8004c4e:	fa02 f303 	lsl.w	r3, r2, r3
 8004c52:	43db      	mvns	r3, r3
 8004c54:	693a      	ldr	r2, [r7, #16]
 8004c56:	4013      	ands	r3, r2
 8004c58:	613b      	str	r3, [r7, #16]
        temp |= ((GPIO_Init->Alternate) << ((position & 0x07U) * 4U));
 8004c5a:	683b      	ldr	r3, [r7, #0]
 8004c5c:	691a      	ldr	r2, [r3, #16]
 8004c5e:	697b      	ldr	r3, [r7, #20]
 8004c60:	f003 0307 	and.w	r3, r3, #7
 8004c64:	009b      	lsls	r3, r3, #2
 8004c66:	fa02 f303 	lsl.w	r3, r2, r3
 8004c6a:	693a      	ldr	r2, [r7, #16]
 8004c6c:	4313      	orrs	r3, r2
 8004c6e:	613b      	str	r3, [r7, #16]
        GPIOx->AFR[position >> 3U] = temp;
 8004c70:	697b      	ldr	r3, [r7, #20]
 8004c72:	08da      	lsrs	r2, r3, #3
 8004c74:	687b      	ldr	r3, [r7, #4]
 8004c76:	3208      	adds	r2, #8
 8004c78:	6939      	ldr	r1, [r7, #16]
 8004c7a:	f843 1022 	str.w	r1, [r3, r2, lsl #2]
      }

      /* Configure IO Direction mode (Input, Output, Alternate or Analog) */
      temp = GPIOx->MODER;
 8004c7e:	687b      	ldr	r3, [r7, #4]
 8004c80:	681b      	ldr	r3, [r3, #0]
 8004c82:	613b      	str	r3, [r7, #16]
      temp &= ~(GPIO_MODER_MODE0 << (position * 2U));
 8004c84:	697b      	ldr	r3, [r7, #20]
 8004c86:	005b      	lsls	r3, r3, #1
 8004c88:	2203      	movs	r2, #3
 8004c8a:	fa02 f303 	lsl.w	r3, r2, r3
 8004c8e:	43db      	mvns	r3, r3
 8004c90:	693a      	ldr	r2, [r7, #16]
 8004c92:	4013      	ands	r3, r2
 8004c94:	613b      	str	r3, [r7, #16]
      temp |= ((GPIO_Init->Mode & GPIO_MODE) << (position * 2U));
 8004c96:	683b      	ldr	r3, [r7, #0]
 8004c98:	685b      	ldr	r3, [r3, #4]
 8004c9a:	f003 0203 	and.w	r2, r3, #3
 8004c9e:	697b      	ldr	r3, [r7, #20]
 8004ca0:	005b      	lsls	r3, r3, #1
 8004ca2:	fa02 f303 	lsl.w	r3, r2, r3
 8004ca6:	693a      	ldr	r2, [r7, #16]
 8004ca8:	4313      	orrs	r3, r2
 8004caa:	613b      	str	r3, [r7, #16]
      GPIOx->MODER = temp;
 8004cac:	687b      	ldr	r3, [r7, #4]
 8004cae:	693a      	ldr	r2, [r7, #16]
 8004cb0:	601a      	str	r2, [r3, #0]

      /*--------------------- EXTI Mode Configuration ------------------------*/
      /* Configure the External Interrupt or event for the current IO */
      if ((GPIO_Init->Mode & EXTI_MODE) != 0x00u)
 8004cb2:	683b      	ldr	r3, [r7, #0]
 8004cb4:	685b      	ldr	r3, [r3, #4]
 8004cb6:	f403 3340 	and.w	r3, r3, #196608	@ 0x30000
 8004cba:	2b00      	cmp	r3, #0
 8004cbc:	f000 80a6 	beq.w	8004e0c <HAL_GPIO_Init+0x2d4>
      {
        /* Enable SYSCFG Clock */
        __HAL_RCC_SYSCFG_CLK_ENABLE();
 8004cc0:	4b5b      	ldr	r3, [pc, #364]	@ (8004e30 <HAL_GPIO_Init+0x2f8>)
 8004cc2:	6e1b      	ldr	r3, [r3, #96]	@ 0x60
 8004cc4:	4a5a      	ldr	r2, [pc, #360]	@ (8004e30 <HAL_GPIO_Init+0x2f8>)
 8004cc6:	f043 0301 	orr.w	r3, r3, #1
 8004cca:	6613      	str	r3, [r2, #96]	@ 0x60
 8004ccc:	4b58      	ldr	r3, [pc, #352]	@ (8004e30 <HAL_GPIO_Init+0x2f8>)
 8004cce:	6e1b      	ldr	r3, [r3, #96]	@ 0x60
 8004cd0:	f003 0301 	and.w	r3, r3, #1
 8004cd4:	60bb      	str	r3, [r7, #8]
 8004cd6:	68bb      	ldr	r3, [r7, #8]

        temp = SYSCFG->EXTICR[position >> 2U];
 8004cd8:	4a56      	ldr	r2, [pc, #344]	@ (8004e34 <HAL_GPIO_Init+0x2fc>)
 8004cda:	697b      	ldr	r3, [r7, #20]
 8004cdc:	089b      	lsrs	r3, r3, #2
 8004cde:	3302      	adds	r3, #2
 8004ce0:	f852 3023 	ldr.w	r3, [r2, r3, lsl #2]
 8004ce4:	613b      	str	r3, [r7, #16]
        temp &= ~(0x0FUL << (4U * (position & 0x03U)));
 8004ce6:	697b      	ldr	r3, [r7, #20]
 8004ce8:	f003 0303 	and.w	r3, r3, #3
 8004cec:	009b      	lsls	r3, r3, #2
 8004cee:	220f      	movs	r2, #15
 8004cf0:	fa02 f303 	lsl.w	r3, r2, r3
 8004cf4:	43db      	mvns	r3, r3
 8004cf6:	693a      	ldr	r2, [r7, #16]
 8004cf8:	4013      	ands	r3, r2
 8004cfa:	613b      	str	r3, [r7, #16]
        temp |= (GPIO_GET_INDEX(GPIOx) << (4U * (position & 0x03U)));
 8004cfc:	687b      	ldr	r3, [r7, #4]
 8004cfe:	f1b3 4f90 	cmp.w	r3, #1207959552	@ 0x48000000
 8004d02:	d01f      	beq.n	8004d44 <HAL_GPIO_Init+0x20c>
 8004d04:	687b      	ldr	r3, [r7, #4]
 8004d06:	4a4c      	ldr	r2, [pc, #304]	@ (8004e38 <HAL_GPIO_Init+0x300>)
 8004d08:	4293      	cmp	r3, r2
 8004d0a:	d019      	beq.n	8004d40 <HAL_GPIO_Init+0x208>
 8004d0c:	687b      	ldr	r3, [r7, #4]
 8004d0e:	4a4b      	ldr	r2, [pc, #300]	@ (8004e3c <HAL_GPIO_Init+0x304>)
 8004d10:	4293      	cmp	r3, r2
 8004d12:	d013      	beq.n	8004d3c <HAL_GPIO_Init+0x204>
 8004d14:	687b      	ldr	r3, [r7, #4]
 8004d16:	4a4a      	ldr	r2, [pc, #296]	@ (8004e40 <HAL_GPIO_Init+0x308>)
 8004d18:	4293      	cmp	r3, r2
 8004d1a:	d00d      	beq.n	8004d38 <HAL_GPIO_Init+0x200>
 8004d1c:	687b      	ldr	r3, [r7, #4]
 8004d1e:	4a49      	ldr	r2, [pc, #292]	@ (8004e44 <HAL_GPIO_Init+0x30c>)
 8004d20:	4293      	cmp	r3, r2
 8004d22:	d007      	beq.n	8004d34 <HAL_GPIO_Init+0x1fc>
 8004d24:	687b      	ldr	r3, [r7, #4]
 8004d26:	4a48      	ldr	r2, [pc, #288]	@ (8004e48 <HAL_GPIO_Init+0x310>)
 8004d28:	4293      	cmp	r3, r2
 8004d2a:	d101      	bne.n	8004d30 <HAL_GPIO_Init+0x1f8>
 8004d2c:	2305      	movs	r3, #5
 8004d2e:	e00a      	b.n	8004d46 <HAL_GPIO_Init+0x20e>
 8004d30:	2306      	movs	r3, #6
 8004d32:	e008      	b.n	8004d46 <HAL_GPIO_Init+0x20e>
 8004d34:	2304      	movs	r3, #4
 8004d36:	e006      	b.n	8004d46 <HAL_GPIO_Init+0x20e>
 8004d38:	2303      	movs	r3, #3
 8004d3a:	e004      	b.n	8004d46 <HAL_GPIO_Init+0x20e>
 8004d3c:	2302      	movs	r3, #2
 8004d3e:	e002      	b.n	8004d46 <HAL_GPIO_Init+0x20e>
 8004d40:	2301      	movs	r3, #1
 8004d42:	e000      	b.n	8004d46 <HAL_GPIO_Init+0x20e>
 8004d44:	2300      	movs	r3, #0
 8004d46:	697a      	ldr	r2, [r7, #20]
 8004d48:	f002 0203 	and.w	r2, r2, #3
 8004d4c:	0092      	lsls	r2, r2, #2
 8004d4e:	4093      	lsls	r3, r2
 8004d50:	693a      	ldr	r2, [r7, #16]
 8004d52:	4313      	orrs	r3, r2
 8004d54:	613b      	str	r3, [r7, #16]
        SYSCFG->EXTICR[position >> 2U] = temp;
 8004d56:	4937      	ldr	r1, [pc, #220]	@ (8004e34 <HAL_GPIO_Init+0x2fc>)
 8004d58:	697b      	ldr	r3, [r7, #20]
 8004d5a:	089b      	lsrs	r3, r3, #2
 8004d5c:	3302      	adds	r3, #2
 8004d5e:	693a      	ldr	r2, [r7, #16]
 8004d60:	f841 2023 	str.w	r2, [r1, r3, lsl #2]

        /* Clear Rising Falling edge configuration */
        temp = EXTI->RTSR1;
 8004d64:	4b39      	ldr	r3, [pc, #228]	@ (8004e4c <HAL_GPIO_Init+0x314>)
 8004d66:	689b      	ldr	r3, [r3, #8]
 8004d68:	613b      	str	r3, [r7, #16]
        temp &= ~(iocurrent);
 8004d6a:	68fb      	ldr	r3, [r7, #12]
 8004d6c:	43db      	mvns	r3, r3
 8004d6e:	693a      	ldr	r2, [r7, #16]
 8004d70:	4013      	ands	r3, r2
 8004d72:	613b      	str	r3, [r7, #16]
        if ((GPIO_Init->Mode & TRIGGER_RISING) != 0x00U)
 8004d74:	683b      	ldr	r3, [r7, #0]
 8004d76:	685b      	ldr	r3, [r3, #4]
 8004d78:	f403 1380 	and.w	r3, r3, #1048576	@ 0x100000
 8004d7c:	2b00      	cmp	r3, #0
 8004d7e:	d003      	beq.n	8004d88 <HAL_GPIO_Init+0x250>
        {
          temp |= iocurrent;
 8004d80:	693a      	ldr	r2, [r7, #16]
 8004d82:	68fb      	ldr	r3, [r7, #12]
 8004d84:	4313      	orrs	r3, r2
 8004d86:	613b      	str	r3, [r7, #16]
        }
        EXTI->RTSR1 = temp;
 8004d88:	4a30      	ldr	r2, [pc, #192]	@ (8004e4c <HAL_GPIO_Init+0x314>)
 8004d8a:	693b      	ldr	r3, [r7, #16]
 8004d8c:	6093      	str	r3, [r2, #8]

        temp = EXTI->FTSR1;
 8004d8e:	4b2f      	ldr	r3, [pc, #188]	@ (8004e4c <HAL_GPIO_Init+0x314>)
 8004d90:	68db      	ldr	r3, [r3, #12]
 8004d92:	613b      	str	r3, [r7, #16]
        temp &= ~(iocurrent);
 8004d94:	68fb      	ldr	r3, [r7, #12]
 8004d96:	43db      	mvns	r3, r3
 8004d98:	693a      	ldr	r2, [r7, #16]
 8004d9a:	4013      	ands	r3, r2
 8004d9c:	613b      	str	r3, [r7, #16]
        if ((GPIO_Init->Mode & TRIGGER_FALLING) != 0x00U)
 8004d9e:	683b      	ldr	r3, [r7, #0]
 8004da0:	685b      	ldr	r3, [r3, #4]
 8004da2:	f403 1300 	and.w	r3, r3, #2097152	@ 0x200000
 8004da6:	2b00      	cmp	r3, #0
 8004da8:	d003      	beq.n	8004db2 <HAL_GPIO_Init+0x27a>
        {
          temp |= iocurrent;
 8004daa:	693a      	ldr	r2, [r7, #16]
 8004dac:	68fb      	ldr	r3, [r7, #12]
 8004dae:	4313      	orrs	r3, r2
 8004db0:	613b      	str	r3, [r7, #16]
        }
        EXTI->FTSR1 = temp;
 8004db2:	4a26      	ldr	r2, [pc, #152]	@ (8004e4c <HAL_GPIO_Init+0x314>)
 8004db4:	693b      	ldr	r3, [r7, #16]
 8004db6:	60d3      	str	r3, [r2, #12]

        temp = EXTI->EMR1;
 8004db8:	4b24      	ldr	r3, [pc, #144]	@ (8004e4c <HAL_GPIO_Init+0x314>)
 8004dba:	685b      	ldr	r3, [r3, #4]
 8004dbc:	613b      	str	r3, [r7, #16]
        temp &= ~(iocurrent);
 8004dbe:	68fb      	ldr	r3, [r7, #12]
 8004dc0:	43db      	mvns	r3, r3
 8004dc2:	693a      	ldr	r2, [r7, #16]
 8004dc4:	4013      	ands	r3, r2
 8004dc6:	613b      	str	r3, [r7, #16]
        if ((GPIO_Init->Mode & EXTI_EVT) != 0x00U)
 8004dc8:	683b      	ldr	r3, [r7, #0]
 8004dca:	685b      	ldr	r3, [r3, #4]
 8004dcc:	f403 3300 	and.w	r3, r3, #131072	@ 0x20000
 8004dd0:	2b00      	cmp	r3, #0
 8004dd2:	d003      	beq.n	8004ddc <HAL_GPIO_Init+0x2a4>
        {
          temp |= iocurrent;
 8004dd4:	693a      	ldr	r2, [r7, #16]
 8004dd6:	68fb      	ldr	r3, [r7, #12]
 8004dd8:	4313      	orrs	r3, r2
 8004dda:	613b      	str	r3, [r7, #16]
        }
        EXTI->EMR1 = temp;
 8004ddc:	4a1b      	ldr	r2, [pc, #108]	@ (8004e4c <HAL_GPIO_Init+0x314>)
 8004dde:	693b      	ldr	r3, [r7, #16]
 8004de0:	6053      	str	r3, [r2, #4]

        /* Clear EXTI line configuration */
        temp = EXTI->IMR1;
 8004de2:	4b1a      	ldr	r3, [pc, #104]	@ (8004e4c <HAL_GPIO_Init+0x314>)
 8004de4:	681b      	ldr	r3, [r3, #0]
 8004de6:	613b      	str	r3, [r7, #16]
        temp &= ~(iocurrent);
 8004de8:	68fb      	ldr	r3, [r7, #12]
 8004dea:	43db      	mvns	r3, r3
 8004dec:	693a      	ldr	r2, [r7, #16]
 8004dee:	4013      	ands	r3, r2
 8004df0:	613b      	str	r3, [r7, #16]
        if ((GPIO_Init->Mode & EXTI_IT) != 0x00U)
 8004df2:	683b      	ldr	r3, [r7, #0]
 8004df4:	685b      	ldr	r3, [r3, #4]
 8004df6:	f403 3380 	and.w	r3, r3, #65536	@ 0x10000
 8004dfa:	2b00      	cmp	r3, #0
 8004dfc:	d003      	beq.n	8004e06 <HAL_GPIO_Init+0x2ce>
        {
          temp |= iocurrent;
 8004dfe:	693a      	ldr	r2, [r7, #16]
 8004e00:	68fb      	ldr	r3, [r7, #12]
 8004e02:	4313      	orrs	r3, r2
 8004e04:	613b      	str	r3, [r7, #16]
        }
        EXTI->IMR1 = temp;
 8004e06:	4a11      	ldr	r2, [pc, #68]	@ (8004e4c <HAL_GPIO_Init+0x314>)
 8004e08:	693b      	ldr	r3, [r7, #16]
 8004e0a:	6013      	str	r3, [r2, #0]
      }
    }

    position++;
 8004e0c:	697b      	ldr	r3, [r7, #20]
 8004e0e:	3301      	adds	r3, #1
 8004e10:	617b      	str	r3, [r7, #20]
  while (((GPIO_Init->Pin) >> position) != 0U)
 8004e12:	683b      	ldr	r3, [r7, #0]
 8004e14:	681a      	ldr	r2, [r3, #0]
 8004e16:	697b      	ldr	r3, [r7, #20]
 8004e18:	fa22 f303 	lsr.w	r3, r2, r3
 8004e1c:	2b00      	cmp	r3, #0
 8004e1e:	f47f ae93 	bne.w	8004b48 <HAL_GPIO_Init+0x10>
  }
}
 8004e22:	bf00      	nop
 8004e24:	bf00      	nop
 8004e26:	371c      	adds	r7, #28
 8004e28:	46bd      	mov	sp, r7
 8004e2a:	f85d 7b04 	ldr.w	r7, [sp], #4
 8004e2e:	4770      	bx	lr
 8004e30:	40021000 	.word	0x40021000
 8004e34:	40010000 	.word	0x40010000
 8004e38:	48000400 	.word	0x48000400
 8004e3c:	48000800 	.word	0x48000800
 8004e40:	48000c00 	.word	0x48000c00
 8004e44:	48001000 	.word	0x48001000
 8004e48:	48001400 	.word	0x48001400
 8004e4c:	40010400 	.word	0x40010400

08004e50 <HAL_GPIO_ReadPin>:
  * @param  GPIO_Pin specifies the port bit to read.
  *         This parameter can be any combination of GPIO_PIN_x where x can be (0..15).
  * @retval The input port pin value.
  */
GPIO_PinState HAL_GPIO_ReadPin(GPIO_TypeDef const *GPIOx, uint16_t GPIO_Pin)
{
 8004e50:	b480      	push	{r7}
 8004e52:	b085      	sub	sp, #20
 8004e54:	af00      	add	r7, sp, #0
 8004e56:	6078      	str	r0, [r7, #4]
 8004e58:	460b      	mov	r3, r1
 8004e5a:	807b      	strh	r3, [r7, #2]
  GPIO_PinState bitstatus;

  /* Check the parameters */
  assert_param(IS_GPIO_PIN(GPIO_Pin));

  if ((GPIOx->IDR & GPIO_Pin) != 0x00U)
 8004e5c:	687b      	ldr	r3, [r7, #4]
 8004e5e:	691a      	ldr	r2, [r3, #16]
 8004e60:	887b      	ldrh	r3, [r7, #2]
 8004e62:	4013      	ands	r3, r2
 8004e64:	2b00      	cmp	r3, #0
 8004e66:	d002      	beq.n	8004e6e <HAL_GPIO_ReadPin+0x1e>
  {
    bitstatus = GPIO_PIN_SET;
 8004e68:	2301      	movs	r3, #1
 8004e6a:	73fb      	strb	r3, [r7, #15]
 8004e6c:	e001      	b.n	8004e72 <HAL_GPIO_ReadPin+0x22>
  }
  else
  {
    bitstatus = GPIO_PIN_RESET;
 8004e6e:	2300      	movs	r3, #0
 8004e70:	73fb      	strb	r3, [r7, #15]
  }
  return bitstatus;
 8004e72:	7bfb      	ldrb	r3, [r7, #15]
}
 8004e74:	4618      	mov	r0, r3
 8004e76:	3714      	adds	r7, #20
 8004e78:	46bd      	mov	sp, r7
 8004e7a:	f85d 7b04 	ldr.w	r7, [sp], #4
 8004e7e:	4770      	bx	lr

08004e80 <HAL_GPIO_WritePin>:
  *            @arg GPIO_PIN_RESET: to clear the port pin
  *            @arg GPIO_PIN_SET: to set the port pin
  * @retval None
  */
void HAL_GPIO_WritePin(GPIO_TypeDef *GPIOx, uint16_t GPIO_Pin, GPIO_PinState PinState)
{
 8004e80:	b480      	push	{r7}
 8004e82:	b083      	sub	sp, #12
 8004e84:	af00      	add	r7, sp, #0
 8004e86:	6078      	str	r0, [r7, #4]
 8004e88:	460b      	mov	r3, r1
 8004e8a:	807b      	strh	r3, [r7, #2]
 8004e8c:	4613      	mov	r3, r2
 8004e8e:	707b      	strb	r3, [r7, #1]
  /* Check the parameters */
  assert_param(IS_GPIO_PIN(GPIO_Pin));
  assert_param(IS_GPIO_PIN_ACTION(PinState));

  if (PinState != GPIO_PIN_RESET)
 8004e90:	787b      	ldrb	r3, [r7, #1]
 8004e92:	2b00      	cmp	r3, #0
 8004e94:	d003      	beq.n	8004e9e <HAL_GPIO_WritePin+0x1e>
  {
    GPIOx->BSRR = (uint32_t)GPIO_Pin;
 8004e96:	887a      	ldrh	r2, [r7, #2]
 8004e98:	687b      	ldr	r3, [r7, #4]
 8004e9a:	619a      	str	r2, [r3, #24]
  }
  else
  {
    GPIOx->BRR = (uint32_t)GPIO_Pin;
  }
}
 8004e9c:	e002      	b.n	8004ea4 <HAL_GPIO_WritePin+0x24>
    GPIOx->BRR = (uint32_t)GPIO_Pin;
 8004e9e:	887a      	ldrh	r2, [r7, #2]
 8004ea0:	687b      	ldr	r3, [r7, #4]
 8004ea2:	629a      	str	r2, [r3, #40]	@ 0x28
}
 8004ea4:	bf00      	nop
 8004ea6:	370c      	adds	r7, #12
 8004ea8:	46bd      	mov	sp, r7
 8004eaa:	f85d 7b04 	ldr.w	r7, [sp], #4
 8004eae:	4770      	bx	lr

08004eb0 <HAL_PWREx_ControlVoltageScaling>:
  *        cleared before returning the status. If the flag is not cleared within
  *        50 microseconds, HAL_TIMEOUT status is reported.
  * @retval HAL Status
  */
HAL_StatusTypeDef HAL_PWREx_ControlVoltageScaling(uint32_t VoltageScaling)
{
 8004eb0:	b480      	push	{r7}
 8004eb2:	b085      	sub	sp, #20
 8004eb4:	af00      	add	r7, sp, #0
 8004eb6:	6078      	str	r0, [r7, #4]
  uint32_t wait_loop_index;

  assert_param(IS_PWR_VOLTAGE_SCALING_RANGE(VoltageScaling));

  if (VoltageScaling == PWR_REGULATOR_VOLTAGE_SCALE1_BOOST)
 8004eb8:	687b      	ldr	r3, [r7, #4]
 8004eba:	2b00      	cmp	r3, #0
 8004ebc:	d141      	bne.n	8004f42 <HAL_PWREx_ControlVoltageScaling+0x92>
  {
    /* If current range is range 2 */
    if (READ_BIT(PWR->CR1, PWR_CR1_VOS) == PWR_REGULATOR_VOLTAGE_SCALE2)
 8004ebe:	4b4b      	ldr	r3, [pc, #300]	@ (8004fec <HAL_PWREx_ControlVoltageScaling+0x13c>)
 8004ec0:	681b      	ldr	r3, [r3, #0]
 8004ec2:	f403 63c0 	and.w	r3, r3, #1536	@ 0x600
 8004ec6:	f5b3 6f80 	cmp.w	r3, #1024	@ 0x400
 8004eca:	d131      	bne.n	8004f30 <HAL_PWREx_ControlVoltageScaling+0x80>
    {
      /* Make sure Range 1 Boost is enabled */
      CLEAR_BIT(PWR->CR5, PWR_CR5_R1MODE);
 8004ecc:	4b47      	ldr	r3, [pc, #284]	@ (8004fec <HAL_PWREx_ControlVoltageScaling+0x13c>)
 8004ece:	f8d3 3080 	ldr.w	r3, [r3, #128]	@ 0x80
 8004ed2:	4a46      	ldr	r2, [pc, #280]	@ (8004fec <HAL_PWREx_ControlVoltageScaling+0x13c>)
 8004ed4:	f423 7380 	bic.w	r3, r3, #256	@ 0x100
 8004ed8:	f8c2 3080 	str.w	r3, [r2, #128]	@ 0x80

      /* Set Range 1 */
      MODIFY_REG(PWR->CR1, PWR_CR1_VOS, PWR_REGULATOR_VOLTAGE_SCALE1);
 8004edc:	4b43      	ldr	r3, [pc, #268]	@ (8004fec <HAL_PWREx_ControlVoltageScaling+0x13c>)
 8004ede:	681b      	ldr	r3, [r3, #0]
 8004ee0:	f423 63c0 	bic.w	r3, r3, #1536	@ 0x600
 8004ee4:	4a41      	ldr	r2, [pc, #260]	@ (8004fec <HAL_PWREx_ControlVoltageScaling+0x13c>)
 8004ee6:	f443 7300 	orr.w	r3, r3, #512	@ 0x200
 8004eea:	6013      	str	r3, [r2, #0]

      /* Wait until VOSF is cleared */
      wait_loop_index = ((PWR_FLAG_SETTING_DELAY_US * SystemCoreClock) / 1000000U) + 1U;
 8004eec:	4b40      	ldr	r3, [pc, #256]	@ (8004ff0 <HAL_PWREx_ControlVoltageScaling+0x140>)
 8004eee:	681b      	ldr	r3, [r3, #0]
 8004ef0:	2232      	movs	r2, #50	@ 0x32
 8004ef2:	fb02 f303 	mul.w	r3, r2, r3
 8004ef6:	4a3f      	ldr	r2, [pc, #252]	@ (8004ff4 <HAL_PWREx_ControlVoltageScaling+0x144>)
 8004ef8:	fba2 2303 	umull	r2, r3, r2, r3
 8004efc:	0c9b      	lsrs	r3, r3, #18
 8004efe:	3301      	adds	r3, #1
 8004f00:	60fb      	str	r3, [r7, #12]
      while ((HAL_IS_BIT_SET(PWR->SR2, PWR_SR2_VOSF)) && (wait_loop_index != 0U))
 8004f02:	e002      	b.n	8004f0a <HAL_PWREx_ControlVoltageScaling+0x5a>
      {
        wait_loop_index--;
 8004f04:	68fb      	ldr	r3, [r7, #12]
 8004f06:	3b01      	subs	r3, #1
 8004f08:	60fb      	str	r3, [r7, #12]
      while ((HAL_IS_BIT_SET(PWR->SR2, PWR_SR2_VOSF)) && (wait_loop_index != 0U))
 8004f0a:	4b38      	ldr	r3, [pc, #224]	@ (8004fec <HAL_PWREx_ControlVoltageScaling+0x13c>)
 8004f0c:	695b      	ldr	r3, [r3, #20]
 8004f0e:	f403 6380 	and.w	r3, r3, #1024	@ 0x400
 8004f12:	f5b3 6f80 	cmp.w	r3, #1024	@ 0x400
 8004f16:	d102      	bne.n	8004f1e <HAL_PWREx_ControlVoltageScaling+0x6e>
 8004f18:	68fb      	ldr	r3, [r7, #12]
 8004f1a:	2b00      	cmp	r3, #0
 8004f1c:	d1f2      	bne.n	8004f04 <HAL_PWREx_ControlVoltageScaling+0x54>
      }
      if (HAL_IS_BIT_SET(PWR->SR2, PWR_SR2_VOSF))
 8004f1e:	4b33      	ldr	r3, [pc, #204]	@ (8004fec <HAL_PWREx_ControlVoltageScaling+0x13c>)
 8004f20:	695b      	ldr	r3, [r3, #20]
 8004f22:	f403 6380 	and.w	r3, r3, #1024	@ 0x400
 8004f26:	f5b3 6f80 	cmp.w	r3, #1024	@ 0x400
 8004f2a:	d158      	bne.n	8004fde <HAL_PWREx_ControlVoltageScaling+0x12e>
      {
        return HAL_TIMEOUT;
 8004f2c:	2303      	movs	r3, #3
 8004f2e:	e057      	b.n	8004fe0 <HAL_PWREx_ControlVoltageScaling+0x130>
    }
    /* If current range is range 1 normal or boost mode */
    else
    {
      /* Enable Range 1 Boost (no issue if bit already reset) */
      CLEAR_BIT(PWR->CR5, PWR_CR5_R1MODE);
 8004f30:	4b2e      	ldr	r3, [pc, #184]	@ (8004fec <HAL_PWREx_ControlVoltageScaling+0x13c>)
 8004f32:	f8d3 3080 	ldr.w	r3, [r3, #128]	@ 0x80
 8004f36:	4a2d      	ldr	r2, [pc, #180]	@ (8004fec <HAL_PWREx_ControlVoltageScaling+0x13c>)
 8004f38:	f423 7380 	bic.w	r3, r3, #256	@ 0x100
 8004f3c:	f8c2 3080 	str.w	r3, [r2, #128]	@ 0x80
 8004f40:	e04d      	b.n	8004fde <HAL_PWREx_ControlVoltageScaling+0x12e>
    }
  }
  else if (VoltageScaling == PWR_REGULATOR_VOLTAGE_SCALE1)
 8004f42:	687b      	ldr	r3, [r7, #4]
 8004f44:	f5b3 7f00 	cmp.w	r3, #512	@ 0x200
 8004f48:	d141      	bne.n	8004fce <HAL_PWREx_ControlVoltageScaling+0x11e>
  {
    /* If current range is range 2 */
    if (READ_BIT(PWR->CR1, PWR_CR1_VOS) == PWR_REGULATOR_VOLTAGE_SCALE2)
 8004f4a:	4b28      	ldr	r3, [pc, #160]	@ (8004fec <HAL_PWREx_ControlVoltageScaling+0x13c>)
 8004f4c:	681b      	ldr	r3, [r3, #0]
 8004f4e:	f403 63c0 	and.w	r3, r3, #1536	@ 0x600
 8004f52:	f5b3 6f80 	cmp.w	r3, #1024	@ 0x400
 8004f56:	d131      	bne.n	8004fbc <HAL_PWREx_ControlVoltageScaling+0x10c>
    {
      /* Make sure Range 1 Boost is disabled */
      SET_BIT(PWR->CR5, PWR_CR5_R1MODE);
 8004f58:	4b24      	ldr	r3, [pc, #144]	@ (8004fec <HAL_PWREx_ControlVoltageScaling+0x13c>)
 8004f5a:	f8d3 3080 	ldr.w	r3, [r3, #128]	@ 0x80
 8004f5e:	4a23      	ldr	r2, [pc, #140]	@ (8004fec <HAL_PWREx_ControlVoltageScaling+0x13c>)
 8004f60:	f443 7380 	orr.w	r3, r3, #256	@ 0x100
 8004f64:	f8c2 3080 	str.w	r3, [r2, #128]	@ 0x80

      /* Set Range 1 */
      MODIFY_REG(PWR->CR1, PWR_CR1_VOS, PWR_REGULATOR_VOLTAGE_SCALE1);
 8004f68:	4b20      	ldr	r3, [pc, #128]	@ (8004fec <HAL_PWREx_ControlVoltageScaling+0x13c>)
 8004f6a:	681b      	ldr	r3, [r3, #0]
 8004f6c:	f423 63c0 	bic.w	r3, r3, #1536	@ 0x600
 8004f70:	4a1e      	ldr	r2, [pc, #120]	@ (8004fec <HAL_PWREx_ControlVoltageScaling+0x13c>)
 8004f72:	f443 7300 	orr.w	r3, r3, #512	@ 0x200
 8004f76:	6013      	str	r3, [r2, #0]

      /* Wait until VOSF is cleared */
      wait_loop_index = ((PWR_FLAG_SETTING_DELAY_US * SystemCoreClock) / 1000000U) + 1U;
 8004f78:	4b1d      	ldr	r3, [pc, #116]	@ (8004ff0 <HAL_PWREx_ControlVoltageScaling+0x140>)
 8004f7a:	681b      	ldr	r3, [r3, #0]
 8004f7c:	2232      	movs	r2, #50	@ 0x32
 8004f7e:	fb02 f303 	mul.w	r3, r2, r3
 8004f82:	4a1c      	ldr	r2, [pc, #112]	@ (8004ff4 <HAL_PWREx_ControlVoltageScaling+0x144>)
 8004f84:	fba2 2303 	umull	r2, r3, r2, r3
 8004f88:	0c9b      	lsrs	r3, r3, #18
 8004f8a:	3301      	adds	r3, #1
 8004f8c:	60fb      	str	r3, [r7, #12]
      while ((HAL_IS_BIT_SET(PWR->SR2, PWR_SR2_VOSF)) && (wait_loop_index != 0U))
 8004f8e:	e002      	b.n	8004f96 <HAL_PWREx_ControlVoltageScaling+0xe6>
      {
        wait_loop_index--;
 8004f90:	68fb      	ldr	r3, [r7, #12]
 8004f92:	3b01      	subs	r3, #1
 8004f94:	60fb      	str	r3, [r7, #12]
      while ((HAL_IS_BIT_SET(PWR->SR2, PWR_SR2_VOSF)) && (wait_loop_index != 0U))
 8004f96:	4b15      	ldr	r3, [pc, #84]	@ (8004fec <HAL_PWREx_ControlVoltageScaling+0x13c>)
 8004f98:	695b      	ldr	r3, [r3, #20]
 8004f9a:	f403 6380 	and.w	r3, r3, #1024	@ 0x400
 8004f9e:	f5b3 6f80 	cmp.w	r3, #1024	@ 0x400
 8004fa2:	d102      	bne.n	8004faa <HAL_PWREx_ControlVoltageScaling+0xfa>
 8004fa4:	68fb      	ldr	r3, [r7, #12]
 8004fa6:	2b00      	cmp	r3, #0
 8004fa8:	d1f2      	bne.n	8004f90 <HAL_PWREx_ControlVoltageScaling+0xe0>
      }
      if (HAL_IS_BIT_SET(PWR->SR2, PWR_SR2_VOSF))
 8004faa:	4b10      	ldr	r3, [pc, #64]	@ (8004fec <HAL_PWREx_ControlVoltageScaling+0x13c>)
 8004fac:	695b      	ldr	r3, [r3, #20]
 8004fae:	f403 6380 	and.w	r3, r3, #1024	@ 0x400
 8004fb2:	f5b3 6f80 	cmp.w	r3, #1024	@ 0x400
 8004fb6:	d112      	bne.n	8004fde <HAL_PWREx_ControlVoltageScaling+0x12e>
      {
        return HAL_TIMEOUT;
 8004fb8:	2303      	movs	r3, #3
 8004fba:	e011      	b.n	8004fe0 <HAL_PWREx_ControlVoltageScaling+0x130>
    }
     /* If current range is range 1 normal or boost mode */
    else
    {
      /* Disable Range 1 Boost (no issue if bit already set) */
      SET_BIT(PWR->CR5, PWR_CR5_R1MODE);
 8004fbc:	4b0b      	ldr	r3, [pc, #44]	@ (8004fec <HAL_PWREx_ControlVoltageScaling+0x13c>)
 8004fbe:	f8d3 3080 	ldr.w	r3, [r3, #128]	@ 0x80
 8004fc2:	4a0a      	ldr	r2, [pc, #40]	@ (8004fec <HAL_PWREx_ControlVoltageScaling+0x13c>)
 8004fc4:	f443 7380 	orr.w	r3, r3, #256	@ 0x100
 8004fc8:	f8c2 3080 	str.w	r3, [r2, #128]	@ 0x80
 8004fcc:	e007      	b.n	8004fde <HAL_PWREx_ControlVoltageScaling+0x12e>
    }
  }
  else
  {
    /* Set Range 2 */
    MODIFY_REG(PWR->CR1, PWR_CR1_VOS, PWR_REGULATOR_VOLTAGE_SCALE2);
 8004fce:	4b07      	ldr	r3, [pc, #28]	@ (8004fec <HAL_PWREx_ControlVoltageScaling+0x13c>)
 8004fd0:	681b      	ldr	r3, [r3, #0]
 8004fd2:	f423 63c0 	bic.w	r3, r3, #1536	@ 0x600
 8004fd6:	4a05      	ldr	r2, [pc, #20]	@ (8004fec <HAL_PWREx_ControlVoltageScaling+0x13c>)
 8004fd8:	f443 6380 	orr.w	r3, r3, #1024	@ 0x400
 8004fdc:	6013      	str	r3, [r2, #0]
    /* No need to wait for VOSF to be cleared for this transition */
    /* PWR_CR5_R1MODE bit setting has no effect in Range 2        */
  }

  return HAL_OK;
 8004fde:	2300      	movs	r3, #0
}
 8004fe0:	4618      	mov	r0, r3
 8004fe2:	3714      	adds	r7, #20
 8004fe4:	46bd      	mov	sp, r7
 8004fe6:	f85d 7b04 	ldr.w	r7, [sp], #4
 8004fea:	4770      	bx	lr
 8004fec:	40007000 	.word	0x40007000
 8004ff0:	200000c0 	.word	0x200000c0
 8004ff4:	431bde83 	.word	0x431bde83

08004ff8 <HAL_PWREx_DisableUCPDDeadBattery>:
  *       or to hand over control to the UCPD (which should therefore be
  *       initialized before doing the disable).
  * @retval None
  */
void HAL_PWREx_DisableUCPDDeadBattery(void)
{
 8004ff8:	b480      	push	{r7}
 8004ffa:	af00      	add	r7, sp, #0
  /* Write 1 to disable the USB Type-C dead battery pull-down behavior */
  SET_BIT(PWR->CR3, PWR_CR3_UCPD_DBDIS);
 8004ffc:	4b05      	ldr	r3, [pc, #20]	@ (8005014 <HAL_PWREx_DisableUCPDDeadBattery+0x1c>)
 8004ffe:	689b      	ldr	r3, [r3, #8]
 8005000:	4a04      	ldr	r2, [pc, #16]	@ (8005014 <HAL_PWREx_DisableUCPDDeadBattery+0x1c>)
 8005002:	f443 4380 	orr.w	r3, r3, #16384	@ 0x4000
 8005006:	6093      	str	r3, [r2, #8]
}
 8005008:	bf00      	nop
 800500a:	46bd      	mov	sp, r7
 800500c:	f85d 7b04 	ldr.w	r7, [sp], #4
 8005010:	4770      	bx	lr
 8005012:	bf00      	nop
 8005014:	40007000 	.word	0x40007000

08005018 <HAL_RCC_OscConfig>:
  *         supported by this macro. User should request a transition to HSE Off
  *         first and then HSE On or HSE Bypass.
  * @retval HAL status
  */
HAL_StatusTypeDef HAL_RCC_OscConfig(const RCC_OscInitTypeDef  *RCC_OscInitStruct)
{
 8005018:	b580      	push	{r7, lr}
 800501a:	b088      	sub	sp, #32
 800501c:	af00      	add	r7, sp, #0
 800501e:	6078      	str	r0, [r7, #4]
  uint32_t tickstart;
  uint32_t temp_sysclksrc;
  uint32_t temp_pllckcfg;

  /* Check Null pointer */
  if (RCC_OscInitStruct == NULL)
 8005020:	687b      	ldr	r3, [r7, #4]
 8005022:	2b00      	cmp	r3, #0
 8005024:	d101      	bne.n	800502a <HAL_RCC_OscConfig+0x12>
  {
    return HAL_ERROR;
 8005026:	2301      	movs	r3, #1
 8005028:	e2fe      	b.n	8005628 <HAL_RCC_OscConfig+0x610>

  /* Check the parameters */
  assert_param(IS_RCC_OSCILLATORTYPE(RCC_OscInitStruct->OscillatorType));

  /*------------------------------- HSE Configuration ------------------------*/
  if (((RCC_OscInitStruct->OscillatorType) & RCC_OSCILLATORTYPE_HSE) == RCC_OSCILLATORTYPE_HSE)
 800502a:	687b      	ldr	r3, [r7, #4]
 800502c:	681b      	ldr	r3, [r3, #0]
 800502e:	f003 0301 	and.w	r3, r3, #1
 8005032:	2b00      	cmp	r3, #0
 8005034:	d075      	beq.n	8005122 <HAL_RCC_OscConfig+0x10a>
  {
    /* Check the parameters */
    assert_param(IS_RCC_HSE(RCC_OscInitStruct->HSEState));

    temp_sysclksrc = __HAL_RCC_GET_SYSCLK_SOURCE();
 8005036:	4b97      	ldr	r3, [pc, #604]	@ (8005294 <HAL_RCC_OscConfig+0x27c>)
 8005038:	689b      	ldr	r3, [r3, #8]
 800503a:	f003 030c 	and.w	r3, r3, #12
 800503e:	61bb      	str	r3, [r7, #24]
    temp_pllckcfg = __HAL_RCC_GET_PLL_OSCSOURCE();
 8005040:	4b94      	ldr	r3, [pc, #592]	@ (8005294 <HAL_RCC_OscConfig+0x27c>)
 8005042:	68db      	ldr	r3, [r3, #12]
 8005044:	f003 0303 	and.w	r3, r3, #3
 8005048:	617b      	str	r3, [r7, #20]

    /* When the HSE is used as system clock or clock source for PLL in these cases it is not allowed to be disabled */
    if (((temp_sysclksrc == RCC_CFGR_SWS_PLL) && (temp_pllckcfg == RCC_PLLSOURCE_HSE)) || (temp_sysclksrc == RCC_CFGR_SWS_HSE))
 800504a:	69bb      	ldr	r3, [r7, #24]
 800504c:	2b0c      	cmp	r3, #12
 800504e:	d102      	bne.n	8005056 <HAL_RCC_OscConfig+0x3e>
 8005050:	697b      	ldr	r3, [r7, #20]
 8005052:	2b03      	cmp	r3, #3
 8005054:	d002      	beq.n	800505c <HAL_RCC_OscConfig+0x44>
 8005056:	69bb      	ldr	r3, [r7, #24]
 8005058:	2b08      	cmp	r3, #8
 800505a:	d10b      	bne.n	8005074 <HAL_RCC_OscConfig+0x5c>
    {
      if ((READ_BIT(RCC->CR, RCC_CR_HSERDY) != 0U) && (RCC_OscInitStruct->HSEState == RCC_HSE_OFF))
 800505c:	4b8d      	ldr	r3, [pc, #564]	@ (8005294 <HAL_RCC_OscConfig+0x27c>)
 800505e:	681b      	ldr	r3, [r3, #0]
 8005060:	f403 3300 	and.w	r3, r3, #131072	@ 0x20000
 8005064:	2b00      	cmp	r3, #0
 8005066:	d05b      	beq.n	8005120 <HAL_RCC_OscConfig+0x108>
 8005068:	687b      	ldr	r3, [r7, #4]
 800506a:	685b      	ldr	r3, [r3, #4]
 800506c:	2b00      	cmp	r3, #0
 800506e:	d157      	bne.n	8005120 <HAL_RCC_OscConfig+0x108>
      {
        return HAL_ERROR;
 8005070:	2301      	movs	r3, #1
 8005072:	e2d9      	b.n	8005628 <HAL_RCC_OscConfig+0x610>
      }
    }
    else
    {
      /* Set the new HSE configuration ---------------------------------------*/
      __HAL_RCC_HSE_CONFIG(RCC_OscInitStruct->HSEState);
 8005074:	687b      	ldr	r3, [r7, #4]
 8005076:	685b      	ldr	r3, [r3, #4]
 8005078:	f5b3 3f80 	cmp.w	r3, #65536	@ 0x10000
 800507c:	d106      	bne.n	800508c <HAL_RCC_OscConfig+0x74>
 800507e:	4b85      	ldr	r3, [pc, #532]	@ (8005294 <HAL_RCC_OscConfig+0x27c>)
 8005080:	681b      	ldr	r3, [r3, #0]
 8005082:	4a84      	ldr	r2, [pc, #528]	@ (8005294 <HAL_RCC_OscConfig+0x27c>)
 8005084:	f443 3380 	orr.w	r3, r3, #65536	@ 0x10000
 8005088:	6013      	str	r3, [r2, #0]
 800508a:	e01d      	b.n	80050c8 <HAL_RCC_OscConfig+0xb0>
 800508c:	687b      	ldr	r3, [r7, #4]
 800508e:	685b      	ldr	r3, [r3, #4]
 8005090:	f5b3 2fa0 	cmp.w	r3, #327680	@ 0x50000
 8005094:	d10c      	bne.n	80050b0 <HAL_RCC_OscConfig+0x98>
 8005096:	4b7f      	ldr	r3, [pc, #508]	@ (8005294 <HAL_RCC_OscConfig+0x27c>)
 8005098:	681b      	ldr	r3, [r3, #0]
 800509a:	4a7e      	ldr	r2, [pc, #504]	@ (8005294 <HAL_RCC_OscConfig+0x27c>)
 800509c:	f443 2380 	orr.w	r3, r3, #262144	@ 0x40000
 80050a0:	6013      	str	r3, [r2, #0]
 80050a2:	4b7c      	ldr	r3, [pc, #496]	@ (8005294 <HAL_RCC_OscConfig+0x27c>)
 80050a4:	681b      	ldr	r3, [r3, #0]
 80050a6:	4a7b      	ldr	r2, [pc, #492]	@ (8005294 <HAL_RCC_OscConfig+0x27c>)
 80050a8:	f443 3380 	orr.w	r3, r3, #65536	@ 0x10000
 80050ac:	6013      	str	r3, [r2, #0]
 80050ae:	e00b      	b.n	80050c8 <HAL_RCC_OscConfig+0xb0>
 80050b0:	4b78      	ldr	r3, [pc, #480]	@ (8005294 <HAL_RCC_OscConfig+0x27c>)
 80050b2:	681b      	ldr	r3, [r3, #0]
 80050b4:	4a77      	ldr	r2, [pc, #476]	@ (8005294 <HAL_RCC_OscConfig+0x27c>)
 80050b6:	f423 3380 	bic.w	r3, r3, #65536	@ 0x10000
 80050ba:	6013      	str	r3, [r2, #0]
 80050bc:	4b75      	ldr	r3, [pc, #468]	@ (8005294 <HAL_RCC_OscConfig+0x27c>)
 80050be:	681b      	ldr	r3, [r3, #0]
 80050c0:	4a74      	ldr	r2, [pc, #464]	@ (8005294 <HAL_RCC_OscConfig+0x27c>)
 80050c2:	f423 2380 	bic.w	r3, r3, #262144	@ 0x40000
 80050c6:	6013      	str	r3, [r2, #0]

      /* Check the HSE State */
      if (RCC_OscInitStruct->HSEState != RCC_HSE_OFF)
 80050c8:	687b      	ldr	r3, [r7, #4]
 80050ca:	685b      	ldr	r3, [r3, #4]
 80050cc:	2b00      	cmp	r3, #0
 80050ce:	d013      	beq.n	80050f8 <HAL_RCC_OscConfig+0xe0>
      {
        /* Get Start Tick*/
        tickstart = HAL_GetTick();
 80050d0:	f7ff fa14 	bl	80044fc <HAL_GetTick>
 80050d4:	6138      	str	r0, [r7, #16]

        /* Wait till HSE is ready */
        while (READ_BIT(RCC->CR, RCC_CR_HSERDY) == 0U)
 80050d6:	e008      	b.n	80050ea <HAL_RCC_OscConfig+0xd2>
        {
          if ((HAL_GetTick() - tickstart) > HSE_TIMEOUT_VALUE)
 80050d8:	f7ff fa10 	bl	80044fc <HAL_GetTick>
 80050dc:	4602      	mov	r2, r0
 80050de:	693b      	ldr	r3, [r7, #16]
 80050e0:	1ad3      	subs	r3, r2, r3
 80050e2:	2b64      	cmp	r3, #100	@ 0x64
 80050e4:	d901      	bls.n	80050ea <HAL_RCC_OscConfig+0xd2>
          {
            return HAL_TIMEOUT;
 80050e6:	2303      	movs	r3, #3
 80050e8:	e29e      	b.n	8005628 <HAL_RCC_OscConfig+0x610>
        while (READ_BIT(RCC->CR, RCC_CR_HSERDY) == 0U)
 80050ea:	4b6a      	ldr	r3, [pc, #424]	@ (8005294 <HAL_RCC_OscConfig+0x27c>)
 80050ec:	681b      	ldr	r3, [r3, #0]
 80050ee:	f403 3300 	and.w	r3, r3, #131072	@ 0x20000
 80050f2:	2b00      	cmp	r3, #0
 80050f4:	d0f0      	beq.n	80050d8 <HAL_RCC_OscConfig+0xc0>
 80050f6:	e014      	b.n	8005122 <HAL_RCC_OscConfig+0x10a>
        }
      }
      else
      {
        /* Get Start Tick*/
        tickstart = HAL_GetTick();
 80050f8:	f7ff fa00 	bl	80044fc <HAL_GetTick>
 80050fc:	6138      	str	r0, [r7, #16]

        /* Wait till HSE is disabled */
        while (READ_BIT(RCC->CR, RCC_CR_HSERDY) != 0U)
 80050fe:	e008      	b.n	8005112 <HAL_RCC_OscConfig+0xfa>
        {
          if ((HAL_GetTick() - tickstart) > HSE_TIMEOUT_VALUE)
 8005100:	f7ff f9fc 	bl	80044fc <HAL_GetTick>
 8005104:	4602      	mov	r2, r0
 8005106:	693b      	ldr	r3, [r7, #16]
 8005108:	1ad3      	subs	r3, r2, r3
 800510a:	2b64      	cmp	r3, #100	@ 0x64
 800510c:	d901      	bls.n	8005112 <HAL_RCC_OscConfig+0xfa>
          {
            return HAL_TIMEOUT;
 800510e:	2303      	movs	r3, #3
 8005110:	e28a      	b.n	8005628 <HAL_RCC_OscConfig+0x610>
        while (READ_BIT(RCC->CR, RCC_CR_HSERDY) != 0U)
 8005112:	4b60      	ldr	r3, [pc, #384]	@ (8005294 <HAL_RCC_OscConfig+0x27c>)
 8005114:	681b      	ldr	r3, [r3, #0]
 8005116:	f403 3300 	and.w	r3, r3, #131072	@ 0x20000
 800511a:	2b00      	cmp	r3, #0
 800511c:	d1f0      	bne.n	8005100 <HAL_RCC_OscConfig+0xe8>
 800511e:	e000      	b.n	8005122 <HAL_RCC_OscConfig+0x10a>
      if ((READ_BIT(RCC->CR, RCC_CR_HSERDY) != 0U) && (RCC_OscInitStruct->HSEState == RCC_HSE_OFF))
 8005120:	bf00      	nop
        }
      }
    }
  }
  /*----------------------------- HSI Configuration --------------------------*/
  if (((RCC_OscInitStruct->OscillatorType) & RCC_OSCILLATORTYPE_HSI) == RCC_OSCILLATORTYPE_HSI)
 8005122:	687b      	ldr	r3, [r7, #4]
 8005124:	681b      	ldr	r3, [r3, #0]
 8005126:	f003 0302 	and.w	r3, r3, #2
 800512a:	2b00      	cmp	r3, #0
 800512c:	d075      	beq.n	800521a <HAL_RCC_OscConfig+0x202>
    /* Check the parameters */
    assert_param(IS_RCC_HSI(RCC_OscInitStruct->HSIState));
    assert_param(IS_RCC_HSI_CALIBRATION_VALUE(RCC_OscInitStruct->HSICalibrationValue));

    /* Check if HSI is used as system clock or as PLL source when PLL is selected as system clock */
    temp_sysclksrc = __HAL_RCC_GET_SYSCLK_SOURCE();
 800512e:	4b59      	ldr	r3, [pc, #356]	@ (8005294 <HAL_RCC_OscConfig+0x27c>)
 8005130:	689b      	ldr	r3, [r3, #8]
 8005132:	f003 030c 	and.w	r3, r3, #12
 8005136:	61bb      	str	r3, [r7, #24]
    temp_pllckcfg = __HAL_RCC_GET_PLL_OSCSOURCE();
 8005138:	4b56      	ldr	r3, [pc, #344]	@ (8005294 <HAL_RCC_OscConfig+0x27c>)
 800513a:	68db      	ldr	r3, [r3, #12]
 800513c:	f003 0303 	and.w	r3, r3, #3
 8005140:	617b      	str	r3, [r7, #20]
    if (((temp_sysclksrc == RCC_CFGR_SWS_PLL) && (temp_pllckcfg == RCC_PLLSOURCE_HSI)) || (temp_sysclksrc == RCC_CFGR_SWS_HSI))
 8005142:	69bb      	ldr	r3, [r7, #24]
 8005144:	2b0c      	cmp	r3, #12
 8005146:	d102      	bne.n	800514e <HAL_RCC_OscConfig+0x136>
 8005148:	697b      	ldr	r3, [r7, #20]
 800514a:	2b02      	cmp	r3, #2
 800514c:	d002      	beq.n	8005154 <HAL_RCC_OscConfig+0x13c>
 800514e:	69bb      	ldr	r3, [r7, #24]
 8005150:	2b04      	cmp	r3, #4
 8005152:	d11f      	bne.n	8005194 <HAL_RCC_OscConfig+0x17c>
    {
      /* When HSI is used as system clock it will not be disabled */
      if ((READ_BIT(RCC->CR, RCC_CR_HSIRDY) != 0U) && (RCC_OscInitStruct->HSIState == RCC_HSI_OFF))
 8005154:	4b4f      	ldr	r3, [pc, #316]	@ (8005294 <HAL_RCC_OscConfig+0x27c>)
 8005156:	681b      	ldr	r3, [r3, #0]
 8005158:	f403 6380 	and.w	r3, r3, #1024	@ 0x400
 800515c:	2b00      	cmp	r3, #0
 800515e:	d005      	beq.n	800516c <HAL_RCC_OscConfig+0x154>
 8005160:	687b      	ldr	r3, [r7, #4]
 8005162:	68db      	ldr	r3, [r3, #12]
 8005164:	2b00      	cmp	r3, #0
 8005166:	d101      	bne.n	800516c <HAL_RCC_OscConfig+0x154>
      {
        return HAL_ERROR;
 8005168:	2301      	movs	r3, #1
 800516a:	e25d      	b.n	8005628 <HAL_RCC_OscConfig+0x610>
      }
      /* Otherwise, just the calibration is allowed */
      else
      {
        /* Adjusts the Internal High Speed oscillator (HSI) calibration value.*/
        __HAL_RCC_HSI_CALIBRATIONVALUE_ADJUST(RCC_OscInitStruct->HSICalibrationValue);
 800516c:	4b49      	ldr	r3, [pc, #292]	@ (8005294 <HAL_RCC_OscConfig+0x27c>)
 800516e:	685b      	ldr	r3, [r3, #4]
 8005170:	f023 42fe 	bic.w	r2, r3, #2130706432	@ 0x7f000000
 8005174:	687b      	ldr	r3, [r7, #4]
 8005176:	691b      	ldr	r3, [r3, #16]
 8005178:	061b      	lsls	r3, r3, #24
 800517a:	4946      	ldr	r1, [pc, #280]	@ (8005294 <HAL_RCC_OscConfig+0x27c>)
 800517c:	4313      	orrs	r3, r2
 800517e:	604b      	str	r3, [r1, #4]

        /* Adapt Systick interrupt period */
        if (HAL_InitTick(uwTickPrio) != HAL_OK)
 8005180:	4b45      	ldr	r3, [pc, #276]	@ (8005298 <HAL_RCC_OscConfig+0x280>)
 8005182:	681b      	ldr	r3, [r3, #0]
 8005184:	4618      	mov	r0, r3
 8005186:	f7ff f96d 	bl	8004464 <HAL_InitTick>
 800518a:	4603      	mov	r3, r0
 800518c:	2b00      	cmp	r3, #0
 800518e:	d043      	beq.n	8005218 <HAL_RCC_OscConfig+0x200>
        {
          return HAL_ERROR;
 8005190:	2301      	movs	r3, #1
 8005192:	e249      	b.n	8005628 <HAL_RCC_OscConfig+0x610>
      }
    }
    else
    {
      /* Check the HSI State */
      if (RCC_OscInitStruct->HSIState != RCC_HSI_OFF)
 8005194:	687b      	ldr	r3, [r7, #4]
 8005196:	68db      	ldr	r3, [r3, #12]
 8005198:	2b00      	cmp	r3, #0
 800519a:	d023      	beq.n	80051e4 <HAL_RCC_OscConfig+0x1cc>
      {
        /* Enable the Internal High Speed oscillator (HSI). */
        __HAL_RCC_HSI_ENABLE();
 800519c:	4b3d      	ldr	r3, [pc, #244]	@ (8005294 <HAL_RCC_OscConfig+0x27c>)
 800519e:	681b      	ldr	r3, [r3, #0]
 80051a0:	4a3c      	ldr	r2, [pc, #240]	@ (8005294 <HAL_RCC_OscConfig+0x27c>)
 80051a2:	f443 7380 	orr.w	r3, r3, #256	@ 0x100
 80051a6:	6013      	str	r3, [r2, #0]

        /* Get Start Tick*/
        tickstart = HAL_GetTick();
 80051a8:	f7ff f9a8 	bl	80044fc <HAL_GetTick>
 80051ac:	6138      	str	r0, [r7, #16]

        /* Wait till HSI is ready */
        while (READ_BIT(RCC->CR, RCC_CR_HSIRDY) == 0U)
 80051ae:	e008      	b.n	80051c2 <HAL_RCC_OscConfig+0x1aa>
        {
          if ((HAL_GetTick() - tickstart) > HSI_TIMEOUT_VALUE)
 80051b0:	f7ff f9a4 	bl	80044fc <HAL_GetTick>
 80051b4:	4602      	mov	r2, r0
 80051b6:	693b      	ldr	r3, [r7, #16]
 80051b8:	1ad3      	subs	r3, r2, r3
 80051ba:	2b02      	cmp	r3, #2
 80051bc:	d901      	bls.n	80051c2 <HAL_RCC_OscConfig+0x1aa>
          {
            return HAL_TIMEOUT;
 80051be:	2303      	movs	r3, #3
 80051c0:	e232      	b.n	8005628 <HAL_RCC_OscConfig+0x610>
        while (READ_BIT(RCC->CR, RCC_CR_HSIRDY) == 0U)
 80051c2:	4b34      	ldr	r3, [pc, #208]	@ (8005294 <HAL_RCC_OscConfig+0x27c>)
 80051c4:	681b      	ldr	r3, [r3, #0]
 80051c6:	f403 6380 	and.w	r3, r3, #1024	@ 0x400
 80051ca:	2b00      	cmp	r3, #0
 80051cc:	d0f0      	beq.n	80051b0 <HAL_RCC_OscConfig+0x198>
          }
        }

        /* Adjusts the Internal High Speed oscillator (HSI) calibration value.*/
        __HAL_RCC_HSI_CALIBRATIONVALUE_ADJUST(RCC_OscInitStruct->HSICalibrationValue);
 80051ce:	4b31      	ldr	r3, [pc, #196]	@ (8005294 <HAL_RCC_OscConfig+0x27c>)
 80051d0:	685b      	ldr	r3, [r3, #4]
 80051d2:	f023 42fe 	bic.w	r2, r3, #2130706432	@ 0x7f000000
 80051d6:	687b      	ldr	r3, [r7, #4]
 80051d8:	691b      	ldr	r3, [r3, #16]
 80051da:	061b      	lsls	r3, r3, #24
 80051dc:	492d      	ldr	r1, [pc, #180]	@ (8005294 <HAL_RCC_OscConfig+0x27c>)
 80051de:	4313      	orrs	r3, r2
 80051e0:	604b      	str	r3, [r1, #4]
 80051e2:	e01a      	b.n	800521a <HAL_RCC_OscConfig+0x202>
      }
      else
      {
        /* Disable the Internal High Speed oscillator (HSI). */
        __HAL_RCC_HSI_DISABLE();
 80051e4:	4b2b      	ldr	r3, [pc, #172]	@ (8005294 <HAL_RCC_OscConfig+0x27c>)
 80051e6:	681b      	ldr	r3, [r3, #0]
 80051e8:	4a2a      	ldr	r2, [pc, #168]	@ (8005294 <HAL_RCC_OscConfig+0x27c>)
 80051ea:	f423 7380 	bic.w	r3, r3, #256	@ 0x100
 80051ee:	6013      	str	r3, [r2, #0]

        /* Get Start Tick*/
        tickstart = HAL_GetTick();
 80051f0:	f7ff f984 	bl	80044fc <HAL_GetTick>
 80051f4:	6138      	str	r0, [r7, #16]

        /* Wait till HSI is disabled */
        while (READ_BIT(RCC->CR, RCC_CR_HSIRDY) != 0U)
 80051f6:	e008      	b.n	800520a <HAL_RCC_OscConfig+0x1f2>
        {
          if ((HAL_GetTick() - tickstart) > HSI_TIMEOUT_VALUE)
 80051f8:	f7ff f980 	bl	80044fc <HAL_GetTick>
 80051fc:	4602      	mov	r2, r0
 80051fe:	693b      	ldr	r3, [r7, #16]
 8005200:	1ad3      	subs	r3, r2, r3
 8005202:	2b02      	cmp	r3, #2
 8005204:	d901      	bls.n	800520a <HAL_RCC_OscConfig+0x1f2>
          {
            return HAL_TIMEOUT;
 8005206:	2303      	movs	r3, #3
 8005208:	e20e      	b.n	8005628 <HAL_RCC_OscConfig+0x610>
        while (READ_BIT(RCC->CR, RCC_CR_HSIRDY) != 0U)
 800520a:	4b22      	ldr	r3, [pc, #136]	@ (8005294 <HAL_RCC_OscConfig+0x27c>)
 800520c:	681b      	ldr	r3, [r3, #0]
 800520e:	f403 6380 	and.w	r3, r3, #1024	@ 0x400
 8005212:	2b00      	cmp	r3, #0
 8005214:	d1f0      	bne.n	80051f8 <HAL_RCC_OscConfig+0x1e0>
 8005216:	e000      	b.n	800521a <HAL_RCC_OscConfig+0x202>
      if ((READ_BIT(RCC->CR, RCC_CR_HSIRDY) != 0U) && (RCC_OscInitStruct->HSIState == RCC_HSI_OFF))
 8005218:	bf00      	nop
        }
      }
    }
  }
  /*------------------------------ LSI Configuration -------------------------*/
  if (((RCC_OscInitStruct->OscillatorType) & RCC_OSCILLATORTYPE_LSI) == RCC_OSCILLATORTYPE_LSI)
 800521a:	687b      	ldr	r3, [r7, #4]
 800521c:	681b      	ldr	r3, [r3, #0]
 800521e:	f003 0308 	and.w	r3, r3, #8
 8005222:	2b00      	cmp	r3, #0
 8005224:	d041      	beq.n	80052aa <HAL_RCC_OscConfig+0x292>
  {
    /* Check the parameters */
    assert_param(IS_RCC_LSI(RCC_OscInitStruct->LSIState));

    /* Check the LSI State */
    if(RCC_OscInitStruct->LSIState != RCC_LSI_OFF)
 8005226:	687b      	ldr	r3, [r7, #4]
 8005228:	695b      	ldr	r3, [r3, #20]
 800522a:	2b00      	cmp	r3, #0
 800522c:	d01c      	beq.n	8005268 <HAL_RCC_OscConfig+0x250>
    {
      /* Enable the Internal Low Speed oscillator (LSI). */
      __HAL_RCC_LSI_ENABLE();
 800522e:	4b19      	ldr	r3, [pc, #100]	@ (8005294 <HAL_RCC_OscConfig+0x27c>)
 8005230:	f8d3 3094 	ldr.w	r3, [r3, #148]	@ 0x94
 8005234:	4a17      	ldr	r2, [pc, #92]	@ (8005294 <HAL_RCC_OscConfig+0x27c>)
 8005236:	f043 0301 	orr.w	r3, r3, #1
 800523a:	f8c2 3094 	str.w	r3, [r2, #148]	@ 0x94

      /* Get Start Tick*/
      tickstart = HAL_GetTick();
 800523e:	f7ff f95d 	bl	80044fc <HAL_GetTick>
 8005242:	6138      	str	r0, [r7, #16]

      /* Wait till LSI is ready */
      while (READ_BIT(RCC->CSR, RCC_CSR_LSIRDY) == 0U)
 8005244:	e008      	b.n	8005258 <HAL_RCC_OscConfig+0x240>
      {
        if ((HAL_GetTick() - tickstart) > LSI_TIMEOUT_VALUE)
 8005246:	f7ff f959 	bl	80044fc <HAL_GetTick>
 800524a:	4602      	mov	r2, r0
 800524c:	693b      	ldr	r3, [r7, #16]
 800524e:	1ad3      	subs	r3, r2, r3
 8005250:	2b02      	cmp	r3, #2
 8005252:	d901      	bls.n	8005258 <HAL_RCC_OscConfig+0x240>
        {
          return HAL_TIMEOUT;
 8005254:	2303      	movs	r3, #3
 8005256:	e1e7      	b.n	8005628 <HAL_RCC_OscConfig+0x610>
      while (READ_BIT(RCC->CSR, RCC_CSR_LSIRDY) == 0U)
 8005258:	4b0e      	ldr	r3, [pc, #56]	@ (8005294 <HAL_RCC_OscConfig+0x27c>)
 800525a:	f8d3 3094 	ldr.w	r3, [r3, #148]	@ 0x94
 800525e:	f003 0302 	and.w	r3, r3, #2
 8005262:	2b00      	cmp	r3, #0
 8005264:	d0ef      	beq.n	8005246 <HAL_RCC_OscConfig+0x22e>
 8005266:	e020      	b.n	80052aa <HAL_RCC_OscConfig+0x292>
      }
    }
    else
    {
      /* Disable the Internal Low Speed oscillator (LSI). */
      __HAL_RCC_LSI_DISABLE();
 8005268:	4b0a      	ldr	r3, [pc, #40]	@ (8005294 <HAL_RCC_OscConfig+0x27c>)
 800526a:	f8d3 3094 	ldr.w	r3, [r3, #148]	@ 0x94
 800526e:	4a09      	ldr	r2, [pc, #36]	@ (8005294 <HAL_RCC_OscConfig+0x27c>)
 8005270:	f023 0301 	bic.w	r3, r3, #1
 8005274:	f8c2 3094 	str.w	r3, [r2, #148]	@ 0x94

      /* Get Start Tick*/
      tickstart = HAL_GetTick();
 8005278:	f7ff f940 	bl	80044fc <HAL_GetTick>
 800527c:	6138      	str	r0, [r7, #16]

      /* Wait till LSI is disabled */
      while(READ_BIT(RCC->CSR, RCC_CSR_LSIRDY) != 0U)
 800527e:	e00d      	b.n	800529c <HAL_RCC_OscConfig+0x284>
      {
        if((HAL_GetTick() - tickstart) > LSI_TIMEOUT_VALUE)
 8005280:	f7ff f93c 	bl	80044fc <HAL_GetTick>
 8005284:	4602      	mov	r2, r0
 8005286:	693b      	ldr	r3, [r7, #16]
 8005288:	1ad3      	subs	r3, r2, r3
 800528a:	2b02      	cmp	r3, #2
 800528c:	d906      	bls.n	800529c <HAL_RCC_OscConfig+0x284>
        {
          return HAL_TIMEOUT;
 800528e:	2303      	movs	r3, #3
 8005290:	e1ca      	b.n	8005628 <HAL_RCC_OscConfig+0x610>
 8005292:	bf00      	nop
 8005294:	40021000 	.word	0x40021000
 8005298:	200000d8 	.word	0x200000d8
      while(READ_BIT(RCC->CSR, RCC_CSR_LSIRDY) != 0U)
 800529c:	4b8c      	ldr	r3, [pc, #560]	@ (80054d0 <HAL_RCC_OscConfig+0x4b8>)
 800529e:	f8d3 3094 	ldr.w	r3, [r3, #148]	@ 0x94
 80052a2:	f003 0302 	and.w	r3, r3, #2
 80052a6:	2b00      	cmp	r3, #0
 80052a8:	d1ea      	bne.n	8005280 <HAL_RCC_OscConfig+0x268>
        }
      }
    }
  }
  /*------------------------------ LSE Configuration -------------------------*/
  if (((RCC_OscInitStruct->OscillatorType) & RCC_OSCILLATORTYPE_LSE) == RCC_OSCILLATORTYPE_LSE)
 80052aa:	687b      	ldr	r3, [r7, #4]
 80052ac:	681b      	ldr	r3, [r3, #0]
 80052ae:	f003 0304 	and.w	r3, r3, #4
 80052b2:	2b00      	cmp	r3, #0
 80052b4:	f000 80a6 	beq.w	8005404 <HAL_RCC_OscConfig+0x3ec>
  {
    FlagStatus       pwrclkchanged = RESET;
 80052b8:	2300      	movs	r3, #0
 80052ba:	77fb      	strb	r3, [r7, #31]
    /* Check the parameters */
    assert_param(IS_RCC_LSE(RCC_OscInitStruct->LSEState));

    /* Update LSE configuration in Backup Domain control register    */
    /* Requires to enable write access to Backup Domain if necessary */
    if (__HAL_RCC_PWR_IS_CLK_DISABLED() != 0U)
 80052bc:	4b84      	ldr	r3, [pc, #528]	@ (80054d0 <HAL_RCC_OscConfig+0x4b8>)
 80052be:	6d9b      	ldr	r3, [r3, #88]	@ 0x58
 80052c0:	f003 5380 	and.w	r3, r3, #268435456	@ 0x10000000
 80052c4:	2b00      	cmp	r3, #0
 80052c6:	d101      	bne.n	80052cc <HAL_RCC_OscConfig+0x2b4>
 80052c8:	2301      	movs	r3, #1
 80052ca:	e000      	b.n	80052ce <HAL_RCC_OscConfig+0x2b6>
 80052cc:	2300      	movs	r3, #0
 80052ce:	2b00      	cmp	r3, #0
 80052d0:	d00d      	beq.n	80052ee <HAL_RCC_OscConfig+0x2d6>
    {
      __HAL_RCC_PWR_CLK_ENABLE();
 80052d2:	4b7f      	ldr	r3, [pc, #508]	@ (80054d0 <HAL_RCC_OscConfig+0x4b8>)
 80052d4:	6d9b      	ldr	r3, [r3, #88]	@ 0x58
 80052d6:	4a7e      	ldr	r2, [pc, #504]	@ (80054d0 <HAL_RCC_OscConfig+0x4b8>)
 80052d8:	f043 5380 	orr.w	r3, r3, #268435456	@ 0x10000000
 80052dc:	6593      	str	r3, [r2, #88]	@ 0x58
 80052de:	4b7c      	ldr	r3, [pc, #496]	@ (80054d0 <HAL_RCC_OscConfig+0x4b8>)
 80052e0:	6d9b      	ldr	r3, [r3, #88]	@ 0x58
 80052e2:	f003 5380 	and.w	r3, r3, #268435456	@ 0x10000000
 80052e6:	60fb      	str	r3, [r7, #12]
 80052e8:	68fb      	ldr	r3, [r7, #12]
      pwrclkchanged = SET;
 80052ea:	2301      	movs	r3, #1
 80052ec:	77fb      	strb	r3, [r7, #31]
    }

    if (HAL_IS_BIT_CLR(PWR->CR1, PWR_CR1_DBP))
 80052ee:	4b79      	ldr	r3, [pc, #484]	@ (80054d4 <HAL_RCC_OscConfig+0x4bc>)
 80052f0:	681b      	ldr	r3, [r3, #0]
 80052f2:	f403 7380 	and.w	r3, r3, #256	@ 0x100
 80052f6:	2b00      	cmp	r3, #0
 80052f8:	d118      	bne.n	800532c <HAL_RCC_OscConfig+0x314>
    {
      /* Enable write access to Backup domain */
      SET_BIT(PWR->CR1, PWR_CR1_DBP);
 80052fa:	4b76      	ldr	r3, [pc, #472]	@ (80054d4 <HAL_RCC_OscConfig+0x4bc>)
 80052fc:	681b      	ldr	r3, [r3, #0]
 80052fe:	4a75      	ldr	r2, [pc, #468]	@ (80054d4 <HAL_RCC_OscConfig+0x4bc>)
 8005300:	f443 7380 	orr.w	r3, r3, #256	@ 0x100
 8005304:	6013      	str	r3, [r2, #0]

      /* Wait for Backup domain Write protection disable */
      tickstart = HAL_GetTick();
 8005306:	f7ff f8f9 	bl	80044fc <HAL_GetTick>
 800530a:	6138      	str	r0, [r7, #16]

      while (HAL_IS_BIT_CLR(PWR->CR1, PWR_CR1_DBP))
 800530c:	e008      	b.n	8005320 <HAL_RCC_OscConfig+0x308>
      {
        if ((HAL_GetTick() - tickstart) > RCC_DBP_TIMEOUT_VALUE)
 800530e:	f7ff f8f5 	bl	80044fc <HAL_GetTick>
 8005312:	4602      	mov	r2, r0
 8005314:	693b      	ldr	r3, [r7, #16]
 8005316:	1ad3      	subs	r3, r2, r3
 8005318:	2b02      	cmp	r3, #2
 800531a:	d901      	bls.n	8005320 <HAL_RCC_OscConfig+0x308>
        {
          return HAL_TIMEOUT;
 800531c:	2303      	movs	r3, #3
 800531e:	e183      	b.n	8005628 <HAL_RCC_OscConfig+0x610>
      while (HAL_IS_BIT_CLR(PWR->CR1, PWR_CR1_DBP))
 8005320:	4b6c      	ldr	r3, [pc, #432]	@ (80054d4 <HAL_RCC_OscConfig+0x4bc>)
 8005322:	681b      	ldr	r3, [r3, #0]
 8005324:	f403 7380 	and.w	r3, r3, #256	@ 0x100
 8005328:	2b00      	cmp	r3, #0
 800532a:	d0f0      	beq.n	800530e <HAL_RCC_OscConfig+0x2f6>
        }
      }
    }

    /* Set the new LSE configuration -----------------------------------------*/
    __HAL_RCC_LSE_CONFIG(RCC_OscInitStruct->LSEState);
 800532c:	687b      	ldr	r3, [r7, #4]
 800532e:	689b      	ldr	r3, [r3, #8]
 8005330:	2b01      	cmp	r3, #1
 8005332:	d108      	bne.n	8005346 <HAL_RCC_OscConfig+0x32e>
 8005334:	4b66      	ldr	r3, [pc, #408]	@ (80054d0 <HAL_RCC_OscConfig+0x4b8>)
 8005336:	f8d3 3090 	ldr.w	r3, [r3, #144]	@ 0x90
 800533a:	4a65      	ldr	r2, [pc, #404]	@ (80054d0 <HAL_RCC_OscConfig+0x4b8>)
 800533c:	f043 0301 	orr.w	r3, r3, #1
 8005340:	f8c2 3090 	str.w	r3, [r2, #144]	@ 0x90
 8005344:	e024      	b.n	8005390 <HAL_RCC_OscConfig+0x378>
 8005346:	687b      	ldr	r3, [r7, #4]
 8005348:	689b      	ldr	r3, [r3, #8]
 800534a:	2b05      	cmp	r3, #5
 800534c:	d110      	bne.n	8005370 <HAL_RCC_OscConfig+0x358>
 800534e:	4b60      	ldr	r3, [pc, #384]	@ (80054d0 <HAL_RCC_OscConfig+0x4b8>)
 8005350:	f8d3 3090 	ldr.w	r3, [r3, #144]	@ 0x90
 8005354:	4a5e      	ldr	r2, [pc, #376]	@ (80054d0 <HAL_RCC_OscConfig+0x4b8>)
 8005356:	f043 0304 	orr.w	r3, r3, #4
 800535a:	f8c2 3090 	str.w	r3, [r2, #144]	@ 0x90
 800535e:	4b5c      	ldr	r3, [pc, #368]	@ (80054d0 <HAL_RCC_OscConfig+0x4b8>)
 8005360:	f8d3 3090 	ldr.w	r3, [r3, #144]	@ 0x90
 8005364:	4a5a      	ldr	r2, [pc, #360]	@ (80054d0 <HAL_RCC_OscConfig+0x4b8>)
 8005366:	f043 0301 	orr.w	r3, r3, #1
 800536a:	f8c2 3090 	str.w	r3, [r2, #144]	@ 0x90
 800536e:	e00f      	b.n	8005390 <HAL_RCC_OscConfig+0x378>
 8005370:	4b57      	ldr	r3, [pc, #348]	@ (80054d0 <HAL_RCC_OscConfig+0x4b8>)
 8005372:	f8d3 3090 	ldr.w	r3, [r3, #144]	@ 0x90
 8005376:	4a56      	ldr	r2, [pc, #344]	@ (80054d0 <HAL_RCC_OscConfig+0x4b8>)
 8005378:	f023 0301 	bic.w	r3, r3, #1
 800537c:	f8c2 3090 	str.w	r3, [r2, #144]	@ 0x90
 8005380:	4b53      	ldr	r3, [pc, #332]	@ (80054d0 <HAL_RCC_OscConfig+0x4b8>)
 8005382:	f8d3 3090 	ldr.w	r3, [r3, #144]	@ 0x90
 8005386:	4a52      	ldr	r2, [pc, #328]	@ (80054d0 <HAL_RCC_OscConfig+0x4b8>)
 8005388:	f023 0304 	bic.w	r3, r3, #4
 800538c:	f8c2 3090 	str.w	r3, [r2, #144]	@ 0x90

    /* Check the LSE State */
    if (RCC_OscInitStruct->LSEState != RCC_LSE_OFF)
 8005390:	687b      	ldr	r3, [r7, #4]
 8005392:	689b      	ldr	r3, [r3, #8]
 8005394:	2b00      	cmp	r3, #0
 8005396:	d016      	beq.n	80053c6 <HAL_RCC_OscConfig+0x3ae>
    {
      /* Get Start Tick*/
      tickstart = HAL_GetTick();
 8005398:	f7ff f8b0 	bl	80044fc <HAL_GetTick>
 800539c:	6138      	str	r0, [r7, #16]

      /* Wait till LSE is ready */
      while (READ_BIT(RCC->BDCR, RCC_BDCR_LSERDY) == 0U)
 800539e:	e00a      	b.n	80053b6 <HAL_RCC_OscConfig+0x39e>
      {
        if((HAL_GetTick() - tickstart) > RCC_LSE_TIMEOUT_VALUE)
 80053a0:	f7ff f8ac 	bl	80044fc <HAL_GetTick>
 80053a4:	4602      	mov	r2, r0
 80053a6:	693b      	ldr	r3, [r7, #16]
 80053a8:	1ad3      	subs	r3, r2, r3
 80053aa:	f241 3288 	movw	r2, #5000	@ 0x1388
 80053ae:	4293      	cmp	r3, r2
 80053b0:	d901      	bls.n	80053b6 <HAL_RCC_OscConfig+0x39e>
        {
          return HAL_TIMEOUT;
 80053b2:	2303      	movs	r3, #3
 80053b4:	e138      	b.n	8005628 <HAL_RCC_OscConfig+0x610>
      while (READ_BIT(RCC->BDCR, RCC_BDCR_LSERDY) == 0U)
 80053b6:	4b46      	ldr	r3, [pc, #280]	@ (80054d0 <HAL_RCC_OscConfig+0x4b8>)
 80053b8:	f8d3 3090 	ldr.w	r3, [r3, #144]	@ 0x90
 80053bc:	f003 0302 	and.w	r3, r3, #2
 80053c0:	2b00      	cmp	r3, #0
 80053c2:	d0ed      	beq.n	80053a0 <HAL_RCC_OscConfig+0x388>
 80053c4:	e015      	b.n	80053f2 <HAL_RCC_OscConfig+0x3da>
      }
    }
    else
    {
      /* Get Start Tick*/
      tickstart = HAL_GetTick();
 80053c6:	f7ff f899 	bl	80044fc <HAL_GetTick>
 80053ca:	6138      	str	r0, [r7, #16]

      /* Wait till LSE is disabled */
      while (READ_BIT(RCC->BDCR, RCC_BDCR_LSERDY) != 0U)
 80053cc:	e00a      	b.n	80053e4 <HAL_RCC_OscConfig+0x3cc>
      {
        if((HAL_GetTick() - tickstart) > RCC_LSE_TIMEOUT_VALUE)
 80053ce:	f7ff f895 	bl	80044fc <HAL_GetTick>
 80053d2:	4602      	mov	r2, r0
 80053d4:	693b      	ldr	r3, [r7, #16]
 80053d6:	1ad3      	subs	r3, r2, r3
 80053d8:	f241 3288 	movw	r2, #5000	@ 0x1388
 80053dc:	4293      	cmp	r3, r2
 80053de:	d901      	bls.n	80053e4 <HAL_RCC_OscConfig+0x3cc>
        {
          return HAL_TIMEOUT;
 80053e0:	2303      	movs	r3, #3
 80053e2:	e121      	b.n	8005628 <HAL_RCC_OscConfig+0x610>
      while (READ_BIT(RCC->BDCR, RCC_BDCR_LSERDY) != 0U)
 80053e4:	4b3a      	ldr	r3, [pc, #232]	@ (80054d0 <HAL_RCC_OscConfig+0x4b8>)
 80053e6:	f8d3 3090 	ldr.w	r3, [r3, #144]	@ 0x90
 80053ea:	f003 0302 	and.w	r3, r3, #2
 80053ee:	2b00      	cmp	r3, #0
 80053f0:	d1ed      	bne.n	80053ce <HAL_RCC_OscConfig+0x3b6>
        }
      }
    }

    /* Restore clock configuration if changed */
    if (pwrclkchanged == SET)
 80053f2:	7ffb      	ldrb	r3, [r7, #31]
 80053f4:	2b01      	cmp	r3, #1
 80053f6:	d105      	bne.n	8005404 <HAL_RCC_OscConfig+0x3ec>
    {
      __HAL_RCC_PWR_CLK_DISABLE();
 80053f8:	4b35      	ldr	r3, [pc, #212]	@ (80054d0 <HAL_RCC_OscConfig+0x4b8>)
 80053fa:	6d9b      	ldr	r3, [r3, #88]	@ 0x58
 80053fc:	4a34      	ldr	r2, [pc, #208]	@ (80054d0 <HAL_RCC_OscConfig+0x4b8>)
 80053fe:	f023 5380 	bic.w	r3, r3, #268435456	@ 0x10000000
 8005402:	6593      	str	r3, [r2, #88]	@ 0x58
    }
  }

  /*------------------------------ HSI48 Configuration -----------------------*/
  if(((RCC_OscInitStruct->OscillatorType) & RCC_OSCILLATORTYPE_HSI48) == RCC_OSCILLATORTYPE_HSI48)
 8005404:	687b      	ldr	r3, [r7, #4]
 8005406:	681b      	ldr	r3, [r3, #0]
 8005408:	f003 0320 	and.w	r3, r3, #32
 800540c:	2b00      	cmp	r3, #0
 800540e:	d03c      	beq.n	800548a <HAL_RCC_OscConfig+0x472>
  {
    /* Check the parameters */
    assert_param(IS_RCC_HSI48(RCC_OscInitStruct->HSI48State));

    /* Check the HSI48 State */
    if(RCC_OscInitStruct->HSI48State != RCC_HSI48_OFF)
 8005410:	687b      	ldr	r3, [r7, #4]
 8005412:	699b      	ldr	r3, [r3, #24]
 8005414:	2b00      	cmp	r3, #0
 8005416:	d01c      	beq.n	8005452 <HAL_RCC_OscConfig+0x43a>
    {
      /* Enable the Internal Low Speed oscillator (HSI48). */
      __HAL_RCC_HSI48_ENABLE();
 8005418:	4b2d      	ldr	r3, [pc, #180]	@ (80054d0 <HAL_RCC_OscConfig+0x4b8>)
 800541a:	f8d3 3098 	ldr.w	r3, [r3, #152]	@ 0x98
 800541e:	4a2c      	ldr	r2, [pc, #176]	@ (80054d0 <HAL_RCC_OscConfig+0x4b8>)
 8005420:	f043 0301 	orr.w	r3, r3, #1
 8005424:	f8c2 3098 	str.w	r3, [r2, #152]	@ 0x98

      /* Get Start Tick*/
      tickstart = HAL_GetTick();
 8005428:	f7ff f868 	bl	80044fc <HAL_GetTick>
 800542c:	6138      	str	r0, [r7, #16]

      /* Wait till HSI48 is ready */
      while(READ_BIT(RCC->CRRCR, RCC_CRRCR_HSI48RDY) == 0U)
 800542e:	e008      	b.n	8005442 <HAL_RCC_OscConfig+0x42a>
      {
        if((HAL_GetTick() - tickstart) > HSI48_TIMEOUT_VALUE)
 8005430:	f7ff f864 	bl	80044fc <HAL_GetTick>
 8005434:	4602      	mov	r2, r0
 8005436:	693b      	ldr	r3, [r7, #16]
 8005438:	1ad3      	subs	r3, r2, r3
 800543a:	2b02      	cmp	r3, #2
 800543c:	d901      	bls.n	8005442 <HAL_RCC_OscConfig+0x42a>
        {
          return HAL_TIMEOUT;
 800543e:	2303      	movs	r3, #3
 8005440:	e0f2      	b.n	8005628 <HAL_RCC_OscConfig+0x610>
      while(READ_BIT(RCC->CRRCR, RCC_CRRCR_HSI48RDY) == 0U)
 8005442:	4b23      	ldr	r3, [pc, #140]	@ (80054d0 <HAL_RCC_OscConfig+0x4b8>)
 8005444:	f8d3 3098 	ldr.w	r3, [r3, #152]	@ 0x98
 8005448:	f003 0302 	and.w	r3, r3, #2
 800544c:	2b00      	cmp	r3, #0
 800544e:	d0ef      	beq.n	8005430 <HAL_RCC_OscConfig+0x418>
 8005450:	e01b      	b.n	800548a <HAL_RCC_OscConfig+0x472>
      }
    }
    else
    {
      /* Disable the Internal Low Speed oscillator (HSI48). */
      __HAL_RCC_HSI48_DISABLE();
 8005452:	4b1f      	ldr	r3, [pc, #124]	@ (80054d0 <HAL_RCC_OscConfig+0x4b8>)
 8005454:	f8d3 3098 	ldr.w	r3, [r3, #152]	@ 0x98
 8005458:	4a1d      	ldr	r2, [pc, #116]	@ (80054d0 <HAL_RCC_OscConfig+0x4b8>)
 800545a:	f023 0301 	bic.w	r3, r3, #1
 800545e:	f8c2 3098 	str.w	r3, [r2, #152]	@ 0x98

      /* Get Start Tick*/
      tickstart = HAL_GetTick();
 8005462:	f7ff f84b 	bl	80044fc <HAL_GetTick>
 8005466:	6138      	str	r0, [r7, #16]

      /* Wait till HSI48 is disabled */
      while(READ_BIT(RCC->CRRCR, RCC_CRRCR_HSI48RDY) != 0U)
 8005468:	e008      	b.n	800547c <HAL_RCC_OscConfig+0x464>
      {
        if((HAL_GetTick() - tickstart) > HSI48_TIMEOUT_VALUE)
 800546a:	f7ff f847 	bl	80044fc <HAL_GetTick>
 800546e:	4602      	mov	r2, r0
 8005470:	693b      	ldr	r3, [r7, #16]
 8005472:	1ad3      	subs	r3, r2, r3
 8005474:	2b02      	cmp	r3, #2
 8005476:	d901      	bls.n	800547c <HAL_RCC_OscConfig+0x464>
        {
          return HAL_TIMEOUT;
 8005478:	2303      	movs	r3, #3
 800547a:	e0d5      	b.n	8005628 <HAL_RCC_OscConfig+0x610>
      while(READ_BIT(RCC->CRRCR, RCC_CRRCR_HSI48RDY) != 0U)
 800547c:	4b14      	ldr	r3, [pc, #80]	@ (80054d0 <HAL_RCC_OscConfig+0x4b8>)
 800547e:	f8d3 3098 	ldr.w	r3, [r3, #152]	@ 0x98
 8005482:	f003 0302 	and.w	r3, r3, #2
 8005486:	2b00      	cmp	r3, #0
 8005488:	d1ef      	bne.n	800546a <HAL_RCC_OscConfig+0x452>

  /*-------------------------------- PLL Configuration -----------------------*/
  /* Check the parameters */
  assert_param(IS_RCC_PLL(RCC_OscInitStruct->PLL.PLLState));

  if (RCC_OscInitStruct->PLL.PLLState != RCC_PLL_NONE)
 800548a:	687b      	ldr	r3, [r7, #4]
 800548c:	69db      	ldr	r3, [r3, #28]
 800548e:	2b00      	cmp	r3, #0
 8005490:	f000 80c9 	beq.w	8005626 <HAL_RCC_OscConfig+0x60e>
  {
    /* Check if the PLL is used as system clock or not */
    if (__HAL_RCC_GET_SYSCLK_SOURCE() != RCC_CFGR_SWS_PLL)
 8005494:	4b0e      	ldr	r3, [pc, #56]	@ (80054d0 <HAL_RCC_OscConfig+0x4b8>)
 8005496:	689b      	ldr	r3, [r3, #8]
 8005498:	f003 030c 	and.w	r3, r3, #12
 800549c:	2b0c      	cmp	r3, #12
 800549e:	f000 8083 	beq.w	80055a8 <HAL_RCC_OscConfig+0x590>
    {
      if (RCC_OscInitStruct->PLL.PLLState == RCC_PLL_ON)
 80054a2:	687b      	ldr	r3, [r7, #4]
 80054a4:	69db      	ldr	r3, [r3, #28]
 80054a6:	2b02      	cmp	r3, #2
 80054a8:	d15e      	bne.n	8005568 <HAL_RCC_OscConfig+0x550>
        assert_param(IS_RCC_PLLP_VALUE(RCC_OscInitStruct->PLL.PLLP));
        assert_param(IS_RCC_PLLQ_VALUE(RCC_OscInitStruct->PLL.PLLQ));
        assert_param(IS_RCC_PLLR_VALUE(RCC_OscInitStruct->PLL.PLLR));

        /* Disable the main PLL. */
        __HAL_RCC_PLL_DISABLE();
 80054aa:	4b09      	ldr	r3, [pc, #36]	@ (80054d0 <HAL_RCC_OscConfig+0x4b8>)
 80054ac:	681b      	ldr	r3, [r3, #0]
 80054ae:	4a08      	ldr	r2, [pc, #32]	@ (80054d0 <HAL_RCC_OscConfig+0x4b8>)
 80054b0:	f023 7380 	bic.w	r3, r3, #16777216	@ 0x1000000
 80054b4:	6013      	str	r3, [r2, #0]

        /* Get Start Tick*/
        tickstart = HAL_GetTick();
 80054b6:	f7ff f821 	bl	80044fc <HAL_GetTick>
 80054ba:	6138      	str	r0, [r7, #16]

        /* Wait till PLL is disabled */
        while (READ_BIT(RCC->CR, RCC_CR_PLLRDY) != 0U)
 80054bc:	e00c      	b.n	80054d8 <HAL_RCC_OscConfig+0x4c0>
        {
          if ((HAL_GetTick() - tickstart) > PLL_TIMEOUT_VALUE)
 80054be:	f7ff f81d 	bl	80044fc <HAL_GetTick>
 80054c2:	4602      	mov	r2, r0
 80054c4:	693b      	ldr	r3, [r7, #16]
 80054c6:	1ad3      	subs	r3, r2, r3
 80054c8:	2b02      	cmp	r3, #2
 80054ca:	d905      	bls.n	80054d8 <HAL_RCC_OscConfig+0x4c0>
          {
            return HAL_TIMEOUT;
 80054cc:	2303      	movs	r3, #3
 80054ce:	e0ab      	b.n	8005628 <HAL_RCC_OscConfig+0x610>
 80054d0:	40021000 	.word	0x40021000
 80054d4:	40007000 	.word	0x40007000
        while (READ_BIT(RCC->CR, RCC_CR_PLLRDY) != 0U)
 80054d8:	4b55      	ldr	r3, [pc, #340]	@ (8005630 <HAL_RCC_OscConfig+0x618>)
 80054da:	681b      	ldr	r3, [r3, #0]
 80054dc:	f003 7300 	and.w	r3, r3, #33554432	@ 0x2000000
 80054e0:	2b00      	cmp	r3, #0
 80054e2:	d1ec      	bne.n	80054be <HAL_RCC_OscConfig+0x4a6>
          }
        }

        /* Configure the main PLL clock source, multiplication and division factors. */
        __HAL_RCC_PLL_CONFIG(RCC_OscInitStruct->PLL.PLLSource,
 80054e4:	4b52      	ldr	r3, [pc, #328]	@ (8005630 <HAL_RCC_OscConfig+0x618>)
 80054e6:	68da      	ldr	r2, [r3, #12]
 80054e8:	4b52      	ldr	r3, [pc, #328]	@ (8005634 <HAL_RCC_OscConfig+0x61c>)
 80054ea:	4013      	ands	r3, r2
 80054ec:	687a      	ldr	r2, [r7, #4]
 80054ee:	6a11      	ldr	r1, [r2, #32]
 80054f0:	687a      	ldr	r2, [r7, #4]
 80054f2:	6a52      	ldr	r2, [r2, #36]	@ 0x24
 80054f4:	3a01      	subs	r2, #1
 80054f6:	0112      	lsls	r2, r2, #4
 80054f8:	4311      	orrs	r1, r2
 80054fa:	687a      	ldr	r2, [r7, #4]
 80054fc:	6a92      	ldr	r2, [r2, #40]	@ 0x28
 80054fe:	0212      	lsls	r2, r2, #8
 8005500:	4311      	orrs	r1, r2
 8005502:	687a      	ldr	r2, [r7, #4]
 8005504:	6b12      	ldr	r2, [r2, #48]	@ 0x30
 8005506:	0852      	lsrs	r2, r2, #1
 8005508:	3a01      	subs	r2, #1
 800550a:	0552      	lsls	r2, r2, #21
 800550c:	4311      	orrs	r1, r2
 800550e:	687a      	ldr	r2, [r7, #4]
 8005510:	6b52      	ldr	r2, [r2, #52]	@ 0x34
 8005512:	0852      	lsrs	r2, r2, #1
 8005514:	3a01      	subs	r2, #1
 8005516:	0652      	lsls	r2, r2, #25
 8005518:	4311      	orrs	r1, r2
 800551a:	687a      	ldr	r2, [r7, #4]
 800551c:	6ad2      	ldr	r2, [r2, #44]	@ 0x2c
 800551e:	06d2      	lsls	r2, r2, #27
 8005520:	430a      	orrs	r2, r1
 8005522:	4943      	ldr	r1, [pc, #268]	@ (8005630 <HAL_RCC_OscConfig+0x618>)
 8005524:	4313      	orrs	r3, r2
 8005526:	60cb      	str	r3, [r1, #12]
                             RCC_OscInitStruct->PLL.PLLP,
                             RCC_OscInitStruct->PLL.PLLQ,
                             RCC_OscInitStruct->PLL.PLLR);

        /* Enable the main PLL. */
        __HAL_RCC_PLL_ENABLE();
 8005528:	4b41      	ldr	r3, [pc, #260]	@ (8005630 <HAL_RCC_OscConfig+0x618>)
 800552a:	681b      	ldr	r3, [r3, #0]
 800552c:	4a40      	ldr	r2, [pc, #256]	@ (8005630 <HAL_RCC_OscConfig+0x618>)
 800552e:	f043 7380 	orr.w	r3, r3, #16777216	@ 0x1000000
 8005532:	6013      	str	r3, [r2, #0]

        /* Enable PLL System Clock output. */
         __HAL_RCC_PLLCLKOUT_ENABLE(RCC_PLL_SYSCLK);
 8005534:	4b3e      	ldr	r3, [pc, #248]	@ (8005630 <HAL_RCC_OscConfig+0x618>)
 8005536:	68db      	ldr	r3, [r3, #12]
 8005538:	4a3d      	ldr	r2, [pc, #244]	@ (8005630 <HAL_RCC_OscConfig+0x618>)
 800553a:	f043 7380 	orr.w	r3, r3, #16777216	@ 0x1000000
 800553e:	60d3      	str	r3, [r2, #12]

        /* Get Start Tick*/
        tickstart = HAL_GetTick();
 8005540:	f7fe ffdc 	bl	80044fc <HAL_GetTick>
 8005544:	6138      	str	r0, [r7, #16]

        /* Wait till PLL is ready */
        while (READ_BIT(RCC->CR, RCC_CR_PLLRDY) == 0U)
 8005546:	e008      	b.n	800555a <HAL_RCC_OscConfig+0x542>
        {
          if ((HAL_GetTick() - tickstart) > PLL_TIMEOUT_VALUE)
 8005548:	f7fe ffd8 	bl	80044fc <HAL_GetTick>
 800554c:	4602      	mov	r2, r0
 800554e:	693b      	ldr	r3, [r7, #16]
 8005550:	1ad3      	subs	r3, r2, r3
 8005552:	2b02      	cmp	r3, #2
 8005554:	d901      	bls.n	800555a <HAL_RCC_OscConfig+0x542>
          {
            return HAL_TIMEOUT;
 8005556:	2303      	movs	r3, #3
 8005558:	e066      	b.n	8005628 <HAL_RCC_OscConfig+0x610>
        while (READ_BIT(RCC->CR, RCC_CR_PLLRDY) == 0U)
 800555a:	4b35      	ldr	r3, [pc, #212]	@ (8005630 <HAL_RCC_OscConfig+0x618>)
 800555c:	681b      	ldr	r3, [r3, #0]
 800555e:	f003 7300 	and.w	r3, r3, #33554432	@ 0x2000000
 8005562:	2b00      	cmp	r3, #0
 8005564:	d0f0      	beq.n	8005548 <HAL_RCC_OscConfig+0x530>
 8005566:	e05e      	b.n	8005626 <HAL_RCC_OscConfig+0x60e>
        }
      }
      else
      {
        /* Disable the main PLL. */
        __HAL_RCC_PLL_DISABLE();
 8005568:	4b31      	ldr	r3, [pc, #196]	@ (8005630 <HAL_RCC_OscConfig+0x618>)
 800556a:	681b      	ldr	r3, [r3, #0]
 800556c:	4a30      	ldr	r2, [pc, #192]	@ (8005630 <HAL_RCC_OscConfig+0x618>)
 800556e:	f023 7380 	bic.w	r3, r3, #16777216	@ 0x1000000
 8005572:	6013      	str	r3, [r2, #0]

        /* Get Start Tick*/
        tickstart = HAL_GetTick();
 8005574:	f7fe ffc2 	bl	80044fc <HAL_GetTick>
 8005578:	6138      	str	r0, [r7, #16]

        /* Wait till PLL is disabled */
        while (READ_BIT(RCC->CR, RCC_CR_PLLRDY) != 0U)
 800557a:	e008      	b.n	800558e <HAL_RCC_OscConfig+0x576>
        {
          if ((HAL_GetTick() - tickstart) > PLL_TIMEOUT_VALUE)
 800557c:	f7fe ffbe 	bl	80044fc <HAL_GetTick>
 8005580:	4602      	mov	r2, r0
 8005582:	693b      	ldr	r3, [r7, #16]
 8005584:	1ad3      	subs	r3, r2, r3
 8005586:	2b02      	cmp	r3, #2
 8005588:	d901      	bls.n	800558e <HAL_RCC_OscConfig+0x576>
          {
            return HAL_TIMEOUT;
 800558a:	2303      	movs	r3, #3
 800558c:	e04c      	b.n	8005628 <HAL_RCC_OscConfig+0x610>
        while (READ_BIT(RCC->CR, RCC_CR_PLLRDY) != 0U)
 800558e:	4b28      	ldr	r3, [pc, #160]	@ (8005630 <HAL_RCC_OscConfig+0x618>)
 8005590:	681b      	ldr	r3, [r3, #0]
 8005592:	f003 7300 	and.w	r3, r3, #33554432	@ 0x2000000
 8005596:	2b00      	cmp	r3, #0
 8005598:	d1f0      	bne.n	800557c <HAL_RCC_OscConfig+0x564>
          }
        }

        /* Unselect PLL clock source and disable outputs to save power */
        RCC->PLLCFGR &= ~(RCC_PLLCFGR_PLLSRC | RCC_PLL_SYSCLK | RCC_PLL_48M1CLK | RCC_PLL_ADCCLK);
 800559a:	4b25      	ldr	r3, [pc, #148]	@ (8005630 <HAL_RCC_OscConfig+0x618>)
 800559c:	68da      	ldr	r2, [r3, #12]
 800559e:	4924      	ldr	r1, [pc, #144]	@ (8005630 <HAL_RCC_OscConfig+0x618>)
 80055a0:	4b25      	ldr	r3, [pc, #148]	@ (8005638 <HAL_RCC_OscConfig+0x620>)
 80055a2:	4013      	ands	r3, r2
 80055a4:	60cb      	str	r3, [r1, #12]
 80055a6:	e03e      	b.n	8005626 <HAL_RCC_OscConfig+0x60e>
      }
    }
    else
    {
      /* Check if there is a request to disable the PLL used as System clock source */
      if((RCC_OscInitStruct->PLL.PLLState) == RCC_PLL_OFF)
 80055a8:	687b      	ldr	r3, [r7, #4]
 80055aa:	69db      	ldr	r3, [r3, #28]
 80055ac:	2b01      	cmp	r3, #1
 80055ae:	d101      	bne.n	80055b4 <HAL_RCC_OscConfig+0x59c>
      {
        return HAL_ERROR;
 80055b0:	2301      	movs	r3, #1
 80055b2:	e039      	b.n	8005628 <HAL_RCC_OscConfig+0x610>
      }
      else
      {
      /* Do not return HAL_ERROR if request repeats the current configuration */
      temp_pllckcfg = RCC->PLLCFGR;
 80055b4:	4b1e      	ldr	r3, [pc, #120]	@ (8005630 <HAL_RCC_OscConfig+0x618>)
 80055b6:	68db      	ldr	r3, [r3, #12]
 80055b8:	617b      	str	r3, [r7, #20]
      if((READ_BIT(temp_pllckcfg, RCC_PLLCFGR_PLLSRC) != RCC_OscInitStruct->PLL.PLLSource) ||
 80055ba:	697b      	ldr	r3, [r7, #20]
 80055bc:	f003 0203 	and.w	r2, r3, #3
 80055c0:	687b      	ldr	r3, [r7, #4]
 80055c2:	6a1b      	ldr	r3, [r3, #32]
 80055c4:	429a      	cmp	r2, r3
 80055c6:	d12c      	bne.n	8005622 <HAL_RCC_OscConfig+0x60a>
         (READ_BIT(temp_pllckcfg, RCC_PLLCFGR_PLLM) != (((RCC_OscInitStruct->PLL.PLLM) - 1U) << RCC_PLLCFGR_PLLM_Pos)) ||
 80055c8:	697b      	ldr	r3, [r7, #20]
 80055ca:	f003 02f0 	and.w	r2, r3, #240	@ 0xf0
 80055ce:	687b      	ldr	r3, [r7, #4]
 80055d0:	6a5b      	ldr	r3, [r3, #36]	@ 0x24
 80055d2:	3b01      	subs	r3, #1
 80055d4:	011b      	lsls	r3, r3, #4
      if((READ_BIT(temp_pllckcfg, RCC_PLLCFGR_PLLSRC) != RCC_OscInitStruct->PLL.PLLSource) ||
 80055d6:	429a      	cmp	r2, r3
 80055d8:	d123      	bne.n	8005622 <HAL_RCC_OscConfig+0x60a>
         (READ_BIT(temp_pllckcfg, RCC_PLLCFGR_PLLN) != ((RCC_OscInitStruct->PLL.PLLN) << RCC_PLLCFGR_PLLN_Pos)) ||
 80055da:	697b      	ldr	r3, [r7, #20]
 80055dc:	f403 42fe 	and.w	r2, r3, #32512	@ 0x7f00
 80055e0:	687b      	ldr	r3, [r7, #4]
 80055e2:	6a9b      	ldr	r3, [r3, #40]	@ 0x28
 80055e4:	021b      	lsls	r3, r3, #8
         (READ_BIT(temp_pllckcfg, RCC_PLLCFGR_PLLM) != (((RCC_OscInitStruct->PLL.PLLM) - 1U) << RCC_PLLCFGR_PLLM_Pos)) ||
 80055e6:	429a      	cmp	r2, r3
 80055e8:	d11b      	bne.n	8005622 <HAL_RCC_OscConfig+0x60a>
         (READ_BIT(temp_pllckcfg, RCC_PLLCFGR_PLLPDIV) != ((RCC_OscInitStruct->PLL.PLLP) << RCC_PLLCFGR_PLLPDIV_Pos)) ||
 80055ea:	697b      	ldr	r3, [r7, #20]
 80055ec:	f003 4278 	and.w	r2, r3, #4160749568	@ 0xf8000000
 80055f0:	687b      	ldr	r3, [r7, #4]
 80055f2:	6adb      	ldr	r3, [r3, #44]	@ 0x2c
 80055f4:	06db      	lsls	r3, r3, #27
         (READ_BIT(temp_pllckcfg, RCC_PLLCFGR_PLLN) != ((RCC_OscInitStruct->PLL.PLLN) << RCC_PLLCFGR_PLLN_Pos)) ||
 80055f6:	429a      	cmp	r2, r3
 80055f8:	d113      	bne.n	8005622 <HAL_RCC_OscConfig+0x60a>
         (READ_BIT(temp_pllckcfg, RCC_PLLCFGR_PLLQ) != ((((RCC_OscInitStruct->PLL.PLLQ) >> 1U) - 1U) << RCC_PLLCFGR_PLLQ_Pos)) ||
 80055fa:	697b      	ldr	r3, [r7, #20]
 80055fc:	f403 02c0 	and.w	r2, r3, #6291456	@ 0x600000
 8005600:	687b      	ldr	r3, [r7, #4]
 8005602:	6b1b      	ldr	r3, [r3, #48]	@ 0x30
 8005604:	085b      	lsrs	r3, r3, #1
 8005606:	3b01      	subs	r3, #1
 8005608:	055b      	lsls	r3, r3, #21
         (READ_BIT(temp_pllckcfg, RCC_PLLCFGR_PLLPDIV) != ((RCC_OscInitStruct->PLL.PLLP) << RCC_PLLCFGR_PLLPDIV_Pos)) ||
 800560a:	429a      	cmp	r2, r3
 800560c:	d109      	bne.n	8005622 <HAL_RCC_OscConfig+0x60a>
         (READ_BIT(temp_pllckcfg, RCC_PLLCFGR_PLLR) != ((((RCC_OscInitStruct->PLL.PLLR) >> 1U) - 1U) << RCC_PLLCFGR_PLLR_Pos)))
 800560e:	697b      	ldr	r3, [r7, #20]
 8005610:	f003 62c0 	and.w	r2, r3, #100663296	@ 0x6000000
 8005614:	687b      	ldr	r3, [r7, #4]
 8005616:	6b5b      	ldr	r3, [r3, #52]	@ 0x34
 8005618:	085b      	lsrs	r3, r3, #1
 800561a:	3b01      	subs	r3, #1
 800561c:	065b      	lsls	r3, r3, #25
         (READ_BIT(temp_pllckcfg, RCC_PLLCFGR_PLLQ) != ((((RCC_OscInitStruct->PLL.PLLQ) >> 1U) - 1U) << RCC_PLLCFGR_PLLQ_Pos)) ||
 800561e:	429a      	cmp	r2, r3
 8005620:	d001      	beq.n	8005626 <HAL_RCC_OscConfig+0x60e>
      {
        return HAL_ERROR;
 8005622:	2301      	movs	r3, #1
 8005624:	e000      	b.n	8005628 <HAL_RCC_OscConfig+0x610>
      }
    }
  }
  }

  return HAL_OK;
 8005626:	2300      	movs	r3, #0
}
 8005628:	4618      	mov	r0, r3
 800562a:	3720      	adds	r7, #32
 800562c:	46bd      	mov	sp, r7
 800562e:	bd80      	pop	{r7, pc}
 8005630:	40021000 	.word	0x40021000
 8005634:	019f800c 	.word	0x019f800c
 8005638:	feeefffc 	.word	0xfeeefffc

0800563c <HAL_RCC_ClockConfig>:
  *         HPRE[3:0] bits to ensure that HCLK not exceed the maximum allowed frequency
  *         (for more details refer to section above "Initialization/de-initialization functions")
  * @retval None
  */
HAL_StatusTypeDef HAL_RCC_ClockConfig(const RCC_ClkInitTypeDef  *RCC_ClkInitStruct, uint32_t FLatency)
{
 800563c:	b580      	push	{r7, lr}
 800563e:	b086      	sub	sp, #24
 8005640:	af00      	add	r7, sp, #0
 8005642:	6078      	str	r0, [r7, #4]
 8005644:	6039      	str	r1, [r7, #0]
  uint32_t tickstart;
  uint32_t pllfreq;
  uint32_t hpre = RCC_SYSCLK_DIV1;
 8005646:	2300      	movs	r3, #0
 8005648:	617b      	str	r3, [r7, #20]

  /* Check Null pointer */
  if (RCC_ClkInitStruct == NULL)
 800564a:	687b      	ldr	r3, [r7, #4]
 800564c:	2b00      	cmp	r3, #0
 800564e:	d101      	bne.n	8005654 <HAL_RCC_ClockConfig+0x18>
  {
    return HAL_ERROR;
 8005650:	2301      	movs	r3, #1
 8005652:	e11e      	b.n	8005892 <HAL_RCC_ClockConfig+0x256>
  /* To correctly read data from FLASH memory, the number of wait states (LATENCY)
    must be correctly programmed according to the frequency of the CPU clock
    (HCLK) and the supply voltage of the device. */

  /* Increasing the number of wait states because of higher CPU frequency */
  if (FLatency > __HAL_FLASH_GET_LATENCY())
 8005654:	4b91      	ldr	r3, [pc, #580]	@ (800589c <HAL_RCC_ClockConfig+0x260>)
 8005656:	681b      	ldr	r3, [r3, #0]
 8005658:	f003 030f 	and.w	r3, r3, #15
 800565c:	683a      	ldr	r2, [r7, #0]
 800565e:	429a      	cmp	r2, r3
 8005660:	d910      	bls.n	8005684 <HAL_RCC_ClockConfig+0x48>
  {
    /* Program the new number of wait states to the LATENCY bits in the FLASH_ACR register */
    __HAL_FLASH_SET_LATENCY(FLatency);
 8005662:	4b8e      	ldr	r3, [pc, #568]	@ (800589c <HAL_RCC_ClockConfig+0x260>)
 8005664:	681b      	ldr	r3, [r3, #0]
 8005666:	f023 020f 	bic.w	r2, r3, #15
 800566a:	498c      	ldr	r1, [pc, #560]	@ (800589c <HAL_RCC_ClockConfig+0x260>)
 800566c:	683b      	ldr	r3, [r7, #0]
 800566e:	4313      	orrs	r3, r2
 8005670:	600b      	str	r3, [r1, #0]

    /* Check that the new number of wait states is taken into account to access the Flash
    memory by reading the FLASH_ACR register */
    if (__HAL_FLASH_GET_LATENCY() != FLatency)
 8005672:	4b8a      	ldr	r3, [pc, #552]	@ (800589c <HAL_RCC_ClockConfig+0x260>)
 8005674:	681b      	ldr	r3, [r3, #0]
 8005676:	f003 030f 	and.w	r3, r3, #15
 800567a:	683a      	ldr	r2, [r7, #0]
 800567c:	429a      	cmp	r2, r3
 800567e:	d001      	beq.n	8005684 <HAL_RCC_ClockConfig+0x48>
    {
      return HAL_ERROR;
 8005680:	2301      	movs	r3, #1
 8005682:	e106      	b.n	8005892 <HAL_RCC_ClockConfig+0x256>
    }
  }

  /*------------------------- SYSCLK Configuration ---------------------------*/
  if(((RCC_ClkInitStruct->ClockType) & RCC_CLOCKTYPE_SYSCLK) == RCC_CLOCKTYPE_SYSCLK)
 8005684:	687b      	ldr	r3, [r7, #4]
 8005686:	681b      	ldr	r3, [r3, #0]
 8005688:	f003 0301 	and.w	r3, r3, #1
 800568c:	2b00      	cmp	r3, #0
 800568e:	d073      	beq.n	8005778 <HAL_RCC_ClockConfig+0x13c>
  {
    assert_param(IS_RCC_SYSCLKSOURCE(RCC_ClkInitStruct->SYSCLKSource));

    /* PLL is selected as System Clock Source */
    if (RCC_ClkInitStruct->SYSCLKSource == RCC_SYSCLKSOURCE_PLLCLK)
 8005690:	687b      	ldr	r3, [r7, #4]
 8005692:	685b      	ldr	r3, [r3, #4]
 8005694:	2b03      	cmp	r3, #3
 8005696:	d129      	bne.n	80056ec <HAL_RCC_ClockConfig+0xb0>
    {
      /* Check the PLL ready flag */
      if (READ_BIT(RCC->CR, RCC_CR_PLLRDY) == 0U)
 8005698:	4b81      	ldr	r3, [pc, #516]	@ (80058a0 <HAL_RCC_ClockConfig+0x264>)
 800569a:	681b      	ldr	r3, [r3, #0]
 800569c:	f003 7300 	and.w	r3, r3, #33554432	@ 0x2000000
 80056a0:	2b00      	cmp	r3, #0
 80056a2:	d101      	bne.n	80056a8 <HAL_RCC_ClockConfig+0x6c>
      {
        return HAL_ERROR;
 80056a4:	2301      	movs	r3, #1
 80056a6:	e0f4      	b.n	8005892 <HAL_RCC_ClockConfig+0x256>
      }
      /* Undershoot management when selection PLL as SYSCLK source and frequency above 80Mhz */
      /* Compute target PLL output frequency */
      pllfreq = RCC_GetSysClockFreqFromPLLSource();
 80056a8:	f000 f99e 	bl	80059e8 <RCC_GetSysClockFreqFromPLLSource>
 80056ac:	6138      	str	r0, [r7, #16]

      /* Intermediate step with HCLK prescaler 2 necessary before to go over 80Mhz */
      if(pllfreq > 80000000U)
 80056ae:	693b      	ldr	r3, [r7, #16]
 80056b0:	4a7c      	ldr	r2, [pc, #496]	@ (80058a4 <HAL_RCC_ClockConfig+0x268>)
 80056b2:	4293      	cmp	r3, r2
 80056b4:	d93f      	bls.n	8005736 <HAL_RCC_ClockConfig+0xfa>
      {
        if (((READ_BIT(RCC->CFGR, RCC_CFGR_HPRE) == RCC_SYSCLK_DIV1)) ||
 80056b6:	4b7a      	ldr	r3, [pc, #488]	@ (80058a0 <HAL_RCC_ClockConfig+0x264>)
 80056b8:	689b      	ldr	r3, [r3, #8]
 80056ba:	f003 03f0 	and.w	r3, r3, #240	@ 0xf0
 80056be:	2b00      	cmp	r3, #0
 80056c0:	d009      	beq.n	80056d6 <HAL_RCC_ClockConfig+0x9a>
            (((((RCC_ClkInitStruct->ClockType) & RCC_CLOCKTYPE_HCLK) == RCC_CLOCKTYPE_HCLK) &&
 80056c2:	687b      	ldr	r3, [r7, #4]
 80056c4:	681b      	ldr	r3, [r3, #0]
 80056c6:	f003 0302 	and.w	r3, r3, #2
        if (((READ_BIT(RCC->CFGR, RCC_CFGR_HPRE) == RCC_SYSCLK_DIV1)) ||
 80056ca:	2b00      	cmp	r3, #0
 80056cc:	d033      	beq.n	8005736 <HAL_RCC_ClockConfig+0xfa>
              (RCC_ClkInitStruct->AHBCLKDivider == RCC_SYSCLK_DIV1))))
 80056ce:	687b      	ldr	r3, [r7, #4]
 80056d0:	689b      	ldr	r3, [r3, #8]
            (((((RCC_ClkInitStruct->ClockType) & RCC_CLOCKTYPE_HCLK) == RCC_CLOCKTYPE_HCLK) &&
 80056d2:	2b00      	cmp	r3, #0
 80056d4:	d12f      	bne.n	8005736 <HAL_RCC_ClockConfig+0xfa>
        {
          MODIFY_REG(RCC->CFGR, RCC_CFGR_HPRE, RCC_SYSCLK_DIV2);
 80056d6:	4b72      	ldr	r3, [pc, #456]	@ (80058a0 <HAL_RCC_ClockConfig+0x264>)
 80056d8:	689b      	ldr	r3, [r3, #8]
 80056da:	f023 03f0 	bic.w	r3, r3, #240	@ 0xf0
 80056de:	4a70      	ldr	r2, [pc, #448]	@ (80058a0 <HAL_RCC_ClockConfig+0x264>)
 80056e0:	f043 0380 	orr.w	r3, r3, #128	@ 0x80
 80056e4:	6093      	str	r3, [r2, #8]
          hpre = RCC_SYSCLK_DIV2;
 80056e6:	2380      	movs	r3, #128	@ 0x80
 80056e8:	617b      	str	r3, [r7, #20]
 80056ea:	e024      	b.n	8005736 <HAL_RCC_ClockConfig+0xfa>
      }
    }
    else
    {
      /* HSE is selected as System Clock Source */
      if (RCC_ClkInitStruct->SYSCLKSource == RCC_SYSCLKSOURCE_HSE)
 80056ec:	687b      	ldr	r3, [r7, #4]
 80056ee:	685b      	ldr	r3, [r3, #4]
 80056f0:	2b02      	cmp	r3, #2
 80056f2:	d107      	bne.n	8005704 <HAL_RCC_ClockConfig+0xc8>
      {
        /* Check the HSE ready flag */
        if(READ_BIT(RCC->CR, RCC_CR_HSERDY) == 0U)
 80056f4:	4b6a      	ldr	r3, [pc, #424]	@ (80058a0 <HAL_RCC_ClockConfig+0x264>)
 80056f6:	681b      	ldr	r3, [r3, #0]
 80056f8:	f403 3300 	and.w	r3, r3, #131072	@ 0x20000
 80056fc:	2b00      	cmp	r3, #0
 80056fe:	d109      	bne.n	8005714 <HAL_RCC_ClockConfig+0xd8>
        {
          return HAL_ERROR;
 8005700:	2301      	movs	r3, #1
 8005702:	e0c6      	b.n	8005892 <HAL_RCC_ClockConfig+0x256>
      }
      /* HSI is selected as System Clock Source */
      else
      {
        /* Check the HSI ready flag */
        if(READ_BIT(RCC->CR, RCC_CR_HSIRDY) == 0U)
 8005704:	4b66      	ldr	r3, [pc, #408]	@ (80058a0 <HAL_RCC_ClockConfig+0x264>)
 8005706:	681b      	ldr	r3, [r3, #0]
 8005708:	f403 6380 	and.w	r3, r3, #1024	@ 0x400
 800570c:	2b00      	cmp	r3, #0
 800570e:	d101      	bne.n	8005714 <HAL_RCC_ClockConfig+0xd8>
        {
          return HAL_ERROR;
 8005710:	2301      	movs	r3, #1
 8005712:	e0be      	b.n	8005892 <HAL_RCC_ClockConfig+0x256>
        }
      }
      /* Overshoot management when going down from PLL as SYSCLK source and frequency above 80Mhz */
      pllfreq = HAL_RCC_GetSysClockFreq();
 8005714:	f000 f8ce 	bl	80058b4 <HAL_RCC_GetSysClockFreq>
 8005718:	6138      	str	r0, [r7, #16]

      /* Intermediate step with HCLK prescaler 2 necessary before to go under 80Mhz */
      if(pllfreq > 80000000U)
 800571a:	693b      	ldr	r3, [r7, #16]
 800571c:	4a61      	ldr	r2, [pc, #388]	@ (80058a4 <HAL_RCC_ClockConfig+0x268>)
 800571e:	4293      	cmp	r3, r2
 8005720:	d909      	bls.n	8005736 <HAL_RCC_ClockConfig+0xfa>
      {
        MODIFY_REG(RCC->CFGR, RCC_CFGR_HPRE, RCC_SYSCLK_DIV2);
 8005722:	4b5f      	ldr	r3, [pc, #380]	@ (80058a0 <HAL_RCC_ClockConfig+0x264>)
 8005724:	689b      	ldr	r3, [r3, #8]
 8005726:	f023 03f0 	bic.w	r3, r3, #240	@ 0xf0
 800572a:	4a5d      	ldr	r2, [pc, #372]	@ (80058a0 <HAL_RCC_ClockConfig+0x264>)
 800572c:	f043 0380 	orr.w	r3, r3, #128	@ 0x80
 8005730:	6093      	str	r3, [r2, #8]
        hpre = RCC_SYSCLK_DIV2;
 8005732:	2380      	movs	r3, #128	@ 0x80
 8005734:	617b      	str	r3, [r7, #20]
      }

    }

    MODIFY_REG(RCC->CFGR, RCC_CFGR_SW, RCC_ClkInitStruct->SYSCLKSource);
 8005736:	4b5a      	ldr	r3, [pc, #360]	@ (80058a0 <HAL_RCC_ClockConfig+0x264>)
 8005738:	689b      	ldr	r3, [r3, #8]
 800573a:	f023 0203 	bic.w	r2, r3, #3
 800573e:	687b      	ldr	r3, [r7, #4]
 8005740:	685b      	ldr	r3, [r3, #4]
 8005742:	4957      	ldr	r1, [pc, #348]	@ (80058a0 <HAL_RCC_ClockConfig+0x264>)
 8005744:	4313      	orrs	r3, r2
 8005746:	608b      	str	r3, [r1, #8]

    /* Get Start Tick*/
    tickstart = HAL_GetTick();
 8005748:	f7fe fed8 	bl	80044fc <HAL_GetTick>
 800574c:	60f8      	str	r0, [r7, #12]

    while (__HAL_RCC_GET_SYSCLK_SOURCE() != (RCC_ClkInitStruct->SYSCLKSource << RCC_CFGR_SWS_Pos))
 800574e:	e00a      	b.n	8005766 <HAL_RCC_ClockConfig+0x12a>
    {
      if ((HAL_GetTick() - tickstart) > CLOCKSWITCH_TIMEOUT_VALUE)
 8005750:	f7fe fed4 	bl	80044fc <HAL_GetTick>
 8005754:	4602      	mov	r2, r0
 8005756:	68fb      	ldr	r3, [r7, #12]
 8005758:	1ad3      	subs	r3, r2, r3
 800575a:	f241 3288 	movw	r2, #5000	@ 0x1388
 800575e:	4293      	cmp	r3, r2
 8005760:	d901      	bls.n	8005766 <HAL_RCC_ClockConfig+0x12a>
      {
        return HAL_TIMEOUT;
 8005762:	2303      	movs	r3, #3
 8005764:	e095      	b.n	8005892 <HAL_RCC_ClockConfig+0x256>
    while (__HAL_RCC_GET_SYSCLK_SOURCE() != (RCC_ClkInitStruct->SYSCLKSource << RCC_CFGR_SWS_Pos))
 8005766:	4b4e      	ldr	r3, [pc, #312]	@ (80058a0 <HAL_RCC_ClockConfig+0x264>)
 8005768:	689b      	ldr	r3, [r3, #8]
 800576a:	f003 020c 	and.w	r2, r3, #12
 800576e:	687b      	ldr	r3, [r7, #4]
 8005770:	685b      	ldr	r3, [r3, #4]
 8005772:	009b      	lsls	r3, r3, #2
 8005774:	429a      	cmp	r2, r3
 8005776:	d1eb      	bne.n	8005750 <HAL_RCC_ClockConfig+0x114>
      }
    }
  }

  /*-------------------------- HCLK Configuration --------------------------*/
  if (((RCC_ClkInitStruct->ClockType) & RCC_CLOCKTYPE_HCLK) == RCC_CLOCKTYPE_HCLK)
 8005778:	687b      	ldr	r3, [r7, #4]
 800577a:	681b      	ldr	r3, [r3, #0]
 800577c:	f003 0302 	and.w	r3, r3, #2
 8005780:	2b00      	cmp	r3, #0
 8005782:	d023      	beq.n	80057cc <HAL_RCC_ClockConfig+0x190>
  {
    /* Set the highest APB divider in order to ensure that we do not go through
       a non-spec phase whatever we decrease or increase HCLK. */
    if (((RCC_ClkInitStruct->ClockType) & RCC_CLOCKTYPE_PCLK1) == RCC_CLOCKTYPE_PCLK1)
 8005784:	687b      	ldr	r3, [r7, #4]
 8005786:	681b      	ldr	r3, [r3, #0]
 8005788:	f003 0304 	and.w	r3, r3, #4
 800578c:	2b00      	cmp	r3, #0
 800578e:	d005      	beq.n	800579c <HAL_RCC_ClockConfig+0x160>
    {
      MODIFY_REG(RCC->CFGR, RCC_CFGR_PPRE1, RCC_HCLK_DIV16);
 8005790:	4b43      	ldr	r3, [pc, #268]	@ (80058a0 <HAL_RCC_ClockConfig+0x264>)
 8005792:	689b      	ldr	r3, [r3, #8]
 8005794:	4a42      	ldr	r2, [pc, #264]	@ (80058a0 <HAL_RCC_ClockConfig+0x264>)
 8005796:	f443 63e0 	orr.w	r3, r3, #1792	@ 0x700
 800579a:	6093      	str	r3, [r2, #8]
    }
    if (((RCC_ClkInitStruct->ClockType) & RCC_CLOCKTYPE_PCLK2) == RCC_CLOCKTYPE_PCLK2)
 800579c:	687b      	ldr	r3, [r7, #4]
 800579e:	681b      	ldr	r3, [r3, #0]
 80057a0:	f003 0308 	and.w	r3, r3, #8
 80057a4:	2b00      	cmp	r3, #0
 80057a6:	d007      	beq.n	80057b8 <HAL_RCC_ClockConfig+0x17c>
    {
      MODIFY_REG(RCC->CFGR, RCC_CFGR_PPRE2, RCC_HCLK_DIV16);
 80057a8:	4b3d      	ldr	r3, [pc, #244]	@ (80058a0 <HAL_RCC_ClockConfig+0x264>)
 80057aa:	689b      	ldr	r3, [r3, #8]
 80057ac:	f423 537c 	bic.w	r3, r3, #16128	@ 0x3f00
 80057b0:	4a3b      	ldr	r2, [pc, #236]	@ (80058a0 <HAL_RCC_ClockConfig+0x264>)
 80057b2:	f443 63e0 	orr.w	r3, r3, #1792	@ 0x700
 80057b6:	6093      	str	r3, [r2, #8]
    }

    /* Set the new HCLK clock divider */
    assert_param(IS_RCC_HCLK(RCC_ClkInitStruct->AHBCLKDivider));
    MODIFY_REG(RCC->CFGR, RCC_CFGR_HPRE, RCC_ClkInitStruct->AHBCLKDivider);
 80057b8:	4b39      	ldr	r3, [pc, #228]	@ (80058a0 <HAL_RCC_ClockConfig+0x264>)
 80057ba:	689b      	ldr	r3, [r3, #8]
 80057bc:	f023 02f0 	bic.w	r2, r3, #240	@ 0xf0
 80057c0:	687b      	ldr	r3, [r7, #4]
 80057c2:	689b      	ldr	r3, [r3, #8]
 80057c4:	4936      	ldr	r1, [pc, #216]	@ (80058a0 <HAL_RCC_ClockConfig+0x264>)
 80057c6:	4313      	orrs	r3, r2
 80057c8:	608b      	str	r3, [r1, #8]
 80057ca:	e008      	b.n	80057de <HAL_RCC_ClockConfig+0x1a2>
  }
  else
  {
    /* Is intermediate HCLK prescaler 2 applied internally, complete with HCLK prescaler 1 */
    if(hpre == RCC_SYSCLK_DIV2)
 80057cc:	697b      	ldr	r3, [r7, #20]
 80057ce:	2b80      	cmp	r3, #128	@ 0x80
 80057d0:	d105      	bne.n	80057de <HAL_RCC_ClockConfig+0x1a2>
    {
      MODIFY_REG(RCC->CFGR, RCC_CFGR_HPRE, RCC_SYSCLK_DIV1);
 80057d2:	4b33      	ldr	r3, [pc, #204]	@ (80058a0 <HAL_RCC_ClockConfig+0x264>)
 80057d4:	689b      	ldr	r3, [r3, #8]
 80057d6:	4a32      	ldr	r2, [pc, #200]	@ (80058a0 <HAL_RCC_ClockConfig+0x264>)
 80057d8:	f023 03f0 	bic.w	r3, r3, #240	@ 0xf0
 80057dc:	6093      	str	r3, [r2, #8]
    }
  }

  /* Decreasing the number of wait states because of lower CPU frequency */
  if (FLatency < __HAL_FLASH_GET_LATENCY())
 80057de:	4b2f      	ldr	r3, [pc, #188]	@ (800589c <HAL_RCC_ClockConfig+0x260>)
 80057e0:	681b      	ldr	r3, [r3, #0]
 80057e2:	f003 030f 	and.w	r3, r3, #15
 80057e6:	683a      	ldr	r2, [r7, #0]
 80057e8:	429a      	cmp	r2, r3
 80057ea:	d21d      	bcs.n	8005828 <HAL_RCC_ClockConfig+0x1ec>
  {
    /* Program the new number of wait states to the LATENCY bits in the FLASH_ACR register */
    __HAL_FLASH_SET_LATENCY(FLatency);
 80057ec:	4b2b      	ldr	r3, [pc, #172]	@ (800589c <HAL_RCC_ClockConfig+0x260>)
 80057ee:	681b      	ldr	r3, [r3, #0]
 80057f0:	f023 020f 	bic.w	r2, r3, #15
 80057f4:	4929      	ldr	r1, [pc, #164]	@ (800589c <HAL_RCC_ClockConfig+0x260>)
 80057f6:	683b      	ldr	r3, [r7, #0]
 80057f8:	4313      	orrs	r3, r2
 80057fa:	600b      	str	r3, [r1, #0]

    /* Check that the new number of wait states is taken into account to access the Flash
    memory by polling the FLASH_ACR register */
    tickstart = HAL_GetTick();
 80057fc:	f7fe fe7e 	bl	80044fc <HAL_GetTick>
 8005800:	60f8      	str	r0, [r7, #12]

    while (__HAL_FLASH_GET_LATENCY() != FLatency)
 8005802:	e00a      	b.n	800581a <HAL_RCC_ClockConfig+0x1de>
    {
      if ((HAL_GetTick() - tickstart) > CLOCKSWITCH_TIMEOUT_VALUE)
 8005804:	f7fe fe7a 	bl	80044fc <HAL_GetTick>
 8005808:	4602      	mov	r2, r0
 800580a:	68fb      	ldr	r3, [r7, #12]
 800580c:	1ad3      	subs	r3, r2, r3
 800580e:	f241 3288 	movw	r2, #5000	@ 0x1388
 8005812:	4293      	cmp	r3, r2
 8005814:	d901      	bls.n	800581a <HAL_RCC_ClockConfig+0x1de>
      {
        return HAL_TIMEOUT;
 8005816:	2303      	movs	r3, #3
 8005818:	e03b      	b.n	8005892 <HAL_RCC_ClockConfig+0x256>
    while (__HAL_FLASH_GET_LATENCY() != FLatency)
 800581a:	4b20      	ldr	r3, [pc, #128]	@ (800589c <HAL_RCC_ClockConfig+0x260>)
 800581c:	681b      	ldr	r3, [r3, #0]
 800581e:	f003 030f 	and.w	r3, r3, #15
 8005822:	683a      	ldr	r2, [r7, #0]
 8005824:	429a      	cmp	r2, r3
 8005826:	d1ed      	bne.n	8005804 <HAL_RCC_ClockConfig+0x1c8>
      }
    }
  }

  /*-------------------------- PCLK1 Configuration ---------------------------*/
  if (((RCC_ClkInitStruct->ClockType) & RCC_CLOCKTYPE_PCLK1) == RCC_CLOCKTYPE_PCLK1)
 8005828:	687b      	ldr	r3, [r7, #4]
 800582a:	681b      	ldr	r3, [r3, #0]
 800582c:	f003 0304 	and.w	r3, r3, #4
 8005830:	2b00      	cmp	r3, #0
 8005832:	d008      	beq.n	8005846 <HAL_RCC_ClockConfig+0x20a>
  {
    assert_param(IS_RCC_PCLK(RCC_ClkInitStruct->APB1CLKDivider));
    MODIFY_REG(RCC->CFGR, RCC_CFGR_PPRE1, RCC_ClkInitStruct->APB1CLKDivider);
 8005834:	4b1a      	ldr	r3, [pc, #104]	@ (80058a0 <HAL_RCC_ClockConfig+0x264>)
 8005836:	689b      	ldr	r3, [r3, #8]
 8005838:	f423 62e0 	bic.w	r2, r3, #1792	@ 0x700
 800583c:	687b      	ldr	r3, [r7, #4]
 800583e:	68db      	ldr	r3, [r3, #12]
 8005840:	4917      	ldr	r1, [pc, #92]	@ (80058a0 <HAL_RCC_ClockConfig+0x264>)
 8005842:	4313      	orrs	r3, r2
 8005844:	608b      	str	r3, [r1, #8]
  }

  /*-------------------------- PCLK2 Configuration ---------------------------*/
  if(((RCC_ClkInitStruct->ClockType) & RCC_CLOCKTYPE_PCLK2) == RCC_CLOCKTYPE_PCLK2)
 8005846:	687b      	ldr	r3, [r7, #4]
 8005848:	681b      	ldr	r3, [r3, #0]
 800584a:	f003 0308 	and.w	r3, r3, #8
 800584e:	2b00      	cmp	r3, #0
 8005850:	d009      	beq.n	8005866 <HAL_RCC_ClockConfig+0x22a>
  {
    assert_param(IS_RCC_PCLK(RCC_ClkInitStruct->APB2CLKDivider));
    MODIFY_REG(RCC->CFGR, RCC_CFGR_PPRE2, ((RCC_ClkInitStruct->APB2CLKDivider) << 3U));
 8005852:	4b13      	ldr	r3, [pc, #76]	@ (80058a0 <HAL_RCC_ClockConfig+0x264>)
 8005854:	689b      	ldr	r3, [r3, #8]
 8005856:	f423 5260 	bic.w	r2, r3, #14336	@ 0x3800
 800585a:	687b      	ldr	r3, [r7, #4]
 800585c:	691b      	ldr	r3, [r3, #16]
 800585e:	00db      	lsls	r3, r3, #3
 8005860:	490f      	ldr	r1, [pc, #60]	@ (80058a0 <HAL_RCC_ClockConfig+0x264>)
 8005862:	4313      	orrs	r3, r2
 8005864:	608b      	str	r3, [r1, #8]
  }

  /* Update the SystemCoreClock global variable */
  SystemCoreClock = HAL_RCC_GetSysClockFreq() >> (AHBPrescTable[READ_BIT(RCC->CFGR, RCC_CFGR_HPRE) >> RCC_CFGR_HPRE_Pos] & 0x1FU);
 8005866:	f000 f825 	bl	80058b4 <HAL_RCC_GetSysClockFreq>
 800586a:	4602      	mov	r2, r0
 800586c:	4b0c      	ldr	r3, [pc, #48]	@ (80058a0 <HAL_RCC_ClockConfig+0x264>)
 800586e:	689b      	ldr	r3, [r3, #8]
 8005870:	091b      	lsrs	r3, r3, #4
 8005872:	f003 030f 	and.w	r3, r3, #15
 8005876:	490c      	ldr	r1, [pc, #48]	@ (80058a8 <HAL_RCC_ClockConfig+0x26c>)
 8005878:	5ccb      	ldrb	r3, [r1, r3]
 800587a:	f003 031f 	and.w	r3, r3, #31
 800587e:	fa22 f303 	lsr.w	r3, r2, r3
 8005882:	4a0a      	ldr	r2, [pc, #40]	@ (80058ac <HAL_RCC_ClockConfig+0x270>)
 8005884:	6013      	str	r3, [r2, #0]

  /* Configure the source of time base considering new system clocks settings*/
  return HAL_InitTick(uwTickPrio);
 8005886:	4b0a      	ldr	r3, [pc, #40]	@ (80058b0 <HAL_RCC_ClockConfig+0x274>)
 8005888:	681b      	ldr	r3, [r3, #0]
 800588a:	4618      	mov	r0, r3
 800588c:	f7fe fdea 	bl	8004464 <HAL_InitTick>
 8005890:	4603      	mov	r3, r0
}
 8005892:	4618      	mov	r0, r3
 8005894:	3718      	adds	r7, #24
 8005896:	46bd      	mov	sp, r7
 8005898:	bd80      	pop	{r7, pc}
 800589a:	bf00      	nop
 800589c:	40022000 	.word	0x40022000
 80058a0:	40021000 	.word	0x40021000
 80058a4:	04c4b400 	.word	0x04c4b400
 80058a8:	080077b8 	.word	0x080077b8
 80058ac:	200000c0 	.word	0x200000c0
 80058b0:	200000d8 	.word	0x200000d8

080058b4 <HAL_RCC_GetSysClockFreq>:
  *
  *
  * @retval SYSCLK frequency
  */
uint32_t HAL_RCC_GetSysClockFreq(void)
{
 80058b4:	b480      	push	{r7}
 80058b6:	b087      	sub	sp, #28
 80058b8:	af00      	add	r7, sp, #0
  uint32_t pllvco, pllsource, pllr, pllm;
  uint32_t sysclockfreq;

  if (__HAL_RCC_GET_SYSCLK_SOURCE() == RCC_CFGR_SWS_HSI)
 80058ba:	4b2c      	ldr	r3, [pc, #176]	@ (800596c <HAL_RCC_GetSysClockFreq+0xb8>)
 80058bc:	689b      	ldr	r3, [r3, #8]
 80058be:	f003 030c 	and.w	r3, r3, #12
 80058c2:	2b04      	cmp	r3, #4
 80058c4:	d102      	bne.n	80058cc <HAL_RCC_GetSysClockFreq+0x18>
  {
    /* HSI used as system clock source */
    sysclockfreq = HSI_VALUE;
 80058c6:	4b2a      	ldr	r3, [pc, #168]	@ (8005970 <HAL_RCC_GetSysClockFreq+0xbc>)
 80058c8:	613b      	str	r3, [r7, #16]
 80058ca:	e047      	b.n	800595c <HAL_RCC_GetSysClockFreq+0xa8>
  }
  else if (__HAL_RCC_GET_SYSCLK_SOURCE() == RCC_CFGR_SWS_HSE)
 80058cc:	4b27      	ldr	r3, [pc, #156]	@ (800596c <HAL_RCC_GetSysClockFreq+0xb8>)
 80058ce:	689b      	ldr	r3, [r3, #8]
 80058d0:	f003 030c 	and.w	r3, r3, #12
 80058d4:	2b08      	cmp	r3, #8
 80058d6:	d102      	bne.n	80058de <HAL_RCC_GetSysClockFreq+0x2a>
  {
    /* HSE used as system clock source */
    sysclockfreq = HSE_VALUE;
 80058d8:	4b26      	ldr	r3, [pc, #152]	@ (8005974 <HAL_RCC_GetSysClockFreq+0xc0>)
 80058da:	613b      	str	r3, [r7, #16]
 80058dc:	e03e      	b.n	800595c <HAL_RCC_GetSysClockFreq+0xa8>
  }
  else if (__HAL_RCC_GET_SYSCLK_SOURCE() == RCC_CFGR_SWS_PLL)
 80058de:	4b23      	ldr	r3, [pc, #140]	@ (800596c <HAL_RCC_GetSysClockFreq+0xb8>)
 80058e0:	689b      	ldr	r3, [r3, #8]
 80058e2:	f003 030c 	and.w	r3, r3, #12
 80058e6:	2b0c      	cmp	r3, #12
 80058e8:	d136      	bne.n	8005958 <HAL_RCC_GetSysClockFreq+0xa4>
    /* PLL used as system clock  source */

    /* PLL_VCO = ((HSE_VALUE or HSI_VALUE)/ PLLM) * PLLN
    SYSCLK = PLL_VCO / PLLR
    */
    pllsource = READ_BIT(RCC->PLLCFGR, RCC_PLLCFGR_PLLSRC);
 80058ea:	4b20      	ldr	r3, [pc, #128]	@ (800596c <HAL_RCC_GetSysClockFreq+0xb8>)
 80058ec:	68db      	ldr	r3, [r3, #12]
 80058ee:	f003 0303 	and.w	r3, r3, #3
 80058f2:	60fb      	str	r3, [r7, #12]
    pllm = (READ_BIT(RCC->PLLCFGR, RCC_PLLCFGR_PLLM) >> RCC_PLLCFGR_PLLM_Pos) + 1U ;
 80058f4:	4b1d      	ldr	r3, [pc, #116]	@ (800596c <HAL_RCC_GetSysClockFreq+0xb8>)
 80058f6:	68db      	ldr	r3, [r3, #12]
 80058f8:	091b      	lsrs	r3, r3, #4
 80058fa:	f003 030f 	and.w	r3, r3, #15
 80058fe:	3301      	adds	r3, #1
 8005900:	60bb      	str	r3, [r7, #8]

    switch (pllsource)
 8005902:	68fb      	ldr	r3, [r7, #12]
 8005904:	2b03      	cmp	r3, #3
 8005906:	d10c      	bne.n	8005922 <HAL_RCC_GetSysClockFreq+0x6e>
    {
    case RCC_PLLSOURCE_HSE:  /* HSE used as PLL clock source */
      pllvco = (HSE_VALUE / pllm) * (READ_BIT(RCC->PLLCFGR, RCC_PLLCFGR_PLLN) >> RCC_PLLCFGR_PLLN_Pos);
 8005908:	4a1a      	ldr	r2, [pc, #104]	@ (8005974 <HAL_RCC_GetSysClockFreq+0xc0>)
 800590a:	68bb      	ldr	r3, [r7, #8]
 800590c:	fbb2 f3f3 	udiv	r3, r2, r3
 8005910:	4a16      	ldr	r2, [pc, #88]	@ (800596c <HAL_RCC_GetSysClockFreq+0xb8>)
 8005912:	68d2      	ldr	r2, [r2, #12]
 8005914:	0a12      	lsrs	r2, r2, #8
 8005916:	f002 027f 	and.w	r2, r2, #127	@ 0x7f
 800591a:	fb02 f303 	mul.w	r3, r2, r3
 800591e:	617b      	str	r3, [r7, #20]
      break;
 8005920:	e00c      	b.n	800593c <HAL_RCC_GetSysClockFreq+0x88>

    case RCC_PLLSOURCE_HSI:  /* HSI used as PLL clock source */
    default:
      pllvco = (HSI_VALUE / pllm) * (READ_BIT(RCC->PLLCFGR, RCC_PLLCFGR_PLLN) >> RCC_PLLCFGR_PLLN_Pos);
 8005922:	4a13      	ldr	r2, [pc, #76]	@ (8005970 <HAL_RCC_GetSysClockFreq+0xbc>)
 8005924:	68bb      	ldr	r3, [r7, #8]
 8005926:	fbb2 f3f3 	udiv	r3, r2, r3
 800592a:	4a10      	ldr	r2, [pc, #64]	@ (800596c <HAL_RCC_GetSysClockFreq+0xb8>)
 800592c:	68d2      	ldr	r2, [r2, #12]
 800592e:	0a12      	lsrs	r2, r2, #8
 8005930:	f002 027f 	and.w	r2, r2, #127	@ 0x7f
 8005934:	fb02 f303 	mul.w	r3, r2, r3
 8005938:	617b      	str	r3, [r7, #20]
      break;
 800593a:	bf00      	nop
    }
    pllr = ((READ_BIT(RCC->PLLCFGR, RCC_PLLCFGR_PLLR) >> RCC_PLLCFGR_PLLR_Pos) + 1U ) * 2U;
 800593c:	4b0b      	ldr	r3, [pc, #44]	@ (800596c <HAL_RCC_GetSysClockFreq+0xb8>)
 800593e:	68db      	ldr	r3, [r3, #12]
 8005940:	0e5b      	lsrs	r3, r3, #25
 8005942:	f003 0303 	and.w	r3, r3, #3
 8005946:	3301      	adds	r3, #1
 8005948:	005b      	lsls	r3, r3, #1
 800594a:	607b      	str	r3, [r7, #4]
    sysclockfreq = pllvco/pllr;
 800594c:	697a      	ldr	r2, [r7, #20]
 800594e:	687b      	ldr	r3, [r7, #4]
 8005950:	fbb2 f3f3 	udiv	r3, r2, r3
 8005954:	613b      	str	r3, [r7, #16]
 8005956:	e001      	b.n	800595c <HAL_RCC_GetSysClockFreq+0xa8>
  }
  else
  {
    sysclockfreq = 0U;
 8005958:	2300      	movs	r3, #0
 800595a:	613b      	str	r3, [r7, #16]
  }

  return sysclockfreq;
 800595c:	693b      	ldr	r3, [r7, #16]
}
 800595e:	4618      	mov	r0, r3
 8005960:	371c      	adds	r7, #28
 8005962:	46bd      	mov	sp, r7
 8005964:	f85d 7b04 	ldr.w	r7, [sp], #4
 8005968:	4770      	bx	lr
 800596a:	bf00      	nop
 800596c:	40021000 	.word	0x40021000
 8005970:	00f42400 	.word	0x00f42400
 8005974:	016e3600 	.word	0x016e3600

08005978 <HAL_RCC_GetHCLKFreq>:
  *
  * @note   The SystemCoreClock CMSIS variable is used to store System Clock Frequency.
  * @retval HCLK frequency in Hz
  */
uint32_t HAL_RCC_GetHCLKFreq(void)
{
 8005978:	b480      	push	{r7}
 800597a:	af00      	add	r7, sp, #0
  return SystemCoreClock;
 800597c:	4b03      	ldr	r3, [pc, #12]	@ (800598c <HAL_RCC_GetHCLKFreq+0x14>)
 800597e:	681b      	ldr	r3, [r3, #0]
}
 8005980:	4618      	mov	r0, r3
 8005982:	46bd      	mov	sp, r7
 8005984:	f85d 7b04 	ldr.w	r7, [sp], #4
 8005988:	4770      	bx	lr
 800598a:	bf00      	nop
 800598c:	200000c0 	.word	0x200000c0

08005990 <HAL_RCC_GetPCLK1Freq>:
  * @note   Each time PCLK1 changes, this function must be called to update the
  *         right PCLK1 value. Otherwise, any configuration based on this function will be incorrect.
  * @retval PCLK1 frequency in Hz
  */
uint32_t HAL_RCC_GetPCLK1Freq(void)
{
 8005990:	b580      	push	{r7, lr}
 8005992:	af00      	add	r7, sp, #0
  /* Get HCLK source and Compute PCLK1 frequency ---------------------------*/
  return (HAL_RCC_GetHCLKFreq() >> (APBPrescTable[READ_BIT(RCC->CFGR, RCC_CFGR_PPRE1) >> RCC_CFGR_PPRE1_Pos] & 0x1FU));
 8005994:	f7ff fff0 	bl	8005978 <HAL_RCC_GetHCLKFreq>
 8005998:	4602      	mov	r2, r0
 800599a:	4b06      	ldr	r3, [pc, #24]	@ (80059b4 <HAL_RCC_GetPCLK1Freq+0x24>)
 800599c:	689b      	ldr	r3, [r3, #8]
 800599e:	0a1b      	lsrs	r3, r3, #8
 80059a0:	f003 0307 	and.w	r3, r3, #7
 80059a4:	4904      	ldr	r1, [pc, #16]	@ (80059b8 <HAL_RCC_GetPCLK1Freq+0x28>)
 80059a6:	5ccb      	ldrb	r3, [r1, r3]
 80059a8:	f003 031f 	and.w	r3, r3, #31
 80059ac:	fa22 f303 	lsr.w	r3, r2, r3
}
 80059b0:	4618      	mov	r0, r3
 80059b2:	bd80      	pop	{r7, pc}
 80059b4:	40021000 	.word	0x40021000
 80059b8:	080077c8 	.word	0x080077c8

080059bc <HAL_RCC_GetPCLK2Freq>:
  * @note   Each time PCLK2 changes, this function must be called to update the
  *         right PCLK2 value. Otherwise, any configuration based on this function will be incorrect.
  * @retval PCLK2 frequency in Hz
  */
uint32_t HAL_RCC_GetPCLK2Freq(void)
{
 80059bc:	b580      	push	{r7, lr}
 80059be:	af00      	add	r7, sp, #0
  /* Get HCLK source and Compute PCLK2 frequency ---------------------------*/
  return (HAL_RCC_GetHCLKFreq()>> (APBPrescTable[READ_BIT(RCC->CFGR, RCC_CFGR_PPRE2) >> RCC_CFGR_PPRE2_Pos] & 0x1FU));
 80059c0:	f7ff ffda 	bl	8005978 <HAL_RCC_GetHCLKFreq>
 80059c4:	4602      	mov	r2, r0
 80059c6:	4b06      	ldr	r3, [pc, #24]	@ (80059e0 <HAL_RCC_GetPCLK2Freq+0x24>)
 80059c8:	689b      	ldr	r3, [r3, #8]
 80059ca:	0adb      	lsrs	r3, r3, #11
 80059cc:	f003 0307 	and.w	r3, r3, #7
 80059d0:	4904      	ldr	r1, [pc, #16]	@ (80059e4 <HAL_RCC_GetPCLK2Freq+0x28>)
 80059d2:	5ccb      	ldrb	r3, [r1, r3]
 80059d4:	f003 031f 	and.w	r3, r3, #31
 80059d8:	fa22 f303 	lsr.w	r3, r2, r3
}
 80059dc:	4618      	mov	r0, r3
 80059de:	bd80      	pop	{r7, pc}
 80059e0:	40021000 	.word	0x40021000
 80059e4:	080077c8 	.word	0x080077c8

080059e8 <RCC_GetSysClockFreqFromPLLSource>:
/**
  * @brief  Compute SYSCLK frequency based on PLL SYSCLK source.
  * @retval SYSCLK frequency
  */
static uint32_t RCC_GetSysClockFreqFromPLLSource(void)
{
 80059e8:	b480      	push	{r7}
 80059ea:	b087      	sub	sp, #28
 80059ec:	af00      	add	r7, sp, #0
  uint32_t sysclockfreq;

  /* PLL_VCO = (HSE_VALUE or HSI_VALUE/ PLLM) * PLLN
     SYSCLK = PLL_VCO / PLLR
   */
  pllsource = READ_BIT(RCC->PLLCFGR, RCC_PLLCFGR_PLLSRC);
 80059ee:	4b1e      	ldr	r3, [pc, #120]	@ (8005a68 <RCC_GetSysClockFreqFromPLLSource+0x80>)
 80059f0:	68db      	ldr	r3, [r3, #12]
 80059f2:	f003 0303 	and.w	r3, r3, #3
 80059f6:	613b      	str	r3, [r7, #16]
  pllm = (READ_BIT(RCC->PLLCFGR, RCC_PLLCFGR_PLLM) >> RCC_PLLCFGR_PLLM_Pos) + 1U ;
 80059f8:	4b1b      	ldr	r3, [pc, #108]	@ (8005a68 <RCC_GetSysClockFreqFromPLLSource+0x80>)
 80059fa:	68db      	ldr	r3, [r3, #12]
 80059fc:	091b      	lsrs	r3, r3, #4
 80059fe:	f003 030f 	and.w	r3, r3, #15
 8005a02:	3301      	adds	r3, #1
 8005a04:	60fb      	str	r3, [r7, #12]

  switch (pllsource)
 8005a06:	693b      	ldr	r3, [r7, #16]
 8005a08:	2b03      	cmp	r3, #3
 8005a0a:	d10c      	bne.n	8005a26 <RCC_GetSysClockFreqFromPLLSource+0x3e>
  {
  case RCC_PLLSOURCE_HSE:  /* HSE used as PLL clock source */
    pllvco = (HSE_VALUE / pllm) * (READ_BIT(RCC->PLLCFGR, RCC_PLLCFGR_PLLN) >> RCC_PLLCFGR_PLLN_Pos);
 8005a0c:	4a17      	ldr	r2, [pc, #92]	@ (8005a6c <RCC_GetSysClockFreqFromPLLSource+0x84>)
 8005a0e:	68fb      	ldr	r3, [r7, #12]
 8005a10:	fbb2 f3f3 	udiv	r3, r2, r3
 8005a14:	4a14      	ldr	r2, [pc, #80]	@ (8005a68 <RCC_GetSysClockFreqFromPLLSource+0x80>)
 8005a16:	68d2      	ldr	r2, [r2, #12]
 8005a18:	0a12      	lsrs	r2, r2, #8
 8005a1a:	f002 027f 	and.w	r2, r2, #127	@ 0x7f
 8005a1e:	fb02 f303 	mul.w	r3, r2, r3
 8005a22:	617b      	str	r3, [r7, #20]
    break;
 8005a24:	e00c      	b.n	8005a40 <RCC_GetSysClockFreqFromPLLSource+0x58>

  case RCC_PLLSOURCE_HSI:  /* HSI used as PLL clock source */
  default:
    pllvco = (HSI_VALUE / pllm) * (READ_BIT(RCC->PLLCFGR, RCC_PLLCFGR_PLLN) >> RCC_PLLCFGR_PLLN_Pos);
 8005a26:	4a12      	ldr	r2, [pc, #72]	@ (8005a70 <RCC_GetSysClockFreqFromPLLSource+0x88>)
 8005a28:	68fb      	ldr	r3, [r7, #12]
 8005a2a:	fbb2 f3f3 	udiv	r3, r2, r3
 8005a2e:	4a0e      	ldr	r2, [pc, #56]	@ (8005a68 <RCC_GetSysClockFreqFromPLLSource+0x80>)
 8005a30:	68d2      	ldr	r2, [r2, #12]
 8005a32:	0a12      	lsrs	r2, r2, #8
 8005a34:	f002 027f 	and.w	r2, r2, #127	@ 0x7f
 8005a38:	fb02 f303 	mul.w	r3, r2, r3
 8005a3c:	617b      	str	r3, [r7, #20]
    break;
 8005a3e:	bf00      	nop
  }

  pllr = ((READ_BIT(RCC->PLLCFGR, RCC_PLLCFGR_PLLR) >> RCC_PLLCFGR_PLLR_Pos) + 1U ) * 2U;
 8005a40:	4b09      	ldr	r3, [pc, #36]	@ (8005a68 <RCC_GetSysClockFreqFromPLLSource+0x80>)
 8005a42:	68db      	ldr	r3, [r3, #12]
 8005a44:	0e5b      	lsrs	r3, r3, #25
 8005a46:	f003 0303 	and.w	r3, r3, #3
 8005a4a:	3301      	adds	r3, #1
 8005a4c:	005b      	lsls	r3, r3, #1
 8005a4e:	60bb      	str	r3, [r7, #8]
  sysclockfreq = pllvco/pllr;
 8005a50:	697a      	ldr	r2, [r7, #20]
 8005a52:	68bb      	ldr	r3, [r7, #8]
 8005a54:	fbb2 f3f3 	udiv	r3, r2, r3
 8005a58:	607b      	str	r3, [r7, #4]

  return sysclockfreq;
 8005a5a:	687b      	ldr	r3, [r7, #4]
}
 8005a5c:	4618      	mov	r0, r3
 8005a5e:	371c      	adds	r7, #28
 8005a60:	46bd      	mov	sp, r7
 8005a62:	f85d 7b04 	ldr.w	r7, [sp], #4
 8005a66:	4770      	bx	lr
 8005a68:	40021000 	.word	0x40021000
 8005a6c:	016e3600 	.word	0x016e3600
 8005a70:	00f42400 	.word	0x00f42400

08005a74 <HAL_RCCEx_PeriphCLKConfig>:
  *         the RTC clock source: in this case the access to Backup domain is enabled.
  *
  * @retval HAL status
  */
HAL_StatusTypeDef HAL_RCCEx_PeriphCLKConfig(RCC_PeriphCLKInitTypeDef const *PeriphClkInit)
{
 8005a74:	b580      	push	{r7, lr}
 8005a76:	b086      	sub	sp, #24
 8005a78:	af00      	add	r7, sp, #0
 8005a7a:	6078      	str	r0, [r7, #4]
  uint32_t tmpregister;
  uint32_t tickstart;
  HAL_StatusTypeDef ret = HAL_OK;      /* Intermediate status */
 8005a7c:	2300      	movs	r3, #0
 8005a7e:	74fb      	strb	r3, [r7, #19]
  HAL_StatusTypeDef status = HAL_OK;   /* Final status */
 8005a80:	2300      	movs	r3, #0
 8005a82:	74bb      	strb	r3, [r7, #18]

  /* Check the parameters */
  assert_param(IS_RCC_PERIPHCLOCK(PeriphClkInit->PeriphClockSelection));

  /*-------------------------- RTC clock source configuration ----------------------*/
  if((PeriphClkInit->PeriphClockSelection & RCC_PERIPHCLK_RTC) == RCC_PERIPHCLK_RTC)
 8005a84:	687b      	ldr	r3, [r7, #4]
 8005a86:	681b      	ldr	r3, [r3, #0]
 8005a88:	f403 2300 	and.w	r3, r3, #524288	@ 0x80000
 8005a8c:	2b00      	cmp	r3, #0
 8005a8e:	f000 8098 	beq.w	8005bc2 <HAL_RCCEx_PeriphCLKConfig+0x14e>
  {
    FlagStatus       pwrclkchanged = RESET;
 8005a92:	2300      	movs	r3, #0
 8005a94:	747b      	strb	r3, [r7, #17]
    
    /* Check for RTC Parameters used to output RTCCLK */
    assert_param(IS_RCC_RTCCLKSOURCE(PeriphClkInit->RTCClockSelection));

    /* Enable Power Clock */
    if(__HAL_RCC_PWR_IS_CLK_DISABLED())
 8005a96:	4b43      	ldr	r3, [pc, #268]	@ (8005ba4 <HAL_RCCEx_PeriphCLKConfig+0x130>)
 8005a98:	6d9b      	ldr	r3, [r3, #88]	@ 0x58
 8005a9a:	f003 5380 	and.w	r3, r3, #268435456	@ 0x10000000
 8005a9e:	2b00      	cmp	r3, #0
 8005aa0:	d10d      	bne.n	8005abe <HAL_RCCEx_PeriphCLKConfig+0x4a>
    {
      __HAL_RCC_PWR_CLK_ENABLE();
 8005aa2:	4b40      	ldr	r3, [pc, #256]	@ (8005ba4 <HAL_RCCEx_PeriphCLKConfig+0x130>)
 8005aa4:	6d9b      	ldr	r3, [r3, #88]	@ 0x58
 8005aa6:	4a3f      	ldr	r2, [pc, #252]	@ (8005ba4 <HAL_RCCEx_PeriphCLKConfig+0x130>)
 8005aa8:	f043 5380 	orr.w	r3, r3, #268435456	@ 0x10000000
 8005aac:	6593      	str	r3, [r2, #88]	@ 0x58
 8005aae:	4b3d      	ldr	r3, [pc, #244]	@ (8005ba4 <HAL_RCCEx_PeriphCLKConfig+0x130>)
 8005ab0:	6d9b      	ldr	r3, [r3, #88]	@ 0x58
 8005ab2:	f003 5380 	and.w	r3, r3, #268435456	@ 0x10000000
 8005ab6:	60bb      	str	r3, [r7, #8]
 8005ab8:	68bb      	ldr	r3, [r7, #8]
      pwrclkchanged = SET;
 8005aba:	2301      	movs	r3, #1
 8005abc:	747b      	strb	r3, [r7, #17]
    }
      
    /* Enable write access to Backup domain */
    SET_BIT(PWR->CR1, PWR_CR1_DBP);
 8005abe:	4b3a      	ldr	r3, [pc, #232]	@ (8005ba8 <HAL_RCCEx_PeriphCLKConfig+0x134>)
 8005ac0:	681b      	ldr	r3, [r3, #0]
 8005ac2:	4a39      	ldr	r2, [pc, #228]	@ (8005ba8 <HAL_RCCEx_PeriphCLKConfig+0x134>)
 8005ac4:	f443 7380 	orr.w	r3, r3, #256	@ 0x100
 8005ac8:	6013      	str	r3, [r2, #0]

    /* Wait for Backup domain Write protection disable */
    tickstart = HAL_GetTick();
 8005aca:	f7fe fd17 	bl	80044fc <HAL_GetTick>
 8005ace:	60f8      	str	r0, [r7, #12]

    while((PWR->CR1 & PWR_CR1_DBP) == 0U)
 8005ad0:	e009      	b.n	8005ae6 <HAL_RCCEx_PeriphCLKConfig+0x72>
    {
      if((HAL_GetTick() - tickstart) > RCC_DBP_TIMEOUT_VALUE)
 8005ad2:	f7fe fd13 	bl	80044fc <HAL_GetTick>
 8005ad6:	4602      	mov	r2, r0
 8005ad8:	68fb      	ldr	r3, [r7, #12]
 8005ada:	1ad3      	subs	r3, r2, r3
 8005adc:	2b02      	cmp	r3, #2
 8005ade:	d902      	bls.n	8005ae6 <HAL_RCCEx_PeriphCLKConfig+0x72>
      {
        ret = HAL_TIMEOUT;
 8005ae0:	2303      	movs	r3, #3
 8005ae2:	74fb      	strb	r3, [r7, #19]
        break;
 8005ae4:	e005      	b.n	8005af2 <HAL_RCCEx_PeriphCLKConfig+0x7e>
    while((PWR->CR1 & PWR_CR1_DBP) == 0U)
 8005ae6:	4b30      	ldr	r3, [pc, #192]	@ (8005ba8 <HAL_RCCEx_PeriphCLKConfig+0x134>)
 8005ae8:	681b      	ldr	r3, [r3, #0]
 8005aea:	f403 7380 	and.w	r3, r3, #256	@ 0x100
 8005aee:	2b00      	cmp	r3, #0
 8005af0:	d0ef      	beq.n	8005ad2 <HAL_RCCEx_PeriphCLKConfig+0x5e>
      }
    }

    if(ret == HAL_OK)
 8005af2:	7cfb      	ldrb	r3, [r7, #19]
 8005af4:	2b00      	cmp	r3, #0
 8005af6:	d159      	bne.n	8005bac <HAL_RCCEx_PeriphCLKConfig+0x138>
    { 
      /* Reset the Backup domain only if the RTC Clock source selection is modified from default */
      tmpregister = READ_BIT(RCC->BDCR, RCC_BDCR_RTCSEL);
 8005af8:	4b2a      	ldr	r3, [pc, #168]	@ (8005ba4 <HAL_RCCEx_PeriphCLKConfig+0x130>)
 8005afa:	f8d3 3090 	ldr.w	r3, [r3, #144]	@ 0x90
 8005afe:	f403 7340 	and.w	r3, r3, #768	@ 0x300
 8005b02:	617b      	str	r3, [r7, #20]
      
      if((tmpregister != RCC_RTCCLKSOURCE_NONE) && (tmpregister != PeriphClkInit->RTCClockSelection))
 8005b04:	697b      	ldr	r3, [r7, #20]
 8005b06:	2b00      	cmp	r3, #0
 8005b08:	d01e      	beq.n	8005b48 <HAL_RCCEx_PeriphCLKConfig+0xd4>
 8005b0a:	687b      	ldr	r3, [r7, #4]
 8005b0c:	6c1b      	ldr	r3, [r3, #64]	@ 0x40
 8005b0e:	697a      	ldr	r2, [r7, #20]
 8005b10:	429a      	cmp	r2, r3
 8005b12:	d019      	beq.n	8005b48 <HAL_RCCEx_PeriphCLKConfig+0xd4>
      {
        /* Store the content of BDCR register before the reset of Backup Domain */
        tmpregister = READ_BIT(RCC->BDCR, ~(RCC_BDCR_RTCSEL));
 8005b14:	4b23      	ldr	r3, [pc, #140]	@ (8005ba4 <HAL_RCCEx_PeriphCLKConfig+0x130>)
 8005b16:	f8d3 3090 	ldr.w	r3, [r3, #144]	@ 0x90
 8005b1a:	f423 7340 	bic.w	r3, r3, #768	@ 0x300
 8005b1e:	617b      	str	r3, [r7, #20]
        /* RTC Clock selection can be changed only if the Backup Domain is reset */
        __HAL_RCC_BACKUPRESET_FORCE();
 8005b20:	4b20      	ldr	r3, [pc, #128]	@ (8005ba4 <HAL_RCCEx_PeriphCLKConfig+0x130>)
 8005b22:	f8d3 3090 	ldr.w	r3, [r3, #144]	@ 0x90
 8005b26:	4a1f      	ldr	r2, [pc, #124]	@ (8005ba4 <HAL_RCCEx_PeriphCLKConfig+0x130>)
 8005b28:	f443 3380 	orr.w	r3, r3, #65536	@ 0x10000
 8005b2c:	f8c2 3090 	str.w	r3, [r2, #144]	@ 0x90
        __HAL_RCC_BACKUPRESET_RELEASE();
 8005b30:	4b1c      	ldr	r3, [pc, #112]	@ (8005ba4 <HAL_RCCEx_PeriphCLKConfig+0x130>)
 8005b32:	f8d3 3090 	ldr.w	r3, [r3, #144]	@ 0x90
 8005b36:	4a1b      	ldr	r2, [pc, #108]	@ (8005ba4 <HAL_RCCEx_PeriphCLKConfig+0x130>)
 8005b38:	f423 3380 	bic.w	r3, r3, #65536	@ 0x10000
 8005b3c:	f8c2 3090 	str.w	r3, [r2, #144]	@ 0x90
        /* Restore the Content of BDCR register */
        RCC->BDCR = tmpregister;
 8005b40:	4a18      	ldr	r2, [pc, #96]	@ (8005ba4 <HAL_RCCEx_PeriphCLKConfig+0x130>)
 8005b42:	697b      	ldr	r3, [r7, #20]
 8005b44:	f8c2 3090 	str.w	r3, [r2, #144]	@ 0x90
      }

      /* Wait for LSE reactivation if LSE was enable prior to Backup Domain reset */
      if (HAL_IS_BIT_SET(tmpregister, RCC_BDCR_LSEON))
 8005b48:	697b      	ldr	r3, [r7, #20]
 8005b4a:	f003 0301 	and.w	r3, r3, #1
 8005b4e:	2b00      	cmp	r3, #0
 8005b50:	d016      	beq.n	8005b80 <HAL_RCCEx_PeriphCLKConfig+0x10c>
      {
        /* Get Start Tick*/
        tickstart = HAL_GetTick();
 8005b52:	f7fe fcd3 	bl	80044fc <HAL_GetTick>
 8005b56:	60f8      	str	r0, [r7, #12]

        /* Wait till LSE is ready */
        while(READ_BIT(RCC->BDCR, RCC_BDCR_LSERDY) == 0U)
 8005b58:	e00b      	b.n	8005b72 <HAL_RCCEx_PeriphCLKConfig+0xfe>
        {
          if((HAL_GetTick() - tickstart) > RCC_LSE_TIMEOUT_VALUE)
 8005b5a:	f7fe fccf 	bl	80044fc <HAL_GetTick>
 8005b5e:	4602      	mov	r2, r0
 8005b60:	68fb      	ldr	r3, [r7, #12]
 8005b62:	1ad3      	subs	r3, r2, r3
 8005b64:	f241 3288 	movw	r2, #5000	@ 0x1388
 8005b68:	4293      	cmp	r3, r2
 8005b6a:	d902      	bls.n	8005b72 <HAL_RCCEx_PeriphCLKConfig+0xfe>
          {
            ret = HAL_TIMEOUT;
 8005b6c:	2303      	movs	r3, #3
 8005b6e:	74fb      	strb	r3, [r7, #19]
            break;
 8005b70:	e006      	b.n	8005b80 <HAL_RCCEx_PeriphCLKConfig+0x10c>
        while(READ_BIT(RCC->BDCR, RCC_BDCR_LSERDY) == 0U)
 8005b72:	4b0c      	ldr	r3, [pc, #48]	@ (8005ba4 <HAL_RCCEx_PeriphCLKConfig+0x130>)
 8005b74:	f8d3 3090 	ldr.w	r3, [r3, #144]	@ 0x90
 8005b78:	f003 0302 	and.w	r3, r3, #2
 8005b7c:	2b00      	cmp	r3, #0
 8005b7e:	d0ec      	beq.n	8005b5a <HAL_RCCEx_PeriphCLKConfig+0xe6>
          }
        }
      }
      
      if(ret == HAL_OK)
 8005b80:	7cfb      	ldrb	r3, [r7, #19]
 8005b82:	2b00      	cmp	r3, #0
 8005b84:	d10b      	bne.n	8005b9e <HAL_RCCEx_PeriphCLKConfig+0x12a>
      {
        /* Apply new RTC clock source selection */
        __HAL_RCC_RTC_CONFIG(PeriphClkInit->RTCClockSelection);
 8005b86:	4b07      	ldr	r3, [pc, #28]	@ (8005ba4 <HAL_RCCEx_PeriphCLKConfig+0x130>)
 8005b88:	f8d3 3090 	ldr.w	r3, [r3, #144]	@ 0x90
 8005b8c:	f423 7240 	bic.w	r2, r3, #768	@ 0x300
 8005b90:	687b      	ldr	r3, [r7, #4]
 8005b92:	6c1b      	ldr	r3, [r3, #64]	@ 0x40
 8005b94:	4903      	ldr	r1, [pc, #12]	@ (8005ba4 <HAL_RCCEx_PeriphCLKConfig+0x130>)
 8005b96:	4313      	orrs	r3, r2
 8005b98:	f8c1 3090 	str.w	r3, [r1, #144]	@ 0x90
 8005b9c:	e008      	b.n	8005bb0 <HAL_RCCEx_PeriphCLKConfig+0x13c>
      }
      else
      {
        /* set overall return value */
        status = ret;
 8005b9e:	7cfb      	ldrb	r3, [r7, #19]
 8005ba0:	74bb      	strb	r3, [r7, #18]
 8005ba2:	e005      	b.n	8005bb0 <HAL_RCCEx_PeriphCLKConfig+0x13c>
 8005ba4:	40021000 	.word	0x40021000
 8005ba8:	40007000 	.word	0x40007000
      }
    }
    else
    {
      /* set overall return value */
      status = ret;
 8005bac:	7cfb      	ldrb	r3, [r7, #19]
 8005bae:	74bb      	strb	r3, [r7, #18]
    }

    /* Restore clock configuration if changed */
    if(pwrclkchanged == SET)
 8005bb0:	7c7b      	ldrb	r3, [r7, #17]
 8005bb2:	2b01      	cmp	r3, #1
 8005bb4:	d105      	bne.n	8005bc2 <HAL_RCCEx_PeriphCLKConfig+0x14e>
    {
      __HAL_RCC_PWR_CLK_DISABLE();
 8005bb6:	4ba6      	ldr	r3, [pc, #664]	@ (8005e50 <HAL_RCCEx_PeriphCLKConfig+0x3dc>)
 8005bb8:	6d9b      	ldr	r3, [r3, #88]	@ 0x58
 8005bba:	4aa5      	ldr	r2, [pc, #660]	@ (8005e50 <HAL_RCCEx_PeriphCLKConfig+0x3dc>)
 8005bbc:	f023 5380 	bic.w	r3, r3, #268435456	@ 0x10000000
 8005bc0:	6593      	str	r3, [r2, #88]	@ 0x58
    }
  }

  /*-------------------------- USART1 clock source configuration -------------------*/
  if(((PeriphClkInit->PeriphClockSelection) & RCC_PERIPHCLK_USART1) == RCC_PERIPHCLK_USART1)
 8005bc2:	687b      	ldr	r3, [r7, #4]
 8005bc4:	681b      	ldr	r3, [r3, #0]
 8005bc6:	f003 0301 	and.w	r3, r3, #1
 8005bca:	2b00      	cmp	r3, #0
 8005bcc:	d00a      	beq.n	8005be4 <HAL_RCCEx_PeriphCLKConfig+0x170>
  {
    /* Check the parameters */
    assert_param(IS_RCC_USART1CLKSOURCE(PeriphClkInit->Usart1ClockSelection));

    /* Configure the USART1 clock source */
    __HAL_RCC_USART1_CONFIG(PeriphClkInit->Usart1ClockSelection);
 8005bce:	4ba0      	ldr	r3, [pc, #640]	@ (8005e50 <HAL_RCCEx_PeriphCLKConfig+0x3dc>)
 8005bd0:	f8d3 3088 	ldr.w	r3, [r3, #136]	@ 0x88
 8005bd4:	f023 0203 	bic.w	r2, r3, #3
 8005bd8:	687b      	ldr	r3, [r7, #4]
 8005bda:	685b      	ldr	r3, [r3, #4]
 8005bdc:	499c      	ldr	r1, [pc, #624]	@ (8005e50 <HAL_RCCEx_PeriphCLKConfig+0x3dc>)
 8005bde:	4313      	orrs	r3, r2
 8005be0:	f8c1 3088 	str.w	r3, [r1, #136]	@ 0x88
  }

  /*-------------------------- USART2 clock source configuration -------------------*/
  if(((PeriphClkInit->PeriphClockSelection) & RCC_PERIPHCLK_USART2) == RCC_PERIPHCLK_USART2)
 8005be4:	687b      	ldr	r3, [r7, #4]
 8005be6:	681b      	ldr	r3, [r3, #0]
 8005be8:	f003 0302 	and.w	r3, r3, #2
 8005bec:	2b00      	cmp	r3, #0
 8005bee:	d00a      	beq.n	8005c06 <HAL_RCCEx_PeriphCLKConfig+0x192>
  {
    /* Check the parameters */
    assert_param(IS_RCC_USART2CLKSOURCE(PeriphClkInit->Usart2ClockSelection));

    /* Configure the USART2 clock source */
    __HAL_RCC_USART2_CONFIG(PeriphClkInit->Usart2ClockSelection);
 8005bf0:	4b97      	ldr	r3, [pc, #604]	@ (8005e50 <HAL_RCCEx_PeriphCLKConfig+0x3dc>)
 8005bf2:	f8d3 3088 	ldr.w	r3, [r3, #136]	@ 0x88
 8005bf6:	f023 020c 	bic.w	r2, r3, #12
 8005bfa:	687b      	ldr	r3, [r7, #4]
 8005bfc:	689b      	ldr	r3, [r3, #8]
 8005bfe:	4994      	ldr	r1, [pc, #592]	@ (8005e50 <HAL_RCCEx_PeriphCLKConfig+0x3dc>)
 8005c00:	4313      	orrs	r3, r2
 8005c02:	f8c1 3088 	str.w	r3, [r1, #136]	@ 0x88
  }

#if defined(USART3)

  /*-------------------------- USART3 clock source configuration -------------------*/
  if(((PeriphClkInit->PeriphClockSelection) & RCC_PERIPHCLK_USART3) == RCC_PERIPHCLK_USART3)
 8005c06:	687b      	ldr	r3, [r7, #4]
 8005c08:	681b      	ldr	r3, [r3, #0]
 8005c0a:	f003 0304 	and.w	r3, r3, #4
 8005c0e:	2b00      	cmp	r3, #0
 8005c10:	d00a      	beq.n	8005c28 <HAL_RCCEx_PeriphCLKConfig+0x1b4>
  {
    /* Check the parameters */
    assert_param(IS_RCC_USART3CLKSOURCE(PeriphClkInit->Usart3ClockSelection));

    /* Configure the USART3 clock source */
    __HAL_RCC_USART3_CONFIG(PeriphClkInit->Usart3ClockSelection);
 8005c12:	4b8f      	ldr	r3, [pc, #572]	@ (8005e50 <HAL_RCCEx_PeriphCLKConfig+0x3dc>)
 8005c14:	f8d3 3088 	ldr.w	r3, [r3, #136]	@ 0x88
 8005c18:	f023 0230 	bic.w	r2, r3, #48	@ 0x30
 8005c1c:	687b      	ldr	r3, [r7, #4]
 8005c1e:	68db      	ldr	r3, [r3, #12]
 8005c20:	498b      	ldr	r1, [pc, #556]	@ (8005e50 <HAL_RCCEx_PeriphCLKConfig+0x3dc>)
 8005c22:	4313      	orrs	r3, r2
 8005c24:	f8c1 3088 	str.w	r3, [r1, #136]	@ 0x88

#endif /* USART3 */

#if defined(UART4)
  /*-------------------------- UART4 clock source configuration --------------------*/
  if(((PeriphClkInit->PeriphClockSelection) & RCC_PERIPHCLK_UART4) == RCC_PERIPHCLK_UART4)
 8005c28:	687b      	ldr	r3, [r7, #4]
 8005c2a:	681b      	ldr	r3, [r3, #0]
 8005c2c:	f003 0308 	and.w	r3, r3, #8
 8005c30:	2b00      	cmp	r3, #0
 8005c32:	d00a      	beq.n	8005c4a <HAL_RCCEx_PeriphCLKConfig+0x1d6>
  {
    /* Check the parameters */
    assert_param(IS_RCC_UART4CLKSOURCE(PeriphClkInit->Uart4ClockSelection));

    /* Configure the UART4 clock source */
    __HAL_RCC_UART4_CONFIG(PeriphClkInit->Uart4ClockSelection);
 8005c34:	4b86      	ldr	r3, [pc, #536]	@ (8005e50 <HAL_RCCEx_PeriphCLKConfig+0x3dc>)
 8005c36:	f8d3 3088 	ldr.w	r3, [r3, #136]	@ 0x88
 8005c3a:	f023 02c0 	bic.w	r2, r3, #192	@ 0xc0
 8005c3e:	687b      	ldr	r3, [r7, #4]
 8005c40:	691b      	ldr	r3, [r3, #16]
 8005c42:	4983      	ldr	r1, [pc, #524]	@ (8005e50 <HAL_RCCEx_PeriphCLKConfig+0x3dc>)
 8005c44:	4313      	orrs	r3, r2
 8005c46:	f8c1 3088 	str.w	r3, [r1, #136]	@ 0x88
  }

#endif /* UART5 */

  /*-------------------------- LPUART1 clock source configuration ------------------*/
  if(((PeriphClkInit->PeriphClockSelection) & RCC_PERIPHCLK_LPUART1) == RCC_PERIPHCLK_LPUART1)
 8005c4a:	687b      	ldr	r3, [r7, #4]
 8005c4c:	681b      	ldr	r3, [r3, #0]
 8005c4e:	f003 0320 	and.w	r3, r3, #32
 8005c52:	2b00      	cmp	r3, #0
 8005c54:	d00a      	beq.n	8005c6c <HAL_RCCEx_PeriphCLKConfig+0x1f8>
  {
    /* Check the parameters */
    assert_param(IS_RCC_LPUART1CLKSOURCE(PeriphClkInit->Lpuart1ClockSelection));

    /* Configure the LPUAR1 clock source */
    __HAL_RCC_LPUART1_CONFIG(PeriphClkInit->Lpuart1ClockSelection);
 8005c56:	4b7e      	ldr	r3, [pc, #504]	@ (8005e50 <HAL_RCCEx_PeriphCLKConfig+0x3dc>)
 8005c58:	f8d3 3088 	ldr.w	r3, [r3, #136]	@ 0x88
 8005c5c:	f423 6240 	bic.w	r2, r3, #3072	@ 0xc00
 8005c60:	687b      	ldr	r3, [r7, #4]
 8005c62:	695b      	ldr	r3, [r3, #20]
 8005c64:	497a      	ldr	r1, [pc, #488]	@ (8005e50 <HAL_RCCEx_PeriphCLKConfig+0x3dc>)
 8005c66:	4313      	orrs	r3, r2
 8005c68:	f8c1 3088 	str.w	r3, [r1, #136]	@ 0x88
  }

  /*-------------------------- I2C1 clock source configuration ---------------------*/
  if(((PeriphClkInit->PeriphClockSelection) & RCC_PERIPHCLK_I2C1) == RCC_PERIPHCLK_I2C1)
 8005c6c:	687b      	ldr	r3, [r7, #4]
 8005c6e:	681b      	ldr	r3, [r3, #0]
 8005c70:	f003 0340 	and.w	r3, r3, #64	@ 0x40
 8005c74:	2b00      	cmp	r3, #0
 8005c76:	d00a      	beq.n	8005c8e <HAL_RCCEx_PeriphCLKConfig+0x21a>
  {
    /* Check the parameters */
    assert_param(IS_RCC_I2C1CLKSOURCE(PeriphClkInit->I2c1ClockSelection));

    /* Configure the I2C1 clock source */
    __HAL_RCC_I2C1_CONFIG(PeriphClkInit->I2c1ClockSelection);
 8005c78:	4b75      	ldr	r3, [pc, #468]	@ (8005e50 <HAL_RCCEx_PeriphCLKConfig+0x3dc>)
 8005c7a:	f8d3 3088 	ldr.w	r3, [r3, #136]	@ 0x88
 8005c7e:	f423 5240 	bic.w	r2, r3, #12288	@ 0x3000
 8005c82:	687b      	ldr	r3, [r7, #4]
 8005c84:	699b      	ldr	r3, [r3, #24]
 8005c86:	4972      	ldr	r1, [pc, #456]	@ (8005e50 <HAL_RCCEx_PeriphCLKConfig+0x3dc>)
 8005c88:	4313      	orrs	r3, r2
 8005c8a:	f8c1 3088 	str.w	r3, [r1, #136]	@ 0x88
  }

  /*-------------------------- I2C2 clock source configuration ---------------------*/
  if(((PeriphClkInit->PeriphClockSelection) & RCC_PERIPHCLK_I2C2) == RCC_PERIPHCLK_I2C2)
 8005c8e:	687b      	ldr	r3, [r7, #4]
 8005c90:	681b      	ldr	r3, [r3, #0]
 8005c92:	f003 0380 	and.w	r3, r3, #128	@ 0x80
 8005c96:	2b00      	cmp	r3, #0
 8005c98:	d00a      	beq.n	8005cb0 <HAL_RCCEx_PeriphCLKConfig+0x23c>
  {
    /* Check the parameters */
    assert_param(IS_RCC_I2C2CLKSOURCE(PeriphClkInit->I2c2ClockSelection));

    /* Configure the I2C2 clock source */
    __HAL_RCC_I2C2_CONFIG(PeriphClkInit->I2c2ClockSelection);
 8005c9a:	4b6d      	ldr	r3, [pc, #436]	@ (8005e50 <HAL_RCCEx_PeriphCLKConfig+0x3dc>)
 8005c9c:	f8d3 3088 	ldr.w	r3, [r3, #136]	@ 0x88
 8005ca0:	f423 4240 	bic.w	r2, r3, #49152	@ 0xc000
 8005ca4:	687b      	ldr	r3, [r7, #4]
 8005ca6:	69db      	ldr	r3, [r3, #28]
 8005ca8:	4969      	ldr	r1, [pc, #420]	@ (8005e50 <HAL_RCCEx_PeriphCLKConfig+0x3dc>)
 8005caa:	4313      	orrs	r3, r2
 8005cac:	f8c1 3088 	str.w	r3, [r1, #136]	@ 0x88
  }
#if defined(I2C3)

  /*-------------------------- I2C3 clock source configuration ---------------------*/
  if(((PeriphClkInit->PeriphClockSelection) & RCC_PERIPHCLK_I2C3) == RCC_PERIPHCLK_I2C3)
 8005cb0:	687b      	ldr	r3, [r7, #4]
 8005cb2:	681b      	ldr	r3, [r3, #0]
 8005cb4:	f403 7380 	and.w	r3, r3, #256	@ 0x100
 8005cb8:	2b00      	cmp	r3, #0
 8005cba:	d00a      	beq.n	8005cd2 <HAL_RCCEx_PeriphCLKConfig+0x25e>
  {
    /* Check the parameters */
    assert_param(IS_RCC_I2C3CLKSOURCE(PeriphClkInit->I2c3ClockSelection));

    /* Configure the I2C3 clock source */
    __HAL_RCC_I2C3_CONFIG(PeriphClkInit->I2c3ClockSelection);
 8005cbc:	4b64      	ldr	r3, [pc, #400]	@ (8005e50 <HAL_RCCEx_PeriphCLKConfig+0x3dc>)
 8005cbe:	f8d3 3088 	ldr.w	r3, [r3, #136]	@ 0x88
 8005cc2:	f423 3240 	bic.w	r2, r3, #196608	@ 0x30000
 8005cc6:	687b      	ldr	r3, [r7, #4]
 8005cc8:	6a1b      	ldr	r3, [r3, #32]
 8005cca:	4961      	ldr	r1, [pc, #388]	@ (8005e50 <HAL_RCCEx_PeriphCLKConfig+0x3dc>)
 8005ccc:	4313      	orrs	r3, r2
 8005cce:	f8c1 3088 	str.w	r3, [r1, #136]	@ 0x88
  }

#endif /* I2C4 */

  /*-------------------------- LPTIM1 clock source configuration ---------------------*/
  if(((PeriphClkInit->PeriphClockSelection) & RCC_PERIPHCLK_LPTIM1) == RCC_PERIPHCLK_LPTIM1)
 8005cd2:	687b      	ldr	r3, [r7, #4]
 8005cd4:	681b      	ldr	r3, [r3, #0]
 8005cd6:	f403 7300 	and.w	r3, r3, #512	@ 0x200
 8005cda:	2b00      	cmp	r3, #0
 8005cdc:	d00a      	beq.n	8005cf4 <HAL_RCCEx_PeriphCLKConfig+0x280>
  {
    /* Check the parameters */
    assert_param(IS_RCC_LPTIM1CLKSOURCE(PeriphClkInit->Lptim1ClockSelection));

    /* Configure the LPTIM1 clock source */
    __HAL_RCC_LPTIM1_CONFIG(PeriphClkInit->Lptim1ClockSelection);
 8005cde:	4b5c      	ldr	r3, [pc, #368]	@ (8005e50 <HAL_RCCEx_PeriphCLKConfig+0x3dc>)
 8005ce0:	f8d3 3088 	ldr.w	r3, [r3, #136]	@ 0x88
 8005ce4:	f423 2240 	bic.w	r2, r3, #786432	@ 0xc0000
 8005ce8:	687b      	ldr	r3, [r7, #4]
 8005cea:	6a5b      	ldr	r3, [r3, #36]	@ 0x24
 8005cec:	4958      	ldr	r1, [pc, #352]	@ (8005e50 <HAL_RCCEx_PeriphCLKConfig+0x3dc>)
 8005cee:	4313      	orrs	r3, r2
 8005cf0:	f8c1 3088 	str.w	r3, [r1, #136]	@ 0x88
  }

#if defined(SAI1) 
  /*-------------------------- SAI1 clock source configuration ---------------------*/
  if(((PeriphClkInit->PeriphClockSelection) & RCC_PERIPHCLK_SAI1) == RCC_PERIPHCLK_SAI1)
 8005cf4:	687b      	ldr	r3, [r7, #4]
 8005cf6:	681b      	ldr	r3, [r3, #0]
 8005cf8:	f403 6380 	and.w	r3, r3, #1024	@ 0x400
 8005cfc:	2b00      	cmp	r3, #0
 8005cfe:	d015      	beq.n	8005d2c <HAL_RCCEx_PeriphCLKConfig+0x2b8>
  {
    /* Check the parameters */
    assert_param(IS_RCC_SAI1CLKSOURCE(PeriphClkInit->Sai1ClockSelection));

    /* Configure the SAI1 interface clock source */
    __HAL_RCC_SAI1_CONFIG(PeriphClkInit->Sai1ClockSelection);
 8005d00:	4b53      	ldr	r3, [pc, #332]	@ (8005e50 <HAL_RCCEx_PeriphCLKConfig+0x3dc>)
 8005d02:	f8d3 3088 	ldr.w	r3, [r3, #136]	@ 0x88
 8005d06:	f423 1240 	bic.w	r2, r3, #3145728	@ 0x300000
 8005d0a:	687b      	ldr	r3, [r7, #4]
 8005d0c:	6a9b      	ldr	r3, [r3, #40]	@ 0x28
 8005d0e:	4950      	ldr	r1, [pc, #320]	@ (8005e50 <HAL_RCCEx_PeriphCLKConfig+0x3dc>)
 8005d10:	4313      	orrs	r3, r2
 8005d12:	f8c1 3088 	str.w	r3, [r1, #136]	@ 0x88
    
    if(PeriphClkInit->Sai1ClockSelection == RCC_SAI1CLKSOURCE_PLL)
 8005d16:	687b      	ldr	r3, [r7, #4]
 8005d18:	6a9b      	ldr	r3, [r3, #40]	@ 0x28
 8005d1a:	f5b3 1f80 	cmp.w	r3, #1048576	@ 0x100000
 8005d1e:	d105      	bne.n	8005d2c <HAL_RCCEx_PeriphCLKConfig+0x2b8>
    {
      /* Enable PLL48M1CLK output */
      __HAL_RCC_PLLCLKOUT_ENABLE(RCC_PLL_48M1CLK);
 8005d20:	4b4b      	ldr	r3, [pc, #300]	@ (8005e50 <HAL_RCCEx_PeriphCLKConfig+0x3dc>)
 8005d22:	68db      	ldr	r3, [r3, #12]
 8005d24:	4a4a      	ldr	r2, [pc, #296]	@ (8005e50 <HAL_RCCEx_PeriphCLKConfig+0x3dc>)
 8005d26:	f443 1380 	orr.w	r3, r3, #1048576	@ 0x100000
 8005d2a:	60d3      	str	r3, [r2, #12]

#endif /* SAI1 */

#if defined(SPI_I2S_SUPPORT)
  /*-------------------------- I2S clock source configuration ---------------------*/
  if(((PeriphClkInit->PeriphClockSelection) & RCC_PERIPHCLK_I2S) == RCC_PERIPHCLK_I2S)
 8005d2c:	687b      	ldr	r3, [r7, #4]
 8005d2e:	681b      	ldr	r3, [r3, #0]
 8005d30:	f403 6300 	and.w	r3, r3, #2048	@ 0x800
 8005d34:	2b00      	cmp	r3, #0
 8005d36:	d015      	beq.n	8005d64 <HAL_RCCEx_PeriphCLKConfig+0x2f0>
  {
    /* Check the parameters */
    assert_param(IS_RCC_I2SCLKSOURCE(PeriphClkInit->I2sClockSelection));

    /* Configure the I2S interface clock source */
    __HAL_RCC_I2S_CONFIG(PeriphClkInit->I2sClockSelection);
 8005d38:	4b45      	ldr	r3, [pc, #276]	@ (8005e50 <HAL_RCCEx_PeriphCLKConfig+0x3dc>)
 8005d3a:	f8d3 3088 	ldr.w	r3, [r3, #136]	@ 0x88
 8005d3e:	f423 0240 	bic.w	r2, r3, #12582912	@ 0xc00000
 8005d42:	687b      	ldr	r3, [r7, #4]
 8005d44:	6adb      	ldr	r3, [r3, #44]	@ 0x2c
 8005d46:	4942      	ldr	r1, [pc, #264]	@ (8005e50 <HAL_RCCEx_PeriphCLKConfig+0x3dc>)
 8005d48:	4313      	orrs	r3, r2
 8005d4a:	f8c1 3088 	str.w	r3, [r1, #136]	@ 0x88
    
    if(PeriphClkInit->I2sClockSelection == RCC_I2SCLKSOURCE_PLL)
 8005d4e:	687b      	ldr	r3, [r7, #4]
 8005d50:	6adb      	ldr	r3, [r3, #44]	@ 0x2c
 8005d52:	f5b3 0f80 	cmp.w	r3, #4194304	@ 0x400000
 8005d56:	d105      	bne.n	8005d64 <HAL_RCCEx_PeriphCLKConfig+0x2f0>
    {
      /* Enable PLL48M1CLK output */
      __HAL_RCC_PLLCLKOUT_ENABLE(RCC_PLL_48M1CLK);
 8005d58:	4b3d      	ldr	r3, [pc, #244]	@ (8005e50 <HAL_RCCEx_PeriphCLKConfig+0x3dc>)
 8005d5a:	68db      	ldr	r3, [r3, #12]
 8005d5c:	4a3c      	ldr	r2, [pc, #240]	@ (8005e50 <HAL_RCCEx_PeriphCLKConfig+0x3dc>)
 8005d5e:	f443 1380 	orr.w	r3, r3, #1048576	@ 0x100000
 8005d62:	60d3      	str	r3, [r2, #12]

#endif /* SPI_I2S_SUPPORT */

#if defined(FDCAN1)
  /*-------------------------- FDCAN clock source configuration ---------------------*/
  if(((PeriphClkInit->PeriphClockSelection) & RCC_PERIPHCLK_FDCAN) == RCC_PERIPHCLK_FDCAN)
 8005d64:	687b      	ldr	r3, [r7, #4]
 8005d66:	681b      	ldr	r3, [r3, #0]
 8005d68:	f403 5380 	and.w	r3, r3, #4096	@ 0x1000
 8005d6c:	2b00      	cmp	r3, #0
 8005d6e:	d015      	beq.n	8005d9c <HAL_RCCEx_PeriphCLKConfig+0x328>
  {
    /* Check the parameters */
    assert_param(IS_RCC_FDCANCLKSOURCE(PeriphClkInit->FdcanClockSelection));

    /* Configure the FDCAN interface clock source */
    __HAL_RCC_FDCAN_CONFIG(PeriphClkInit->FdcanClockSelection);
 8005d70:	4b37      	ldr	r3, [pc, #220]	@ (8005e50 <HAL_RCCEx_PeriphCLKConfig+0x3dc>)
 8005d72:	f8d3 3088 	ldr.w	r3, [r3, #136]	@ 0x88
 8005d76:	f023 7240 	bic.w	r2, r3, #50331648	@ 0x3000000
 8005d7a:	687b      	ldr	r3, [r7, #4]
 8005d7c:	6b1b      	ldr	r3, [r3, #48]	@ 0x30
 8005d7e:	4934      	ldr	r1, [pc, #208]	@ (8005e50 <HAL_RCCEx_PeriphCLKConfig+0x3dc>)
 8005d80:	4313      	orrs	r3, r2
 8005d82:	f8c1 3088 	str.w	r3, [r1, #136]	@ 0x88
    
    if(PeriphClkInit->FdcanClockSelection == RCC_FDCANCLKSOURCE_PLL)
 8005d86:	687b      	ldr	r3, [r7, #4]
 8005d88:	6b1b      	ldr	r3, [r3, #48]	@ 0x30
 8005d8a:	f1b3 7f80 	cmp.w	r3, #16777216	@ 0x1000000
 8005d8e:	d105      	bne.n	8005d9c <HAL_RCCEx_PeriphCLKConfig+0x328>
    {
      /* Enable PLL48M1CLK output */
      __HAL_RCC_PLLCLKOUT_ENABLE(RCC_PLL_48M1CLK);
 8005d90:	4b2f      	ldr	r3, [pc, #188]	@ (8005e50 <HAL_RCCEx_PeriphCLKConfig+0x3dc>)
 8005d92:	68db      	ldr	r3, [r3, #12]
 8005d94:	4a2e      	ldr	r2, [pc, #184]	@ (8005e50 <HAL_RCCEx_PeriphCLKConfig+0x3dc>)
 8005d96:	f443 1380 	orr.w	r3, r3, #1048576	@ 0x100000
 8005d9a:	60d3      	str	r3, [r2, #12]
#endif /* FDCAN1 */

#if defined(USB)

  /*-------------------------- USB clock source configuration ----------------------*/
  if(((PeriphClkInit->PeriphClockSelection) & RCC_PERIPHCLK_USB) == (RCC_PERIPHCLK_USB))
 8005d9c:	687b      	ldr	r3, [r7, #4]
 8005d9e:	681b      	ldr	r3, [r3, #0]
 8005da0:	f403 5300 	and.w	r3, r3, #8192	@ 0x2000
 8005da4:	2b00      	cmp	r3, #0
 8005da6:	d015      	beq.n	8005dd4 <HAL_RCCEx_PeriphCLKConfig+0x360>
  {
    assert_param(IS_RCC_USBCLKSOURCE(PeriphClkInit->UsbClockSelection));
    __HAL_RCC_USB_CONFIG(PeriphClkInit->UsbClockSelection);
 8005da8:	4b29      	ldr	r3, [pc, #164]	@ (8005e50 <HAL_RCCEx_PeriphCLKConfig+0x3dc>)
 8005daa:	f8d3 3088 	ldr.w	r3, [r3, #136]	@ 0x88
 8005dae:	f023 6240 	bic.w	r2, r3, #201326592	@ 0xc000000
 8005db2:	687b      	ldr	r3, [r7, #4]
 8005db4:	6b5b      	ldr	r3, [r3, #52]	@ 0x34
 8005db6:	4926      	ldr	r1, [pc, #152]	@ (8005e50 <HAL_RCCEx_PeriphCLKConfig+0x3dc>)
 8005db8:	4313      	orrs	r3, r2
 8005dba:	f8c1 3088 	str.w	r3, [r1, #136]	@ 0x88

    if(PeriphClkInit->UsbClockSelection == RCC_USBCLKSOURCE_PLL)
 8005dbe:	687b      	ldr	r3, [r7, #4]
 8005dc0:	6b5b      	ldr	r3, [r3, #52]	@ 0x34
 8005dc2:	f1b3 6f00 	cmp.w	r3, #134217728	@ 0x8000000
 8005dc6:	d105      	bne.n	8005dd4 <HAL_RCCEx_PeriphCLKConfig+0x360>
    {
      /* Enable PLL48M1CLK output */
      __HAL_RCC_PLLCLKOUT_ENABLE(RCC_PLL_48M1CLK);
 8005dc8:	4b21      	ldr	r3, [pc, #132]	@ (8005e50 <HAL_RCCEx_PeriphCLKConfig+0x3dc>)
 8005dca:	68db      	ldr	r3, [r3, #12]
 8005dcc:	4a20      	ldr	r2, [pc, #128]	@ (8005e50 <HAL_RCCEx_PeriphCLKConfig+0x3dc>)
 8005dce:	f443 1380 	orr.w	r3, r3, #1048576	@ 0x100000
 8005dd2:	60d3      	str	r3, [r2, #12]
  }

#endif /* USB */

  /*-------------------------- RNG clock source configuration ----------------------*/
  if(((PeriphClkInit->PeriphClockSelection) & RCC_PERIPHCLK_RNG) == (RCC_PERIPHCLK_RNG))
 8005dd4:	687b      	ldr	r3, [r7, #4]
 8005dd6:	681b      	ldr	r3, [r3, #0]
 8005dd8:	f403 4380 	and.w	r3, r3, #16384	@ 0x4000
 8005ddc:	2b00      	cmp	r3, #0
 8005dde:	d015      	beq.n	8005e0c <HAL_RCCEx_PeriphCLKConfig+0x398>
  {
    assert_param(IS_RCC_RNGCLKSOURCE(PeriphClkInit->RngClockSelection));
    __HAL_RCC_RNG_CONFIG(PeriphClkInit->RngClockSelection);
 8005de0:	4b1b      	ldr	r3, [pc, #108]	@ (8005e50 <HAL_RCCEx_PeriphCLKConfig+0x3dc>)
 8005de2:	f8d3 3088 	ldr.w	r3, [r3, #136]	@ 0x88
 8005de6:	f023 6240 	bic.w	r2, r3, #201326592	@ 0xc000000
 8005dea:	687b      	ldr	r3, [r7, #4]
 8005dec:	6b9b      	ldr	r3, [r3, #56]	@ 0x38
 8005dee:	4918      	ldr	r1, [pc, #96]	@ (8005e50 <HAL_RCCEx_PeriphCLKConfig+0x3dc>)
 8005df0:	4313      	orrs	r3, r2
 8005df2:	f8c1 3088 	str.w	r3, [r1, #136]	@ 0x88

    if(PeriphClkInit->RngClockSelection == RCC_RNGCLKSOURCE_PLL)
 8005df6:	687b      	ldr	r3, [r7, #4]
 8005df8:	6b9b      	ldr	r3, [r3, #56]	@ 0x38
 8005dfa:	f1b3 6f00 	cmp.w	r3, #134217728	@ 0x8000000
 8005dfe:	d105      	bne.n	8005e0c <HAL_RCCEx_PeriphCLKConfig+0x398>
    {
      /* Enable PLL48M1CLK output */
      __HAL_RCC_PLLCLKOUT_ENABLE(RCC_PLL_48M1CLK);
 8005e00:	4b13      	ldr	r3, [pc, #76]	@ (8005e50 <HAL_RCCEx_PeriphCLKConfig+0x3dc>)
 8005e02:	68db      	ldr	r3, [r3, #12]
 8005e04:	4a12      	ldr	r2, [pc, #72]	@ (8005e50 <HAL_RCCEx_PeriphCLKConfig+0x3dc>)
 8005e06:	f443 1380 	orr.w	r3, r3, #1048576	@ 0x100000
 8005e0a:	60d3      	str	r3, [r2, #12]
    }
  }

  /*-------------------------- ADC12 clock source configuration ----------------------*/
  if(((PeriphClkInit->PeriphClockSelection) & RCC_PERIPHCLK_ADC12) == RCC_PERIPHCLK_ADC12)
 8005e0c:	687b      	ldr	r3, [r7, #4]
 8005e0e:	681b      	ldr	r3, [r3, #0]
 8005e10:	f403 4300 	and.w	r3, r3, #32768	@ 0x8000
 8005e14:	2b00      	cmp	r3, #0
 8005e16:	d015      	beq.n	8005e44 <HAL_RCCEx_PeriphCLKConfig+0x3d0>
  {
    /* Check the parameters */
    assert_param(IS_RCC_ADC12CLKSOURCE(PeriphClkInit->Adc12ClockSelection));

    /* Configure the ADC12 interface clock source */
    __HAL_RCC_ADC12_CONFIG(PeriphClkInit->Adc12ClockSelection);
 8005e18:	4b0d      	ldr	r3, [pc, #52]	@ (8005e50 <HAL_RCCEx_PeriphCLKConfig+0x3dc>)
 8005e1a:	f8d3 3088 	ldr.w	r3, [r3, #136]	@ 0x88
 8005e1e:	f023 5240 	bic.w	r2, r3, #805306368	@ 0x30000000
 8005e22:	687b      	ldr	r3, [r7, #4]
 8005e24:	6bdb      	ldr	r3, [r3, #60]	@ 0x3c
 8005e26:	490a      	ldr	r1, [pc, #40]	@ (8005e50 <HAL_RCCEx_PeriphCLKConfig+0x3dc>)
 8005e28:	4313      	orrs	r3, r2
 8005e2a:	f8c1 3088 	str.w	r3, [r1, #136]	@ 0x88
    
    if(PeriphClkInit->Adc12ClockSelection == RCC_ADC12CLKSOURCE_PLL)
 8005e2e:	687b      	ldr	r3, [r7, #4]
 8005e30:	6bdb      	ldr	r3, [r3, #60]	@ 0x3c
 8005e32:	f1b3 5f80 	cmp.w	r3, #268435456	@ 0x10000000
 8005e36:	d105      	bne.n	8005e44 <HAL_RCCEx_PeriphCLKConfig+0x3d0>
    {
      /* Enable PLLADCCLK output */
      __HAL_RCC_PLLCLKOUT_ENABLE(RCC_PLL_ADCCLK);
 8005e38:	4b05      	ldr	r3, [pc, #20]	@ (8005e50 <HAL_RCCEx_PeriphCLKConfig+0x3dc>)
 8005e3a:	68db      	ldr	r3, [r3, #12]
 8005e3c:	4a04      	ldr	r2, [pc, #16]	@ (8005e50 <HAL_RCCEx_PeriphCLKConfig+0x3dc>)
 8005e3e:	f443 3380 	orr.w	r3, r3, #65536	@ 0x10000
 8005e42:	60d3      	str	r3, [r2, #12]
    }
  }

#endif /* QUADSPI */

  return status;
 8005e44:	7cbb      	ldrb	r3, [r7, #18]
}
 8005e46:	4618      	mov	r0, r3
 8005e48:	3718      	adds	r7, #24
 8005e4a:	46bd      	mov	sp, r7
 8005e4c:	bd80      	pop	{r7, pc}
 8005e4e:	bf00      	nop
 8005e50:	40021000 	.word	0x40021000

08005e54 <HAL_SPI_Init>:
  * @param  hspi pointer to a SPI_HandleTypeDef structure that contains
  *               the configuration information for SPI module.
  * @retval HAL status
  */
HAL_StatusTypeDef HAL_SPI_Init(SPI_HandleTypeDef *hspi)
{
 8005e54:	b580      	push	{r7, lr}
 8005e56:	b084      	sub	sp, #16
 8005e58:	af00      	add	r7, sp, #0
 8005e5a:	6078      	str	r0, [r7, #4]
  uint32_t frxth;

  /* Check the SPI handle allocation */
  if (hspi == NULL)
 8005e5c:	687b      	ldr	r3, [r7, #4]
 8005e5e:	2b00      	cmp	r3, #0
 8005e60:	d101      	bne.n	8005e66 <HAL_SPI_Init+0x12>
  {
    return HAL_ERROR;
 8005e62:	2301      	movs	r3, #1
 8005e64:	e09d      	b.n	8005fa2 <HAL_SPI_Init+0x14e>
  assert_param(IS_SPI_NSS(hspi->Init.NSS));
  assert_param(IS_SPI_NSSP(hspi->Init.NSSPMode));
  assert_param(IS_SPI_BAUDRATE_PRESCALER(hspi->Init.BaudRatePrescaler));
  assert_param(IS_SPI_FIRST_BIT(hspi->Init.FirstBit));
  assert_param(IS_SPI_TIMODE(hspi->Init.TIMode));
  if (hspi->Init.TIMode == SPI_TIMODE_DISABLE)
 8005e66:	687b      	ldr	r3, [r7, #4]
 8005e68:	6a5b      	ldr	r3, [r3, #36]	@ 0x24
 8005e6a:	2b00      	cmp	r3, #0
 8005e6c:	d108      	bne.n	8005e80 <HAL_SPI_Init+0x2c>
  {
    assert_param(IS_SPI_CPOL(hspi->Init.CLKPolarity));
    assert_param(IS_SPI_CPHA(hspi->Init.CLKPhase));

    if (hspi->Init.Mode == SPI_MODE_MASTER)
 8005e6e:	687b      	ldr	r3, [r7, #4]
 8005e70:	685b      	ldr	r3, [r3, #4]
 8005e72:	f5b3 7f82 	cmp.w	r3, #260	@ 0x104
 8005e76:	d009      	beq.n	8005e8c <HAL_SPI_Init+0x38>
      assert_param(IS_SPI_BAUDRATE_PRESCALER(hspi->Init.BaudRatePrescaler));
    }
    else
    {
      /* Baudrate prescaler not use in Motoraola Slave mode. force to default value */
      hspi->Init.BaudRatePrescaler = SPI_BAUDRATEPRESCALER_2;
 8005e78:	687b      	ldr	r3, [r7, #4]
 8005e7a:	2200      	movs	r2, #0
 8005e7c:	61da      	str	r2, [r3, #28]
 8005e7e:	e005      	b.n	8005e8c <HAL_SPI_Init+0x38>
  else
  {
    assert_param(IS_SPI_BAUDRATE_PRESCALER(hspi->Init.BaudRatePrescaler));

    /* Force polarity and phase to TI protocaol requirements */
    hspi->Init.CLKPolarity = SPI_POLARITY_LOW;
 8005e80:	687b      	ldr	r3, [r7, #4]
 8005e82:	2200      	movs	r2, #0
 8005e84:	611a      	str	r2, [r3, #16]
    hspi->Init.CLKPhase    = SPI_PHASE_1EDGE;
 8005e86:	687b      	ldr	r3, [r7, #4]
 8005e88:	2200      	movs	r2, #0
 8005e8a:	615a      	str	r2, [r3, #20]
  {
    assert_param(IS_SPI_CRC_POLYNOMIAL(hspi->Init.CRCPolynomial));
    assert_param(IS_SPI_CRC_LENGTH(hspi->Init.CRCLength));
  }
#else
  hspi->Init.CRCCalculation = SPI_CRCCALCULATION_DISABLE;
 8005e8c:	687b      	ldr	r3, [r7, #4]
 8005e8e:	2200      	movs	r2, #0
 8005e90:	629a      	str	r2, [r3, #40]	@ 0x28
#endif /* USE_SPI_CRC */

  if (hspi->State == HAL_SPI_STATE_RESET)
 8005e92:	687b      	ldr	r3, [r7, #4]
 8005e94:	f893 305d 	ldrb.w	r3, [r3, #93]	@ 0x5d
 8005e98:	b2db      	uxtb	r3, r3
 8005e9a:	2b00      	cmp	r3, #0
 8005e9c:	d106      	bne.n	8005eac <HAL_SPI_Init+0x58>
  {
    /* Allocate lock resource and initialize it */
    hspi->Lock = HAL_UNLOCKED;
 8005e9e:	687b      	ldr	r3, [r7, #4]
 8005ea0:	2200      	movs	r2, #0
 8005ea2:	f883 205c 	strb.w	r2, [r3, #92]	@ 0x5c

    /* Init the low level hardware : GPIO, CLOCK, NVIC... */
    hspi->MspInitCallback(hspi);
#else
    /* Init the low level hardware : GPIO, CLOCK, NVIC... */
    HAL_SPI_MspInit(hspi);
 8005ea6:	6878      	ldr	r0, [r7, #4]
 8005ea8:	f7fe f8ae 	bl	8004008 <HAL_SPI_MspInit>
#endif /* USE_HAL_SPI_REGISTER_CALLBACKS */
  }

  hspi->State = HAL_SPI_STATE_BUSY;
 8005eac:	687b      	ldr	r3, [r7, #4]
 8005eae:	2202      	movs	r2, #2
 8005eb0:	f883 205d 	strb.w	r2, [r3, #93]	@ 0x5d

  /* Disable the selected SPI peripheral */
  __HAL_SPI_DISABLE(hspi);
 8005eb4:	687b      	ldr	r3, [r7, #4]
 8005eb6:	681b      	ldr	r3, [r3, #0]
 8005eb8:	681a      	ldr	r2, [r3, #0]
 8005eba:	687b      	ldr	r3, [r7, #4]
 8005ebc:	681b      	ldr	r3, [r3, #0]
 8005ebe:	f022 0240 	bic.w	r2, r2, #64	@ 0x40
 8005ec2:	601a      	str	r2, [r3, #0]

  /* Align by default the rs fifo threshold on the data size */
  if (hspi->Init.DataSize > SPI_DATASIZE_8BIT)
 8005ec4:	687b      	ldr	r3, [r7, #4]
 8005ec6:	68db      	ldr	r3, [r3, #12]
 8005ec8:	f5b3 6fe0 	cmp.w	r3, #1792	@ 0x700
 8005ecc:	d902      	bls.n	8005ed4 <HAL_SPI_Init+0x80>
  {
    frxth = SPI_RXFIFO_THRESHOLD_HF;
 8005ece:	2300      	movs	r3, #0
 8005ed0:	60fb      	str	r3, [r7, #12]
 8005ed2:	e002      	b.n	8005eda <HAL_SPI_Init+0x86>
  }
  else
  {
    frxth = SPI_RXFIFO_THRESHOLD_QF;
 8005ed4:	f44f 5380 	mov.w	r3, #4096	@ 0x1000
 8005ed8:	60fb      	str	r3, [r7, #12]
  }

  /* CRC calculation is valid only for 16Bit and 8 Bit */
  if ((hspi->Init.DataSize != SPI_DATASIZE_16BIT) && (hspi->Init.DataSize != SPI_DATASIZE_8BIT))
 8005eda:	687b      	ldr	r3, [r7, #4]
 8005edc:	68db      	ldr	r3, [r3, #12]
 8005ede:	f5b3 6f70 	cmp.w	r3, #3840	@ 0xf00
 8005ee2:	d007      	beq.n	8005ef4 <HAL_SPI_Init+0xa0>
 8005ee4:	687b      	ldr	r3, [r7, #4]
 8005ee6:	68db      	ldr	r3, [r3, #12]
 8005ee8:	f5b3 6fe0 	cmp.w	r3, #1792	@ 0x700
 8005eec:	d002      	beq.n	8005ef4 <HAL_SPI_Init+0xa0>
  {
    /* CRC must be disabled */
    hspi->Init.CRCCalculation = SPI_CRCCALCULATION_DISABLE;
 8005eee:	687b      	ldr	r3, [r7, #4]
 8005ef0:	2200      	movs	r2, #0
 8005ef2:	629a      	str	r2, [r3, #40]	@ 0x28
  }

  /*----------------------- SPIx CR1 & CR2 Configuration ---------------------*/
  /* Configure : SPI Mode, Communication Mode, Clock polarity and phase, NSS management,
  Communication speed, First bit and CRC calculation state */
  WRITE_REG(hspi->Instance->CR1, ((hspi->Init.Mode & (SPI_CR1_MSTR | SPI_CR1_SSI)) |
 8005ef4:	687b      	ldr	r3, [r7, #4]
 8005ef6:	685b      	ldr	r3, [r3, #4]
 8005ef8:	f403 7282 	and.w	r2, r3, #260	@ 0x104
 8005efc:	687b      	ldr	r3, [r7, #4]
 8005efe:	689b      	ldr	r3, [r3, #8]
 8005f00:	f403 4304 	and.w	r3, r3, #33792	@ 0x8400
 8005f04:	431a      	orrs	r2, r3
 8005f06:	687b      	ldr	r3, [r7, #4]
 8005f08:	691b      	ldr	r3, [r3, #16]
 8005f0a:	f003 0302 	and.w	r3, r3, #2
 8005f0e:	431a      	orrs	r2, r3
 8005f10:	687b      	ldr	r3, [r7, #4]
 8005f12:	695b      	ldr	r3, [r3, #20]
 8005f14:	f003 0301 	and.w	r3, r3, #1
 8005f18:	431a      	orrs	r2, r3
 8005f1a:	687b      	ldr	r3, [r7, #4]
 8005f1c:	699b      	ldr	r3, [r3, #24]
 8005f1e:	f403 7300 	and.w	r3, r3, #512	@ 0x200
 8005f22:	431a      	orrs	r2, r3
 8005f24:	687b      	ldr	r3, [r7, #4]
 8005f26:	69db      	ldr	r3, [r3, #28]
 8005f28:	f003 0338 	and.w	r3, r3, #56	@ 0x38
 8005f2c:	431a      	orrs	r2, r3
 8005f2e:	687b      	ldr	r3, [r7, #4]
 8005f30:	6a1b      	ldr	r3, [r3, #32]
 8005f32:	f003 0380 	and.w	r3, r3, #128	@ 0x80
 8005f36:	ea42 0103 	orr.w	r1, r2, r3
 8005f3a:	687b      	ldr	r3, [r7, #4]
 8005f3c:	6a9b      	ldr	r3, [r3, #40]	@ 0x28
 8005f3e:	f403 5200 	and.w	r2, r3, #8192	@ 0x2000
 8005f42:	687b      	ldr	r3, [r7, #4]
 8005f44:	681b      	ldr	r3, [r3, #0]
 8005f46:	430a      	orrs	r2, r1
 8005f48:	601a      	str	r2, [r3, #0]
    }
  }
#endif /* USE_SPI_CRC */

  /* Configure : NSS management, TI Mode, NSS Pulse, Data size and Rx Fifo threshold */
  WRITE_REG(hspi->Instance->CR2, (((hspi->Init.NSS >> 16U) & SPI_CR2_SSOE) |
 8005f4a:	687b      	ldr	r3, [r7, #4]
 8005f4c:	699b      	ldr	r3, [r3, #24]
 8005f4e:	0c1b      	lsrs	r3, r3, #16
 8005f50:	f003 0204 	and.w	r2, r3, #4
 8005f54:	687b      	ldr	r3, [r7, #4]
 8005f56:	6a5b      	ldr	r3, [r3, #36]	@ 0x24
 8005f58:	f003 0310 	and.w	r3, r3, #16
 8005f5c:	431a      	orrs	r2, r3
 8005f5e:	687b      	ldr	r3, [r7, #4]
 8005f60:	6b5b      	ldr	r3, [r3, #52]	@ 0x34
 8005f62:	f003 0308 	and.w	r3, r3, #8
 8005f66:	431a      	orrs	r2, r3
 8005f68:	687b      	ldr	r3, [r7, #4]
 8005f6a:	68db      	ldr	r3, [r3, #12]
 8005f6c:	f403 6370 	and.w	r3, r3, #3840	@ 0xf00
 8005f70:	ea42 0103 	orr.w	r1, r2, r3
 8005f74:	68fb      	ldr	r3, [r7, #12]
 8005f76:	f403 5280 	and.w	r2, r3, #4096	@ 0x1000
 8005f7a:	687b      	ldr	r3, [r7, #4]
 8005f7c:	681b      	ldr	r3, [r3, #0]
 8005f7e:	430a      	orrs	r2, r1
 8005f80:	605a      	str	r2, [r3, #4]
  }
#endif /* USE_SPI_CRC */

#if defined(SPI_I2SCFGR_I2SMOD)
  /* Activate the SPI mode (Make sure that I2SMOD bit in I2SCFGR register is reset) */
  CLEAR_BIT(hspi->Instance->I2SCFGR, SPI_I2SCFGR_I2SMOD);
 8005f82:	687b      	ldr	r3, [r7, #4]
 8005f84:	681b      	ldr	r3, [r3, #0]
 8005f86:	69da      	ldr	r2, [r3, #28]
 8005f88:	687b      	ldr	r3, [r7, #4]
 8005f8a:	681b      	ldr	r3, [r3, #0]
 8005f8c:	f422 6200 	bic.w	r2, r2, #2048	@ 0x800
 8005f90:	61da      	str	r2, [r3, #28]
#endif /* SPI_I2SCFGR_I2SMOD */

  hspi->ErrorCode = HAL_SPI_ERROR_NONE;
 8005f92:	687b      	ldr	r3, [r7, #4]
 8005f94:	2200      	movs	r2, #0
 8005f96:	661a      	str	r2, [r3, #96]	@ 0x60
  hspi->State     = HAL_SPI_STATE_READY;
 8005f98:	687b      	ldr	r3, [r7, #4]
 8005f9a:	2201      	movs	r2, #1
 8005f9c:	f883 205d 	strb.w	r2, [r3, #93]	@ 0x5d

  return HAL_OK;
 8005fa0:	2300      	movs	r3, #0
}
 8005fa2:	4618      	mov	r0, r3
 8005fa4:	3710      	adds	r7, #16
 8005fa6:	46bd      	mov	sp, r7
 8005fa8:	bd80      	pop	{r7, pc}

08005faa <HAL_SPI_TransmitReceive>:
  * @param  Timeout Timeout duration in ms
  * @retval HAL status
  */
HAL_StatusTypeDef HAL_SPI_TransmitReceive(SPI_HandleTypeDef *hspi, const uint8_t *pTxData, uint8_t *pRxData,
                                          uint16_t Size, uint32_t Timeout)
{
 8005faa:	b580      	push	{r7, lr}
 8005fac:	b08a      	sub	sp, #40	@ 0x28
 8005fae:	af00      	add	r7, sp, #0
 8005fb0:	60f8      	str	r0, [r7, #12]
 8005fb2:	60b9      	str	r1, [r7, #8]
 8005fb4:	607a      	str	r2, [r7, #4]
 8005fb6:	807b      	strh	r3, [r7, #2]
  __IO uint8_t  *ptmpreg8;
  __IO uint8_t  tmpreg8 = 0;
#endif /* USE_SPI_CRC */

  /* Variable used to alternate Rx and Tx during transfer */
  uint32_t             txallowed = 1U;
 8005fb8:	2301      	movs	r3, #1
 8005fba:	627b      	str	r3, [r7, #36]	@ 0x24

  /* Check Direction parameter */
  assert_param(IS_SPI_DIRECTION_2LINES(hspi->Init.Direction));

  /* Init tickstart for timeout management*/
  tickstart = HAL_GetTick();
 8005fbc:	f7fe fa9e 	bl	80044fc <HAL_GetTick>
 8005fc0:	6238      	str	r0, [r7, #32]

  /* Init temporary variables */
  tmp_state           = hspi->State;
 8005fc2:	68fb      	ldr	r3, [r7, #12]
 8005fc4:	f893 305d 	ldrb.w	r3, [r3, #93]	@ 0x5d
 8005fc8:	77fb      	strb	r3, [r7, #31]
  tmp_mode            = hspi->Init.Mode;
 8005fca:	68fb      	ldr	r3, [r7, #12]
 8005fcc:	685b      	ldr	r3, [r3, #4]
 8005fce:	61bb      	str	r3, [r7, #24]
  initial_TxXferCount = Size;
 8005fd0:	887b      	ldrh	r3, [r7, #2]
 8005fd2:	82fb      	strh	r3, [r7, #22]
  initial_RxXferCount = Size;
 8005fd4:	887b      	ldrh	r3, [r7, #2]
 8005fd6:	82bb      	strh	r3, [r7, #20]
#if (USE_SPI_CRC != 0U)
  spi_cr1             = READ_REG(hspi->Instance->CR1);
  spi_cr2             = READ_REG(hspi->Instance->CR2);
#endif /* USE_SPI_CRC */

  if (!((tmp_state == HAL_SPI_STATE_READY) || \
 8005fd8:	7ffb      	ldrb	r3, [r7, #31]
 8005fda:	2b01      	cmp	r3, #1
 8005fdc:	d00c      	beq.n	8005ff8 <HAL_SPI_TransmitReceive+0x4e>
 8005fde:	69bb      	ldr	r3, [r7, #24]
 8005fe0:	f5b3 7f82 	cmp.w	r3, #260	@ 0x104
 8005fe4:	d106      	bne.n	8005ff4 <HAL_SPI_TransmitReceive+0x4a>
        ((tmp_mode == SPI_MODE_MASTER) && (hspi->Init.Direction == SPI_DIRECTION_2LINES) &&
 8005fe6:	68fb      	ldr	r3, [r7, #12]
 8005fe8:	689b      	ldr	r3, [r3, #8]
 8005fea:	2b00      	cmp	r3, #0
 8005fec:	d102      	bne.n	8005ff4 <HAL_SPI_TransmitReceive+0x4a>
 8005fee:	7ffb      	ldrb	r3, [r7, #31]
 8005ff0:	2b04      	cmp	r3, #4
 8005ff2:	d001      	beq.n	8005ff8 <HAL_SPI_TransmitReceive+0x4e>
         (tmp_state == HAL_SPI_STATE_BUSY_RX))))
  {
    return HAL_BUSY;
 8005ff4:	2302      	movs	r3, #2
 8005ff6:	e1f3      	b.n	80063e0 <HAL_SPI_TransmitReceive+0x436>
  }

  if ((pTxData == NULL) || (pRxData == NULL) || (Size == 0U))
 8005ff8:	68bb      	ldr	r3, [r7, #8]
 8005ffa:	2b00      	cmp	r3, #0
 8005ffc:	d005      	beq.n	800600a <HAL_SPI_TransmitReceive+0x60>
 8005ffe:	687b      	ldr	r3, [r7, #4]
 8006000:	2b00      	cmp	r3, #0
 8006002:	d002      	beq.n	800600a <HAL_SPI_TransmitReceive+0x60>
 8006004:	887b      	ldrh	r3, [r7, #2]
 8006006:	2b00      	cmp	r3, #0
 8006008:	d101      	bne.n	800600e <HAL_SPI_TransmitReceive+0x64>
  {
    return HAL_ERROR;
 800600a:	2301      	movs	r3, #1
 800600c:	e1e8      	b.n	80063e0 <HAL_SPI_TransmitReceive+0x436>
  }

  /* Process Locked */
  __HAL_LOCK(hspi);
 800600e:	68fb      	ldr	r3, [r7, #12]
 8006010:	f893 305c 	ldrb.w	r3, [r3, #92]	@ 0x5c
 8006014:	2b01      	cmp	r3, #1
 8006016:	d101      	bne.n	800601c <HAL_SPI_TransmitReceive+0x72>
 8006018:	2302      	movs	r3, #2
 800601a:	e1e1      	b.n	80063e0 <HAL_SPI_TransmitReceive+0x436>
 800601c:	68fb      	ldr	r3, [r7, #12]
 800601e:	2201      	movs	r2, #1
 8006020:	f883 205c 	strb.w	r2, [r3, #92]	@ 0x5c

  /* Don't overwrite in case of HAL_SPI_STATE_BUSY_RX */
  if (hspi->State != HAL_SPI_STATE_BUSY_RX)
 8006024:	68fb      	ldr	r3, [r7, #12]
 8006026:	f893 305d 	ldrb.w	r3, [r3, #93]	@ 0x5d
 800602a:	b2db      	uxtb	r3, r3
 800602c:	2b04      	cmp	r3, #4
 800602e:	d003      	beq.n	8006038 <HAL_SPI_TransmitReceive+0x8e>
  {
    hspi->State = HAL_SPI_STATE_BUSY_TX_RX;
 8006030:	68fb      	ldr	r3, [r7, #12]
 8006032:	2205      	movs	r2, #5
 8006034:	f883 205d 	strb.w	r2, [r3, #93]	@ 0x5d
  }

  /* Set the transaction information */
  hspi->ErrorCode   = HAL_SPI_ERROR_NONE;
 8006038:	68fb      	ldr	r3, [r7, #12]
 800603a:	2200      	movs	r2, #0
 800603c:	661a      	str	r2, [r3, #96]	@ 0x60
  hspi->pRxBuffPtr  = (uint8_t *)pRxData;
 800603e:	68fb      	ldr	r3, [r7, #12]
 8006040:	687a      	ldr	r2, [r7, #4]
 8006042:	641a      	str	r2, [r3, #64]	@ 0x40
  hspi->RxXferCount = Size;
 8006044:	68fb      	ldr	r3, [r7, #12]
 8006046:	887a      	ldrh	r2, [r7, #2]
 8006048:	f8a3 2046 	strh.w	r2, [r3, #70]	@ 0x46
  hspi->RxXferSize  = Size;
 800604c:	68fb      	ldr	r3, [r7, #12]
 800604e:	887a      	ldrh	r2, [r7, #2]
 8006050:	f8a3 2044 	strh.w	r2, [r3, #68]	@ 0x44
  hspi->pTxBuffPtr  = (const uint8_t *)pTxData;
 8006054:	68fb      	ldr	r3, [r7, #12]
 8006056:	68ba      	ldr	r2, [r7, #8]
 8006058:	639a      	str	r2, [r3, #56]	@ 0x38
  hspi->TxXferCount = Size;
 800605a:	68fb      	ldr	r3, [r7, #12]
 800605c:	887a      	ldrh	r2, [r7, #2]
 800605e:	87da      	strh	r2, [r3, #62]	@ 0x3e
  hspi->TxXferSize  = Size;
 8006060:	68fb      	ldr	r3, [r7, #12]
 8006062:	887a      	ldrh	r2, [r7, #2]
 8006064:	879a      	strh	r2, [r3, #60]	@ 0x3c

  /*Init field not used in handle to zero */
  hspi->RxISR       = NULL;
 8006066:	68fb      	ldr	r3, [r7, #12]
 8006068:	2200      	movs	r2, #0
 800606a:	64da      	str	r2, [r3, #76]	@ 0x4c
  hspi->TxISR       = NULL;
 800606c:	68fb      	ldr	r3, [r7, #12]
 800606e:	2200      	movs	r2, #0
 8006070:	651a      	str	r2, [r3, #80]	@ 0x50
    SPI_RESET_CRC(hspi);
  }
#endif /* USE_SPI_CRC */

  /* Set the Rx Fifo threshold */
  if ((hspi->Init.DataSize > SPI_DATASIZE_8BIT) || (initial_RxXferCount > 1U))
 8006072:	68fb      	ldr	r3, [r7, #12]
 8006074:	68db      	ldr	r3, [r3, #12]
 8006076:	f5b3 6fe0 	cmp.w	r3, #1792	@ 0x700
 800607a:	d802      	bhi.n	8006082 <HAL_SPI_TransmitReceive+0xd8>
 800607c:	8abb      	ldrh	r3, [r7, #20]
 800607e:	2b01      	cmp	r3, #1
 8006080:	d908      	bls.n	8006094 <HAL_SPI_TransmitReceive+0xea>
  {
    /* Set fiforxthreshold according the reception data length: 16bit */
    CLEAR_BIT(hspi->Instance->CR2, SPI_RXFIFO_THRESHOLD);
 8006082:	68fb      	ldr	r3, [r7, #12]
 8006084:	681b      	ldr	r3, [r3, #0]
 8006086:	685a      	ldr	r2, [r3, #4]
 8006088:	68fb      	ldr	r3, [r7, #12]
 800608a:	681b      	ldr	r3, [r3, #0]
 800608c:	f422 5280 	bic.w	r2, r2, #4096	@ 0x1000
 8006090:	605a      	str	r2, [r3, #4]
 8006092:	e007      	b.n	80060a4 <HAL_SPI_TransmitReceive+0xfa>
  }
  else
  {
    /* Set fiforxthreshold according the reception data length: 8bit */
    SET_BIT(hspi->Instance->CR2, SPI_RXFIFO_THRESHOLD);
 8006094:	68fb      	ldr	r3, [r7, #12]
 8006096:	681b      	ldr	r3, [r3, #0]
 8006098:	685a      	ldr	r2, [r3, #4]
 800609a:	68fb      	ldr	r3, [r7, #12]
 800609c:	681b      	ldr	r3, [r3, #0]
 800609e:	f442 5280 	orr.w	r2, r2, #4096	@ 0x1000
 80060a2:	605a      	str	r2, [r3, #4]
  }

  /* Check if the SPI is already enabled */
  if ((hspi->Instance->CR1 & SPI_CR1_SPE) != SPI_CR1_SPE)
 80060a4:	68fb      	ldr	r3, [r7, #12]
 80060a6:	681b      	ldr	r3, [r3, #0]
 80060a8:	681b      	ldr	r3, [r3, #0]
 80060aa:	f003 0340 	and.w	r3, r3, #64	@ 0x40
 80060ae:	2b40      	cmp	r3, #64	@ 0x40
 80060b0:	d007      	beq.n	80060c2 <HAL_SPI_TransmitReceive+0x118>
  {
    /* Enable SPI peripheral */
    __HAL_SPI_ENABLE(hspi);
 80060b2:	68fb      	ldr	r3, [r7, #12]
 80060b4:	681b      	ldr	r3, [r3, #0]
 80060b6:	681a      	ldr	r2, [r3, #0]
 80060b8:	68fb      	ldr	r3, [r7, #12]
 80060ba:	681b      	ldr	r3, [r3, #0]
 80060bc:	f042 0240 	orr.w	r2, r2, #64	@ 0x40
 80060c0:	601a      	str	r2, [r3, #0]
  }

  /* Transmit and Receive data in 16 Bit mode */
  if (hspi->Init.DataSize > SPI_DATASIZE_8BIT)
 80060c2:	68fb      	ldr	r3, [r7, #12]
 80060c4:	68db      	ldr	r3, [r3, #12]
 80060c6:	f5b3 6fe0 	cmp.w	r3, #1792	@ 0x700
 80060ca:	f240 8083 	bls.w	80061d4 <HAL_SPI_TransmitReceive+0x22a>
  {
    if ((hspi->Init.Mode == SPI_MODE_SLAVE) || (initial_TxXferCount == 0x01U))
 80060ce:	68fb      	ldr	r3, [r7, #12]
 80060d0:	685b      	ldr	r3, [r3, #4]
 80060d2:	2b00      	cmp	r3, #0
 80060d4:	d002      	beq.n	80060dc <HAL_SPI_TransmitReceive+0x132>
 80060d6:	8afb      	ldrh	r3, [r7, #22]
 80060d8:	2b01      	cmp	r3, #1
 80060da:	d16f      	bne.n	80061bc <HAL_SPI_TransmitReceive+0x212>
    {
      hspi->Instance->DR = *((const uint16_t *)hspi->pTxBuffPtr);
 80060dc:	68fb      	ldr	r3, [r7, #12]
 80060de:	6b9b      	ldr	r3, [r3, #56]	@ 0x38
 80060e0:	881a      	ldrh	r2, [r3, #0]
 80060e2:	68fb      	ldr	r3, [r7, #12]
 80060e4:	681b      	ldr	r3, [r3, #0]
 80060e6:	60da      	str	r2, [r3, #12]
      hspi->pTxBuffPtr += sizeof(uint16_t);
 80060e8:	68fb      	ldr	r3, [r7, #12]
 80060ea:	6b9b      	ldr	r3, [r3, #56]	@ 0x38
 80060ec:	1c9a      	adds	r2, r3, #2
 80060ee:	68fb      	ldr	r3, [r7, #12]
 80060f0:	639a      	str	r2, [r3, #56]	@ 0x38
      hspi->TxXferCount--;
 80060f2:	68fb      	ldr	r3, [r7, #12]
 80060f4:	8fdb      	ldrh	r3, [r3, #62]	@ 0x3e
 80060f6:	b29b      	uxth	r3, r3
 80060f8:	3b01      	subs	r3, #1
 80060fa:	b29a      	uxth	r2, r3
 80060fc:	68fb      	ldr	r3, [r7, #12]
 80060fe:	87da      	strh	r2, [r3, #62]	@ 0x3e
        SET_BIT(hspi->Instance->CR1, SPI_CR1_CRCNEXT);
      }
#endif /* USE_SPI_CRC */

    }
    while ((hspi->TxXferCount > 0U) || (hspi->RxXferCount > 0U))
 8006100:	e05c      	b.n	80061bc <HAL_SPI_TransmitReceive+0x212>
    {
      /* Check TXE flag */
      if ((__HAL_SPI_GET_FLAG(hspi, SPI_FLAG_TXE)) && (hspi->TxXferCount > 0U) && (txallowed == 1U))
 8006102:	68fb      	ldr	r3, [r7, #12]
 8006104:	681b      	ldr	r3, [r3, #0]
 8006106:	689b      	ldr	r3, [r3, #8]
 8006108:	f003 0302 	and.w	r3, r3, #2
 800610c:	2b02      	cmp	r3, #2
 800610e:	d11b      	bne.n	8006148 <HAL_SPI_TransmitReceive+0x19e>
 8006110:	68fb      	ldr	r3, [r7, #12]
 8006112:	8fdb      	ldrh	r3, [r3, #62]	@ 0x3e
 8006114:	b29b      	uxth	r3, r3
 8006116:	2b00      	cmp	r3, #0
 8006118:	d016      	beq.n	8006148 <HAL_SPI_TransmitReceive+0x19e>
 800611a:	6a7b      	ldr	r3, [r7, #36]	@ 0x24
 800611c:	2b01      	cmp	r3, #1
 800611e:	d113      	bne.n	8006148 <HAL_SPI_TransmitReceive+0x19e>
      {
        hspi->Instance->DR = *((const uint16_t *)hspi->pTxBuffPtr);
 8006120:	68fb      	ldr	r3, [r7, #12]
 8006122:	6b9b      	ldr	r3, [r3, #56]	@ 0x38
 8006124:	881a      	ldrh	r2, [r3, #0]
 8006126:	68fb      	ldr	r3, [r7, #12]
 8006128:	681b      	ldr	r3, [r3, #0]
 800612a:	60da      	str	r2, [r3, #12]
        hspi->pTxBuffPtr += sizeof(uint16_t);
 800612c:	68fb      	ldr	r3, [r7, #12]
 800612e:	6b9b      	ldr	r3, [r3, #56]	@ 0x38
 8006130:	1c9a      	adds	r2, r3, #2
 8006132:	68fb      	ldr	r3, [r7, #12]
 8006134:	639a      	str	r2, [r3, #56]	@ 0x38
        hspi->TxXferCount--;
 8006136:	68fb      	ldr	r3, [r7, #12]
 8006138:	8fdb      	ldrh	r3, [r3, #62]	@ 0x3e
 800613a:	b29b      	uxth	r3, r3
 800613c:	3b01      	subs	r3, #1
 800613e:	b29a      	uxth	r2, r3
 8006140:	68fb      	ldr	r3, [r7, #12]
 8006142:	87da      	strh	r2, [r3, #62]	@ 0x3e
        /* Next Data is a reception (Rx). Tx not allowed */
        txallowed = 0U;
 8006144:	2300      	movs	r3, #0
 8006146:	627b      	str	r3, [r7, #36]	@ 0x24
        }
#endif /* USE_SPI_CRC */
      }

      /* Check RXNE flag */
      if ((__HAL_SPI_GET_FLAG(hspi, SPI_FLAG_RXNE)) && (hspi->RxXferCount > 0U))
 8006148:	68fb      	ldr	r3, [r7, #12]
 800614a:	681b      	ldr	r3, [r3, #0]
 800614c:	689b      	ldr	r3, [r3, #8]
 800614e:	f003 0301 	and.w	r3, r3, #1
 8006152:	2b01      	cmp	r3, #1
 8006154:	d11c      	bne.n	8006190 <HAL_SPI_TransmitReceive+0x1e6>
 8006156:	68fb      	ldr	r3, [r7, #12]
 8006158:	f8b3 3046 	ldrh.w	r3, [r3, #70]	@ 0x46
 800615c:	b29b      	uxth	r3, r3
 800615e:	2b00      	cmp	r3, #0
 8006160:	d016      	beq.n	8006190 <HAL_SPI_TransmitReceive+0x1e6>
      {
        *((uint16_t *)hspi->pRxBuffPtr) = (uint16_t)hspi->Instance->DR;
 8006162:	68fb      	ldr	r3, [r7, #12]
 8006164:	681b      	ldr	r3, [r3, #0]
 8006166:	68da      	ldr	r2, [r3, #12]
 8006168:	68fb      	ldr	r3, [r7, #12]
 800616a:	6c1b      	ldr	r3, [r3, #64]	@ 0x40
 800616c:	b292      	uxth	r2, r2
 800616e:	801a      	strh	r2, [r3, #0]
        hspi->pRxBuffPtr += sizeof(uint16_t);
 8006170:	68fb      	ldr	r3, [r7, #12]
 8006172:	6c1b      	ldr	r3, [r3, #64]	@ 0x40
 8006174:	1c9a      	adds	r2, r3, #2
 8006176:	68fb      	ldr	r3, [r7, #12]
 8006178:	641a      	str	r2, [r3, #64]	@ 0x40
        hspi->RxXferCount--;
 800617a:	68fb      	ldr	r3, [r7, #12]
 800617c:	f8b3 3046 	ldrh.w	r3, [r3, #70]	@ 0x46
 8006180:	b29b      	uxth	r3, r3
 8006182:	3b01      	subs	r3, #1
 8006184:	b29a      	uxth	r2, r3
 8006186:	68fb      	ldr	r3, [r7, #12]
 8006188:	f8a3 2046 	strh.w	r2, [r3, #70]	@ 0x46
        /* Next Data is a Transmission (Tx). Tx is allowed */
        txallowed = 1U;
 800618c:	2301      	movs	r3, #1
 800618e:	627b      	str	r3, [r7, #36]	@ 0x24
      }
      if (((HAL_GetTick() - tickstart) >=  Timeout) && (Timeout != HAL_MAX_DELAY))
 8006190:	f7fe f9b4 	bl	80044fc <HAL_GetTick>
 8006194:	4602      	mov	r2, r0
 8006196:	6a3b      	ldr	r3, [r7, #32]
 8006198:	1ad3      	subs	r3, r2, r3
 800619a:	6b3a      	ldr	r2, [r7, #48]	@ 0x30
 800619c:	429a      	cmp	r2, r3
 800619e:	d80d      	bhi.n	80061bc <HAL_SPI_TransmitReceive+0x212>
 80061a0:	6b3b      	ldr	r3, [r7, #48]	@ 0x30
 80061a2:	f1b3 3fff 	cmp.w	r3, #4294967295	@ 0xffffffff
 80061a6:	d009      	beq.n	80061bc <HAL_SPI_TransmitReceive+0x212>
      {
        hspi->State = HAL_SPI_STATE_READY;
 80061a8:	68fb      	ldr	r3, [r7, #12]
 80061aa:	2201      	movs	r2, #1
 80061ac:	f883 205d 	strb.w	r2, [r3, #93]	@ 0x5d
        __HAL_UNLOCK(hspi);
 80061b0:	68fb      	ldr	r3, [r7, #12]
 80061b2:	2200      	movs	r2, #0
 80061b4:	f883 205c 	strb.w	r2, [r3, #92]	@ 0x5c
        return HAL_TIMEOUT;
 80061b8:	2303      	movs	r3, #3
 80061ba:	e111      	b.n	80063e0 <HAL_SPI_TransmitReceive+0x436>
    while ((hspi->TxXferCount > 0U) || (hspi->RxXferCount > 0U))
 80061bc:	68fb      	ldr	r3, [r7, #12]
 80061be:	8fdb      	ldrh	r3, [r3, #62]	@ 0x3e
 80061c0:	b29b      	uxth	r3, r3
 80061c2:	2b00      	cmp	r3, #0
 80061c4:	d19d      	bne.n	8006102 <HAL_SPI_TransmitReceive+0x158>
 80061c6:	68fb      	ldr	r3, [r7, #12]
 80061c8:	f8b3 3046 	ldrh.w	r3, [r3, #70]	@ 0x46
 80061cc:	b29b      	uxth	r3, r3
 80061ce:	2b00      	cmp	r3, #0
 80061d0:	d197      	bne.n	8006102 <HAL_SPI_TransmitReceive+0x158>
 80061d2:	e0e5      	b.n	80063a0 <HAL_SPI_TransmitReceive+0x3f6>
    }
  }
  /* Transmit and Receive data in 8 Bit mode */
  else
  {
    if ((hspi->Init.Mode == SPI_MODE_SLAVE) || (initial_TxXferCount == 0x01U))
 80061d4:	68fb      	ldr	r3, [r7, #12]
 80061d6:	685b      	ldr	r3, [r3, #4]
 80061d8:	2b00      	cmp	r3, #0
 80061da:	d003      	beq.n	80061e4 <HAL_SPI_TransmitReceive+0x23a>
 80061dc:	8afb      	ldrh	r3, [r7, #22]
 80061de:	2b01      	cmp	r3, #1
 80061e0:	f040 80d1 	bne.w	8006386 <HAL_SPI_TransmitReceive+0x3dc>
    {
      if (hspi->TxXferCount > 1U)
 80061e4:	68fb      	ldr	r3, [r7, #12]
 80061e6:	8fdb      	ldrh	r3, [r3, #62]	@ 0x3e
 80061e8:	b29b      	uxth	r3, r3
 80061ea:	2b01      	cmp	r3, #1
 80061ec:	d912      	bls.n	8006214 <HAL_SPI_TransmitReceive+0x26a>
      {
        hspi->Instance->DR = *((const uint16_t *)hspi->pTxBuffPtr);
 80061ee:	68fb      	ldr	r3, [r7, #12]
 80061f0:	6b9b      	ldr	r3, [r3, #56]	@ 0x38
 80061f2:	881a      	ldrh	r2, [r3, #0]
 80061f4:	68fb      	ldr	r3, [r7, #12]
 80061f6:	681b      	ldr	r3, [r3, #0]
 80061f8:	60da      	str	r2, [r3, #12]
        hspi->pTxBuffPtr += sizeof(uint16_t);
 80061fa:	68fb      	ldr	r3, [r7, #12]
 80061fc:	6b9b      	ldr	r3, [r3, #56]	@ 0x38
 80061fe:	1c9a      	adds	r2, r3, #2
 8006200:	68fb      	ldr	r3, [r7, #12]
 8006202:	639a      	str	r2, [r3, #56]	@ 0x38
        hspi->TxXferCount -= 2U;
 8006204:	68fb      	ldr	r3, [r7, #12]
 8006206:	8fdb      	ldrh	r3, [r3, #62]	@ 0x3e
 8006208:	b29b      	uxth	r3, r3
 800620a:	3b02      	subs	r3, #2
 800620c:	b29a      	uxth	r2, r3
 800620e:	68fb      	ldr	r3, [r7, #12]
 8006210:	87da      	strh	r2, [r3, #62]	@ 0x3e
 8006212:	e0b8      	b.n	8006386 <HAL_SPI_TransmitReceive+0x3dc>
      }
      else
      {
        *(__IO uint8_t *)&hspi->Instance->DR = *((const uint8_t *)hspi->pTxBuffPtr);
 8006214:	68fb      	ldr	r3, [r7, #12]
 8006216:	6b9a      	ldr	r2, [r3, #56]	@ 0x38
 8006218:	68fb      	ldr	r3, [r7, #12]
 800621a:	681b      	ldr	r3, [r3, #0]
 800621c:	330c      	adds	r3, #12
 800621e:	7812      	ldrb	r2, [r2, #0]
 8006220:	701a      	strb	r2, [r3, #0]
        hspi->pTxBuffPtr++;
 8006222:	68fb      	ldr	r3, [r7, #12]
 8006224:	6b9b      	ldr	r3, [r3, #56]	@ 0x38
 8006226:	1c5a      	adds	r2, r3, #1
 8006228:	68fb      	ldr	r3, [r7, #12]
 800622a:	639a      	str	r2, [r3, #56]	@ 0x38
        hspi->TxXferCount--;
 800622c:	68fb      	ldr	r3, [r7, #12]
 800622e:	8fdb      	ldrh	r3, [r3, #62]	@ 0x3e
 8006230:	b29b      	uxth	r3, r3
 8006232:	3b01      	subs	r3, #1
 8006234:	b29a      	uxth	r2, r3
 8006236:	68fb      	ldr	r3, [r7, #12]
 8006238:	87da      	strh	r2, [r3, #62]	@ 0x3e
          SET_BIT(hspi->Instance->CR1, SPI_CR1_CRCNEXT);
        }
#endif /* USE_SPI_CRC */
      }
    }
    while ((hspi->TxXferCount > 0U) || (hspi->RxXferCount > 0U))
 800623a:	e0a4      	b.n	8006386 <HAL_SPI_TransmitReceive+0x3dc>
    {
      /* Check TXE flag */
      if ((__HAL_SPI_GET_FLAG(hspi, SPI_FLAG_TXE)) && (hspi->TxXferCount > 0U) && (txallowed == 1U))
 800623c:	68fb      	ldr	r3, [r7, #12]
 800623e:	681b      	ldr	r3, [r3, #0]
 8006240:	689b      	ldr	r3, [r3, #8]
 8006242:	f003 0302 	and.w	r3, r3, #2
 8006246:	2b02      	cmp	r3, #2
 8006248:	d134      	bne.n	80062b4 <HAL_SPI_TransmitReceive+0x30a>
 800624a:	68fb      	ldr	r3, [r7, #12]
 800624c:	8fdb      	ldrh	r3, [r3, #62]	@ 0x3e
 800624e:	b29b      	uxth	r3, r3
 8006250:	2b00      	cmp	r3, #0
 8006252:	d02f      	beq.n	80062b4 <HAL_SPI_TransmitReceive+0x30a>
 8006254:	6a7b      	ldr	r3, [r7, #36]	@ 0x24
 8006256:	2b01      	cmp	r3, #1
 8006258:	d12c      	bne.n	80062b4 <HAL_SPI_TransmitReceive+0x30a>
      {
        if (hspi->TxXferCount > 1U)
 800625a:	68fb      	ldr	r3, [r7, #12]
 800625c:	8fdb      	ldrh	r3, [r3, #62]	@ 0x3e
 800625e:	b29b      	uxth	r3, r3
 8006260:	2b01      	cmp	r3, #1
 8006262:	d912      	bls.n	800628a <HAL_SPI_TransmitReceive+0x2e0>
        {
          hspi->Instance->DR = *((const uint16_t *)hspi->pTxBuffPtr);
 8006264:	68fb      	ldr	r3, [r7, #12]
 8006266:	6b9b      	ldr	r3, [r3, #56]	@ 0x38
 8006268:	881a      	ldrh	r2, [r3, #0]
 800626a:	68fb      	ldr	r3, [r7, #12]
 800626c:	681b      	ldr	r3, [r3, #0]
 800626e:	60da      	str	r2, [r3, #12]
          hspi->pTxBuffPtr += sizeof(uint16_t);
 8006270:	68fb      	ldr	r3, [r7, #12]
 8006272:	6b9b      	ldr	r3, [r3, #56]	@ 0x38
 8006274:	1c9a      	adds	r2, r3, #2
 8006276:	68fb      	ldr	r3, [r7, #12]
 8006278:	639a      	str	r2, [r3, #56]	@ 0x38
          hspi->TxXferCount -= 2U;
 800627a:	68fb      	ldr	r3, [r7, #12]
 800627c:	8fdb      	ldrh	r3, [r3, #62]	@ 0x3e
 800627e:	b29b      	uxth	r3, r3
 8006280:	3b02      	subs	r3, #2
 8006282:	b29a      	uxth	r2, r3
 8006284:	68fb      	ldr	r3, [r7, #12]
 8006286:	87da      	strh	r2, [r3, #62]	@ 0x3e
 8006288:	e012      	b.n	80062b0 <HAL_SPI_TransmitReceive+0x306>
        }
        else
        {
          *(__IO uint8_t *)&hspi->Instance->DR = *((const uint8_t *)hspi->pTxBuffPtr);
 800628a:	68fb      	ldr	r3, [r7, #12]
 800628c:	6b9a      	ldr	r2, [r3, #56]	@ 0x38
 800628e:	68fb      	ldr	r3, [r7, #12]
 8006290:	681b      	ldr	r3, [r3, #0]
 8006292:	330c      	adds	r3, #12
 8006294:	7812      	ldrb	r2, [r2, #0]
 8006296:	701a      	strb	r2, [r3, #0]
          hspi->pTxBuffPtr++;
 8006298:	68fb      	ldr	r3, [r7, #12]
 800629a:	6b9b      	ldr	r3, [r3, #56]	@ 0x38
 800629c:	1c5a      	adds	r2, r3, #1
 800629e:	68fb      	ldr	r3, [r7, #12]
 80062a0:	639a      	str	r2, [r3, #56]	@ 0x38
          hspi->TxXferCount--;
 80062a2:	68fb      	ldr	r3, [r7, #12]
 80062a4:	8fdb      	ldrh	r3, [r3, #62]	@ 0x3e
 80062a6:	b29b      	uxth	r3, r3
 80062a8:	3b01      	subs	r3, #1
 80062aa:	b29a      	uxth	r2, r3
 80062ac:	68fb      	ldr	r3, [r7, #12]
 80062ae:	87da      	strh	r2, [r3, #62]	@ 0x3e
        }
        /* Next Data is a reception (Rx). Tx not allowed */
        txallowed = 0U;
 80062b0:	2300      	movs	r3, #0
 80062b2:	627b      	str	r3, [r7, #36]	@ 0x24
        }
#endif /* USE_SPI_CRC */
      }

      /* Wait until RXNE flag is reset */
      if ((__HAL_SPI_GET_FLAG(hspi, SPI_FLAG_RXNE)) && (hspi->RxXferCount > 0U))
 80062b4:	68fb      	ldr	r3, [r7, #12]
 80062b6:	681b      	ldr	r3, [r3, #0]
 80062b8:	689b      	ldr	r3, [r3, #8]
 80062ba:	f003 0301 	and.w	r3, r3, #1
 80062be:	2b01      	cmp	r3, #1
 80062c0:	d148      	bne.n	8006354 <HAL_SPI_TransmitReceive+0x3aa>
 80062c2:	68fb      	ldr	r3, [r7, #12]
 80062c4:	f8b3 3046 	ldrh.w	r3, [r3, #70]	@ 0x46
 80062c8:	b29b      	uxth	r3, r3
 80062ca:	2b00      	cmp	r3, #0
 80062cc:	d042      	beq.n	8006354 <HAL_SPI_TransmitReceive+0x3aa>
      {
        if (hspi->RxXferCount > 1U)
 80062ce:	68fb      	ldr	r3, [r7, #12]
 80062d0:	f8b3 3046 	ldrh.w	r3, [r3, #70]	@ 0x46
 80062d4:	b29b      	uxth	r3, r3
 80062d6:	2b01      	cmp	r3, #1
 80062d8:	d923      	bls.n	8006322 <HAL_SPI_TransmitReceive+0x378>
        {
          *((uint16_t *)hspi->pRxBuffPtr) = (uint16_t)hspi->Instance->DR;
 80062da:	68fb      	ldr	r3, [r7, #12]
 80062dc:	681b      	ldr	r3, [r3, #0]
 80062de:	68da      	ldr	r2, [r3, #12]
 80062e0:	68fb      	ldr	r3, [r7, #12]
 80062e2:	6c1b      	ldr	r3, [r3, #64]	@ 0x40
 80062e4:	b292      	uxth	r2, r2
 80062e6:	801a      	strh	r2, [r3, #0]
          hspi->pRxBuffPtr += sizeof(uint16_t);
 80062e8:	68fb      	ldr	r3, [r7, #12]
 80062ea:	6c1b      	ldr	r3, [r3, #64]	@ 0x40
 80062ec:	1c9a      	adds	r2, r3, #2
 80062ee:	68fb      	ldr	r3, [r7, #12]
 80062f0:	641a      	str	r2, [r3, #64]	@ 0x40
          hspi->RxXferCount -= 2U;
 80062f2:	68fb      	ldr	r3, [r7, #12]
 80062f4:	f8b3 3046 	ldrh.w	r3, [r3, #70]	@ 0x46
 80062f8:	b29b      	uxth	r3, r3
 80062fa:	3b02      	subs	r3, #2
 80062fc:	b29a      	uxth	r2, r3
 80062fe:	68fb      	ldr	r3, [r7, #12]
 8006300:	f8a3 2046 	strh.w	r2, [r3, #70]	@ 0x46
          if (hspi->RxXferCount <= 1U)
 8006304:	68fb      	ldr	r3, [r7, #12]
 8006306:	f8b3 3046 	ldrh.w	r3, [r3, #70]	@ 0x46
 800630a:	b29b      	uxth	r3, r3
 800630c:	2b01      	cmp	r3, #1
 800630e:	d81f      	bhi.n	8006350 <HAL_SPI_TransmitReceive+0x3a6>
          {
            /* Set RX Fifo threshold before to switch on 8 bit data size */
            SET_BIT(hspi->Instance->CR2, SPI_RXFIFO_THRESHOLD);
 8006310:	68fb      	ldr	r3, [r7, #12]
 8006312:	681b      	ldr	r3, [r3, #0]
 8006314:	685a      	ldr	r2, [r3, #4]
 8006316:	68fb      	ldr	r3, [r7, #12]
 8006318:	681b      	ldr	r3, [r3, #0]
 800631a:	f442 5280 	orr.w	r2, r2, #4096	@ 0x1000
 800631e:	605a      	str	r2, [r3, #4]
 8006320:	e016      	b.n	8006350 <HAL_SPI_TransmitReceive+0x3a6>
          }
        }
        else
        {
          (*(uint8_t *)hspi->pRxBuffPtr) = *(__IO uint8_t *)&hspi->Instance->DR;
 8006322:	68fb      	ldr	r3, [r7, #12]
 8006324:	681b      	ldr	r3, [r3, #0]
 8006326:	f103 020c 	add.w	r2, r3, #12
 800632a:	68fb      	ldr	r3, [r7, #12]
 800632c:	6c1b      	ldr	r3, [r3, #64]	@ 0x40
 800632e:	7812      	ldrb	r2, [r2, #0]
 8006330:	b2d2      	uxtb	r2, r2
 8006332:	701a      	strb	r2, [r3, #0]
          hspi->pRxBuffPtr++;
 8006334:	68fb      	ldr	r3, [r7, #12]
 8006336:	6c1b      	ldr	r3, [r3, #64]	@ 0x40
 8006338:	1c5a      	adds	r2, r3, #1
 800633a:	68fb      	ldr	r3, [r7, #12]
 800633c:	641a      	str	r2, [r3, #64]	@ 0x40
          hspi->RxXferCount--;
 800633e:	68fb      	ldr	r3, [r7, #12]
 8006340:	f8b3 3046 	ldrh.w	r3, [r3, #70]	@ 0x46
 8006344:	b29b      	uxth	r3, r3
 8006346:	3b01      	subs	r3, #1
 8006348:	b29a      	uxth	r2, r3
 800634a:	68fb      	ldr	r3, [r7, #12]
 800634c:	f8a3 2046 	strh.w	r2, [r3, #70]	@ 0x46
        }
        /* Next Data is a Transmission (Tx). Tx is allowed */
        txallowed = 1U;
 8006350:	2301      	movs	r3, #1
 8006352:	627b      	str	r3, [r7, #36]	@ 0x24
      }
      if ((((HAL_GetTick() - tickstart) >=  Timeout) && ((Timeout != HAL_MAX_DELAY))) || (Timeout == 0U))
 8006354:	f7fe f8d2 	bl	80044fc <HAL_GetTick>
 8006358:	4602      	mov	r2, r0
 800635a:	6a3b      	ldr	r3, [r7, #32]
 800635c:	1ad3      	subs	r3, r2, r3
 800635e:	6b3a      	ldr	r2, [r7, #48]	@ 0x30
 8006360:	429a      	cmp	r2, r3
 8006362:	d803      	bhi.n	800636c <HAL_SPI_TransmitReceive+0x3c2>
 8006364:	6b3b      	ldr	r3, [r7, #48]	@ 0x30
 8006366:	f1b3 3fff 	cmp.w	r3, #4294967295	@ 0xffffffff
 800636a:	d102      	bne.n	8006372 <HAL_SPI_TransmitReceive+0x3c8>
 800636c:	6b3b      	ldr	r3, [r7, #48]	@ 0x30
 800636e:	2b00      	cmp	r3, #0
 8006370:	d109      	bne.n	8006386 <HAL_SPI_TransmitReceive+0x3dc>
      {
        hspi->State = HAL_SPI_STATE_READY;
 8006372:	68fb      	ldr	r3, [r7, #12]
 8006374:	2201      	movs	r2, #1
 8006376:	f883 205d 	strb.w	r2, [r3, #93]	@ 0x5d
        __HAL_UNLOCK(hspi);
 800637a:	68fb      	ldr	r3, [r7, #12]
 800637c:	2200      	movs	r2, #0
 800637e:	f883 205c 	strb.w	r2, [r3, #92]	@ 0x5c
        return HAL_TIMEOUT;
 8006382:	2303      	movs	r3, #3
 8006384:	e02c      	b.n	80063e0 <HAL_SPI_TransmitReceive+0x436>
    while ((hspi->TxXferCount > 0U) || (hspi->RxXferCount > 0U))
 8006386:	68fb      	ldr	r3, [r7, #12]
 8006388:	8fdb      	ldrh	r3, [r3, #62]	@ 0x3e
 800638a:	b29b      	uxth	r3, r3
 800638c:	2b00      	cmp	r3, #0
 800638e:	f47f af55 	bne.w	800623c <HAL_SPI_TransmitReceive+0x292>
 8006392:	68fb      	ldr	r3, [r7, #12]
 8006394:	f8b3 3046 	ldrh.w	r3, [r3, #70]	@ 0x46
 8006398:	b29b      	uxth	r3, r3
 800639a:	2b00      	cmp	r3, #0
 800639c:	f47f af4e 	bne.w	800623c <HAL_SPI_TransmitReceive+0x292>
    return HAL_ERROR;
  }
#endif /* USE_SPI_CRC */

  /* Check the end of the transaction */
  if (SPI_EndRxTxTransaction(hspi, Timeout, tickstart) != HAL_OK)
 80063a0:	6a3a      	ldr	r2, [r7, #32]
 80063a2:	6b39      	ldr	r1, [r7, #48]	@ 0x30
 80063a4:	68f8      	ldr	r0, [r7, #12]
 80063a6:	f000 f93d 	bl	8006624 <SPI_EndRxTxTransaction>
 80063aa:	4603      	mov	r3, r0
 80063ac:	2b00      	cmp	r3, #0
 80063ae:	d008      	beq.n	80063c2 <HAL_SPI_TransmitReceive+0x418>
  {
    hspi->ErrorCode = HAL_SPI_ERROR_FLAG;
 80063b0:	68fb      	ldr	r3, [r7, #12]
 80063b2:	2220      	movs	r2, #32
 80063b4:	661a      	str	r2, [r3, #96]	@ 0x60
    __HAL_UNLOCK(hspi);
 80063b6:	68fb      	ldr	r3, [r7, #12]
 80063b8:	2200      	movs	r2, #0
 80063ba:	f883 205c 	strb.w	r2, [r3, #92]	@ 0x5c
    return HAL_ERROR;
 80063be:	2301      	movs	r3, #1
 80063c0:	e00e      	b.n	80063e0 <HAL_SPI_TransmitReceive+0x436>
  }


  hspi->State = HAL_SPI_STATE_READY;
 80063c2:	68fb      	ldr	r3, [r7, #12]
 80063c4:	2201      	movs	r2, #1
 80063c6:	f883 205d 	strb.w	r2, [r3, #93]	@ 0x5d
  /* Unlock the process */
  __HAL_UNLOCK(hspi);
 80063ca:	68fb      	ldr	r3, [r7, #12]
 80063cc:	2200      	movs	r2, #0
 80063ce:	f883 205c 	strb.w	r2, [r3, #92]	@ 0x5c

  if (hspi->ErrorCode != HAL_SPI_ERROR_NONE)
 80063d2:	68fb      	ldr	r3, [r7, #12]
 80063d4:	6e1b      	ldr	r3, [r3, #96]	@ 0x60
 80063d6:	2b00      	cmp	r3, #0
 80063d8:	d001      	beq.n	80063de <HAL_SPI_TransmitReceive+0x434>
  {
    return HAL_ERROR;
 80063da:	2301      	movs	r3, #1
 80063dc:	e000      	b.n	80063e0 <HAL_SPI_TransmitReceive+0x436>
  }
  else
  {
    return HAL_OK;
 80063de:	2300      	movs	r3, #0
  }
}
 80063e0:	4618      	mov	r0, r3
 80063e2:	3728      	adds	r7, #40	@ 0x28
 80063e4:	46bd      	mov	sp, r7
 80063e6:	bd80      	pop	{r7, pc}

080063e8 <SPI_WaitFlagStateUntilTimeout>:
  * @param  Tickstart tick start value
  * @retval HAL status
  */
static HAL_StatusTypeDef SPI_WaitFlagStateUntilTimeout(SPI_HandleTypeDef *hspi, uint32_t Flag, FlagStatus State,
                                                       uint32_t Timeout, uint32_t Tickstart)
{
 80063e8:	b580      	push	{r7, lr}
 80063ea:	b088      	sub	sp, #32
 80063ec:	af00      	add	r7, sp, #0
 80063ee:	60f8      	str	r0, [r7, #12]
 80063f0:	60b9      	str	r1, [r7, #8]
 80063f2:	603b      	str	r3, [r7, #0]
 80063f4:	4613      	mov	r3, r2
 80063f6:	71fb      	strb	r3, [r7, #7]
  __IO uint32_t count;
  uint32_t tmp_timeout;
  uint32_t tmp_tickstart;

  /* Adjust Timeout value  in case of end of transfer */
  tmp_timeout   = Timeout - (HAL_GetTick() - Tickstart);
 80063f8:	f7fe f880 	bl	80044fc <HAL_GetTick>
 80063fc:	4602      	mov	r2, r0
 80063fe:	6abb      	ldr	r3, [r7, #40]	@ 0x28
 8006400:	1a9b      	subs	r3, r3, r2
 8006402:	683a      	ldr	r2, [r7, #0]
 8006404:	4413      	add	r3, r2
 8006406:	61fb      	str	r3, [r7, #28]
  tmp_tickstart = HAL_GetTick();
 8006408:	f7fe f878 	bl	80044fc <HAL_GetTick>
 800640c:	61b8      	str	r0, [r7, #24]

  /* Calculate Timeout based on a software loop to avoid blocking issue if Systick is disabled */
  count = tmp_timeout * ((SystemCoreClock * 32U) >> 20U);
 800640e:	4b39      	ldr	r3, [pc, #228]	@ (80064f4 <SPI_WaitFlagStateUntilTimeout+0x10c>)
 8006410:	681b      	ldr	r3, [r3, #0]
 8006412:	015b      	lsls	r3, r3, #5
 8006414:	0d1b      	lsrs	r3, r3, #20
 8006416:	69fa      	ldr	r2, [r7, #28]
 8006418:	fb02 f303 	mul.w	r3, r2, r3
 800641c:	617b      	str	r3, [r7, #20]

  while ((__HAL_SPI_GET_FLAG(hspi, Flag) ? SET : RESET) != State)
 800641e:	e055      	b.n	80064cc <SPI_WaitFlagStateUntilTimeout+0xe4>
  {
    if (Timeout != HAL_MAX_DELAY)
 8006420:	683b      	ldr	r3, [r7, #0]
 8006422:	f1b3 3fff 	cmp.w	r3, #4294967295	@ 0xffffffff
 8006426:	d051      	beq.n	80064cc <SPI_WaitFlagStateUntilTimeout+0xe4>
    {
      if (((HAL_GetTick() - tmp_tickstart) >= tmp_timeout) || (tmp_timeout == 0U))
 8006428:	f7fe f868 	bl	80044fc <HAL_GetTick>
 800642c:	4602      	mov	r2, r0
 800642e:	69bb      	ldr	r3, [r7, #24]
 8006430:	1ad3      	subs	r3, r2, r3
 8006432:	69fa      	ldr	r2, [r7, #28]
 8006434:	429a      	cmp	r2, r3
 8006436:	d902      	bls.n	800643e <SPI_WaitFlagStateUntilTimeout+0x56>
 8006438:	69fb      	ldr	r3, [r7, #28]
 800643a:	2b00      	cmp	r3, #0
 800643c:	d13d      	bne.n	80064ba <SPI_WaitFlagStateUntilTimeout+0xd2>
        /* Disable the SPI and reset the CRC: the CRC value should be cleared
           on both master and slave sides in order to resynchronize the master
           and slave for their respective CRC calculation */

        /* Disable TXE, RXNE and ERR interrupts for the interrupt process */
        __HAL_SPI_DISABLE_IT(hspi, (SPI_IT_TXE | SPI_IT_RXNE | SPI_IT_ERR));
 800643e:	68fb      	ldr	r3, [r7, #12]
 8006440:	681b      	ldr	r3, [r3, #0]
 8006442:	685a      	ldr	r2, [r3, #4]
 8006444:	68fb      	ldr	r3, [r7, #12]
 8006446:	681b      	ldr	r3, [r3, #0]
 8006448:	f022 02e0 	bic.w	r2, r2, #224	@ 0xe0
 800644c:	605a      	str	r2, [r3, #4]

        if ((hspi->Init.Mode == SPI_MODE_MASTER) && ((hspi->Init.Direction == SPI_DIRECTION_1LINE)
 800644e:	68fb      	ldr	r3, [r7, #12]
 8006450:	685b      	ldr	r3, [r3, #4]
 8006452:	f5b3 7f82 	cmp.w	r3, #260	@ 0x104
 8006456:	d111      	bne.n	800647c <SPI_WaitFlagStateUntilTimeout+0x94>
 8006458:	68fb      	ldr	r3, [r7, #12]
 800645a:	689b      	ldr	r3, [r3, #8]
 800645c:	f5b3 4f00 	cmp.w	r3, #32768	@ 0x8000
 8006460:	d004      	beq.n	800646c <SPI_WaitFlagStateUntilTimeout+0x84>
                                                     || (hspi->Init.Direction == SPI_DIRECTION_2LINES_RXONLY)))
 8006462:	68fb      	ldr	r3, [r7, #12]
 8006464:	689b      	ldr	r3, [r3, #8]
 8006466:	f5b3 6f80 	cmp.w	r3, #1024	@ 0x400
 800646a:	d107      	bne.n	800647c <SPI_WaitFlagStateUntilTimeout+0x94>
        {
          /* Disable SPI peripheral */
          __HAL_SPI_DISABLE(hspi);
 800646c:	68fb      	ldr	r3, [r7, #12]
 800646e:	681b      	ldr	r3, [r3, #0]
 8006470:	681a      	ldr	r2, [r3, #0]
 8006472:	68fb      	ldr	r3, [r7, #12]
 8006474:	681b      	ldr	r3, [r3, #0]
 8006476:	f022 0240 	bic.w	r2, r2, #64	@ 0x40
 800647a:	601a      	str	r2, [r3, #0]
        }

        /* Reset CRC Calculation */
        if (hspi->Init.CRCCalculation == SPI_CRCCALCULATION_ENABLE)
 800647c:	68fb      	ldr	r3, [r7, #12]
 800647e:	6a9b      	ldr	r3, [r3, #40]	@ 0x28
 8006480:	f5b3 5f00 	cmp.w	r3, #8192	@ 0x2000
 8006484:	d10f      	bne.n	80064a6 <SPI_WaitFlagStateUntilTimeout+0xbe>
        {
          SPI_RESET_CRC(hspi);
 8006486:	68fb      	ldr	r3, [r7, #12]
 8006488:	681b      	ldr	r3, [r3, #0]
 800648a:	681a      	ldr	r2, [r3, #0]
 800648c:	68fb      	ldr	r3, [r7, #12]
 800648e:	681b      	ldr	r3, [r3, #0]
 8006490:	f422 5200 	bic.w	r2, r2, #8192	@ 0x2000
 8006494:	601a      	str	r2, [r3, #0]
 8006496:	68fb      	ldr	r3, [r7, #12]
 8006498:	681b      	ldr	r3, [r3, #0]
 800649a:	681a      	ldr	r2, [r3, #0]
 800649c:	68fb      	ldr	r3, [r7, #12]
 800649e:	681b      	ldr	r3, [r3, #0]
 80064a0:	f442 5200 	orr.w	r2, r2, #8192	@ 0x2000
 80064a4:	601a      	str	r2, [r3, #0]
        }

        hspi->State = HAL_SPI_STATE_READY;
 80064a6:	68fb      	ldr	r3, [r7, #12]
 80064a8:	2201      	movs	r2, #1
 80064aa:	f883 205d 	strb.w	r2, [r3, #93]	@ 0x5d

        /* Process Unlocked */
        __HAL_UNLOCK(hspi);
 80064ae:	68fb      	ldr	r3, [r7, #12]
 80064b0:	2200      	movs	r2, #0
 80064b2:	f883 205c 	strb.w	r2, [r3, #92]	@ 0x5c

        return HAL_TIMEOUT;
 80064b6:	2303      	movs	r3, #3
 80064b8:	e018      	b.n	80064ec <SPI_WaitFlagStateUntilTimeout+0x104>
      }
      /* If Systick is disabled or not incremented, deactivate timeout to go in disable loop procedure */
      if (count == 0U)
 80064ba:	697b      	ldr	r3, [r7, #20]
 80064bc:	2b00      	cmp	r3, #0
 80064be:	d102      	bne.n	80064c6 <SPI_WaitFlagStateUntilTimeout+0xde>
      {
        tmp_timeout = 0U;
 80064c0:	2300      	movs	r3, #0
 80064c2:	61fb      	str	r3, [r7, #28]
 80064c4:	e002      	b.n	80064cc <SPI_WaitFlagStateUntilTimeout+0xe4>
      }
      else
      {
        count--;
 80064c6:	697b      	ldr	r3, [r7, #20]
 80064c8:	3b01      	subs	r3, #1
 80064ca:	617b      	str	r3, [r7, #20]
  while ((__HAL_SPI_GET_FLAG(hspi, Flag) ? SET : RESET) != State)
 80064cc:	68fb      	ldr	r3, [r7, #12]
 80064ce:	681b      	ldr	r3, [r3, #0]
 80064d0:	689a      	ldr	r2, [r3, #8]
 80064d2:	68bb      	ldr	r3, [r7, #8]
 80064d4:	4013      	ands	r3, r2
 80064d6:	68ba      	ldr	r2, [r7, #8]
 80064d8:	429a      	cmp	r2, r3
 80064da:	bf0c      	ite	eq
 80064dc:	2301      	moveq	r3, #1
 80064de:	2300      	movne	r3, #0
 80064e0:	b2db      	uxtb	r3, r3
 80064e2:	461a      	mov	r2, r3
 80064e4:	79fb      	ldrb	r3, [r7, #7]
 80064e6:	429a      	cmp	r2, r3
 80064e8:	d19a      	bne.n	8006420 <SPI_WaitFlagStateUntilTimeout+0x38>
      }
    }
  }

  return HAL_OK;
 80064ea:	2300      	movs	r3, #0
}
 80064ec:	4618      	mov	r0, r3
 80064ee:	3720      	adds	r7, #32
 80064f0:	46bd      	mov	sp, r7
 80064f2:	bd80      	pop	{r7, pc}
 80064f4:	200000c0 	.word	0x200000c0

080064f8 <SPI_WaitFifoStateUntilTimeout>:
  * @param  Tickstart tick start value
  * @retval HAL status
  */
static HAL_StatusTypeDef SPI_WaitFifoStateUntilTimeout(SPI_HandleTypeDef *hspi, uint32_t Fifo, uint32_t State,
                                                       uint32_t Timeout, uint32_t Tickstart)
{
 80064f8:	b580      	push	{r7, lr}
 80064fa:	b08a      	sub	sp, #40	@ 0x28
 80064fc:	af00      	add	r7, sp, #0
 80064fe:	60f8      	str	r0, [r7, #12]
 8006500:	60b9      	str	r1, [r7, #8]
 8006502:	607a      	str	r2, [r7, #4]
 8006504:	603b      	str	r3, [r7, #0]
  __IO uint32_t count;
  uint32_t tmp_timeout;
  uint32_t tmp_tickstart;
  __IO const uint8_t  *ptmpreg8;
  __IO uint8_t  tmpreg8 = 0;
 8006506:	2300      	movs	r3, #0
 8006508:	75fb      	strb	r3, [r7, #23]

  /* Adjust Timeout value  in case of end of transfer */
  tmp_timeout = Timeout - (HAL_GetTick() - Tickstart);
 800650a:	f7fd fff7 	bl	80044fc <HAL_GetTick>
 800650e:	4602      	mov	r2, r0
 8006510:	6b3b      	ldr	r3, [r7, #48]	@ 0x30
 8006512:	1a9b      	subs	r3, r3, r2
 8006514:	683a      	ldr	r2, [r7, #0]
 8006516:	4413      	add	r3, r2
 8006518:	627b      	str	r3, [r7, #36]	@ 0x24
  tmp_tickstart = HAL_GetTick();
 800651a:	f7fd ffef 	bl	80044fc <HAL_GetTick>
 800651e:	6238      	str	r0, [r7, #32]

  /* Initialize the 8bit temporary pointer */
  ptmpreg8 = (__IO uint8_t *)&hspi->Instance->DR;
 8006520:	68fb      	ldr	r3, [r7, #12]
 8006522:	681b      	ldr	r3, [r3, #0]
 8006524:	330c      	adds	r3, #12
 8006526:	61fb      	str	r3, [r7, #28]

  /* Calculate Timeout based on a software loop to avoid blocking issue if Systick is disabled */
  count = tmp_timeout * ((SystemCoreClock * 35U) >> 20U);
 8006528:	4b3d      	ldr	r3, [pc, #244]	@ (8006620 <SPI_WaitFifoStateUntilTimeout+0x128>)
 800652a:	681a      	ldr	r2, [r3, #0]
 800652c:	4613      	mov	r3, r2
 800652e:	009b      	lsls	r3, r3, #2
 8006530:	4413      	add	r3, r2
 8006532:	00da      	lsls	r2, r3, #3
 8006534:	1ad3      	subs	r3, r2, r3
 8006536:	0d1b      	lsrs	r3, r3, #20
 8006538:	6a7a      	ldr	r2, [r7, #36]	@ 0x24
 800653a:	fb02 f303 	mul.w	r3, r2, r3
 800653e:	61bb      	str	r3, [r7, #24]

  while ((hspi->Instance->SR & Fifo) != State)
 8006540:	e061      	b.n	8006606 <SPI_WaitFifoStateUntilTimeout+0x10e>
  {
    if ((Fifo == SPI_SR_FRLVL) && (State == SPI_FRLVL_EMPTY))
 8006542:	68bb      	ldr	r3, [r7, #8]
 8006544:	f5b3 6fc0 	cmp.w	r3, #1536	@ 0x600
 8006548:	d107      	bne.n	800655a <SPI_WaitFifoStateUntilTimeout+0x62>
 800654a:	687b      	ldr	r3, [r7, #4]
 800654c:	2b00      	cmp	r3, #0
 800654e:	d104      	bne.n	800655a <SPI_WaitFifoStateUntilTimeout+0x62>
    {
      /* Flush Data Register by a blank read */
      tmpreg8 = *ptmpreg8;
 8006550:	69fb      	ldr	r3, [r7, #28]
 8006552:	781b      	ldrb	r3, [r3, #0]
 8006554:	b2db      	uxtb	r3, r3
 8006556:	75fb      	strb	r3, [r7, #23]
      /* To avoid GCC warning */
      UNUSED(tmpreg8);
 8006558:	7dfb      	ldrb	r3, [r7, #23]
    }

    if (Timeout != HAL_MAX_DELAY)
 800655a:	683b      	ldr	r3, [r7, #0]
 800655c:	f1b3 3fff 	cmp.w	r3, #4294967295	@ 0xffffffff
 8006560:	d051      	beq.n	8006606 <SPI_WaitFifoStateUntilTimeout+0x10e>
    {
      if (((HAL_GetTick() - tmp_tickstart) >= tmp_timeout) || (tmp_timeout == 0U))
 8006562:	f7fd ffcb 	bl	80044fc <HAL_GetTick>
 8006566:	4602      	mov	r2, r0
 8006568:	6a3b      	ldr	r3, [r7, #32]
 800656a:	1ad3      	subs	r3, r2, r3
 800656c:	6a7a      	ldr	r2, [r7, #36]	@ 0x24
 800656e:	429a      	cmp	r2, r3
 8006570:	d902      	bls.n	8006578 <SPI_WaitFifoStateUntilTimeout+0x80>
 8006572:	6a7b      	ldr	r3, [r7, #36]	@ 0x24
 8006574:	2b00      	cmp	r3, #0
 8006576:	d13d      	bne.n	80065f4 <SPI_WaitFifoStateUntilTimeout+0xfc>
        /* Disable the SPI and reset the CRC: the CRC value should be cleared
           on both master and slave sides in order to resynchronize the master
           and slave for their respective CRC calculation */

        /* Disable TXE, RXNE and ERR interrupts for the interrupt process */
        __HAL_SPI_DISABLE_IT(hspi, (SPI_IT_TXE | SPI_IT_RXNE | SPI_IT_ERR));
 8006578:	68fb      	ldr	r3, [r7, #12]
 800657a:	681b      	ldr	r3, [r3, #0]
 800657c:	685a      	ldr	r2, [r3, #4]
 800657e:	68fb      	ldr	r3, [r7, #12]
 8006580:	681b      	ldr	r3, [r3, #0]
 8006582:	f022 02e0 	bic.w	r2, r2, #224	@ 0xe0
 8006586:	605a      	str	r2, [r3, #4]

        if ((hspi->Init.Mode == SPI_MODE_MASTER) && ((hspi->Init.Direction == SPI_DIRECTION_1LINE)
 8006588:	68fb      	ldr	r3, [r7, #12]
 800658a:	685b      	ldr	r3, [r3, #4]
 800658c:	f5b3 7f82 	cmp.w	r3, #260	@ 0x104
 8006590:	d111      	bne.n	80065b6 <SPI_WaitFifoStateUntilTimeout+0xbe>
 8006592:	68fb      	ldr	r3, [r7, #12]
 8006594:	689b      	ldr	r3, [r3, #8]
 8006596:	f5b3 4f00 	cmp.w	r3, #32768	@ 0x8000
 800659a:	d004      	beq.n	80065a6 <SPI_WaitFifoStateUntilTimeout+0xae>
                                                     || (hspi->Init.Direction == SPI_DIRECTION_2LINES_RXONLY)))
 800659c:	68fb      	ldr	r3, [r7, #12]
 800659e:	689b      	ldr	r3, [r3, #8]
 80065a0:	f5b3 6f80 	cmp.w	r3, #1024	@ 0x400
 80065a4:	d107      	bne.n	80065b6 <SPI_WaitFifoStateUntilTimeout+0xbe>
        {
          /* Disable SPI peripheral */
          __HAL_SPI_DISABLE(hspi);
 80065a6:	68fb      	ldr	r3, [r7, #12]
 80065a8:	681b      	ldr	r3, [r3, #0]
 80065aa:	681a      	ldr	r2, [r3, #0]
 80065ac:	68fb      	ldr	r3, [r7, #12]
 80065ae:	681b      	ldr	r3, [r3, #0]
 80065b0:	f022 0240 	bic.w	r2, r2, #64	@ 0x40
 80065b4:	601a      	str	r2, [r3, #0]
        }

        /* Reset CRC Calculation */
        if (hspi->Init.CRCCalculation == SPI_CRCCALCULATION_ENABLE)
 80065b6:	68fb      	ldr	r3, [r7, #12]
 80065b8:	6a9b      	ldr	r3, [r3, #40]	@ 0x28
 80065ba:	f5b3 5f00 	cmp.w	r3, #8192	@ 0x2000
 80065be:	d10f      	bne.n	80065e0 <SPI_WaitFifoStateUntilTimeout+0xe8>
        {
          SPI_RESET_CRC(hspi);
 80065c0:	68fb      	ldr	r3, [r7, #12]
 80065c2:	681b      	ldr	r3, [r3, #0]
 80065c4:	681a      	ldr	r2, [r3, #0]
 80065c6:	68fb      	ldr	r3, [r7, #12]
 80065c8:	681b      	ldr	r3, [r3, #0]
 80065ca:	f422 5200 	bic.w	r2, r2, #8192	@ 0x2000
 80065ce:	601a      	str	r2, [r3, #0]
 80065d0:	68fb      	ldr	r3, [r7, #12]
 80065d2:	681b      	ldr	r3, [r3, #0]
 80065d4:	681a      	ldr	r2, [r3, #0]
 80065d6:	68fb      	ldr	r3, [r7, #12]
 80065d8:	681b      	ldr	r3, [r3, #0]
 80065da:	f442 5200 	orr.w	r2, r2, #8192	@ 0x2000
 80065de:	601a      	str	r2, [r3, #0]
        }

        hspi->State = HAL_SPI_STATE_READY;
 80065e0:	68fb      	ldr	r3, [r7, #12]
 80065e2:	2201      	movs	r2, #1
 80065e4:	f883 205d 	strb.w	r2, [r3, #93]	@ 0x5d

        /* Process Unlocked */
        __HAL_UNLOCK(hspi);
 80065e8:	68fb      	ldr	r3, [r7, #12]
 80065ea:	2200      	movs	r2, #0
 80065ec:	f883 205c 	strb.w	r2, [r3, #92]	@ 0x5c

        return HAL_TIMEOUT;
 80065f0:	2303      	movs	r3, #3
 80065f2:	e011      	b.n	8006618 <SPI_WaitFifoStateUntilTimeout+0x120>
      }
      /* If Systick is disabled or not incremented, deactivate timeout to go in disable loop procedure */
      if (count == 0U)
 80065f4:	69bb      	ldr	r3, [r7, #24]
 80065f6:	2b00      	cmp	r3, #0
 80065f8:	d102      	bne.n	8006600 <SPI_WaitFifoStateUntilTimeout+0x108>
      {
        tmp_timeout = 0U;
 80065fa:	2300      	movs	r3, #0
 80065fc:	627b      	str	r3, [r7, #36]	@ 0x24
 80065fe:	e002      	b.n	8006606 <SPI_WaitFifoStateUntilTimeout+0x10e>
      }
      else
      {
        count--;
 8006600:	69bb      	ldr	r3, [r7, #24]
 8006602:	3b01      	subs	r3, #1
 8006604:	61bb      	str	r3, [r7, #24]
  while ((hspi->Instance->SR & Fifo) != State)
 8006606:	68fb      	ldr	r3, [r7, #12]
 8006608:	681b      	ldr	r3, [r3, #0]
 800660a:	689a      	ldr	r2, [r3, #8]
 800660c:	68bb      	ldr	r3, [r7, #8]
 800660e:	4013      	ands	r3, r2
 8006610:	687a      	ldr	r2, [r7, #4]
 8006612:	429a      	cmp	r2, r3
 8006614:	d195      	bne.n	8006542 <SPI_WaitFifoStateUntilTimeout+0x4a>
      }
    }
  }

  return HAL_OK;
 8006616:	2300      	movs	r3, #0
}
 8006618:	4618      	mov	r0, r3
 800661a:	3728      	adds	r7, #40	@ 0x28
 800661c:	46bd      	mov	sp, r7
 800661e:	bd80      	pop	{r7, pc}
 8006620:	200000c0 	.word	0x200000c0

08006624 <SPI_EndRxTxTransaction>:
  * @param  Timeout Timeout duration
  * @param  Tickstart tick start value
  * @retval HAL status
  */
static HAL_StatusTypeDef SPI_EndRxTxTransaction(SPI_HandleTypeDef *hspi, uint32_t Timeout, uint32_t Tickstart)
{
 8006624:	b580      	push	{r7, lr}
 8006626:	b086      	sub	sp, #24
 8006628:	af02      	add	r7, sp, #8
 800662a:	60f8      	str	r0, [r7, #12]
 800662c:	60b9      	str	r1, [r7, #8]
 800662e:	607a      	str	r2, [r7, #4]
  /* Control if the TX fifo is empty */
  if (SPI_WaitFifoStateUntilTimeout(hspi, SPI_FLAG_FTLVL, SPI_FTLVL_EMPTY, Timeout, Tickstart) != HAL_OK)
 8006630:	687b      	ldr	r3, [r7, #4]
 8006632:	9300      	str	r3, [sp, #0]
 8006634:	68bb      	ldr	r3, [r7, #8]
 8006636:	2200      	movs	r2, #0
 8006638:	f44f 51c0 	mov.w	r1, #6144	@ 0x1800
 800663c:	68f8      	ldr	r0, [r7, #12]
 800663e:	f7ff ff5b 	bl	80064f8 <SPI_WaitFifoStateUntilTimeout>
 8006642:	4603      	mov	r3, r0
 8006644:	2b00      	cmp	r3, #0
 8006646:	d007      	beq.n	8006658 <SPI_EndRxTxTransaction+0x34>
  {
    SET_BIT(hspi->ErrorCode, HAL_SPI_ERROR_FLAG);
 8006648:	68fb      	ldr	r3, [r7, #12]
 800664a:	6e1b      	ldr	r3, [r3, #96]	@ 0x60
 800664c:	f043 0220 	orr.w	r2, r3, #32
 8006650:	68fb      	ldr	r3, [r7, #12]
 8006652:	661a      	str	r2, [r3, #96]	@ 0x60
    return HAL_TIMEOUT;
 8006654:	2303      	movs	r3, #3
 8006656:	e027      	b.n	80066a8 <SPI_EndRxTxTransaction+0x84>
  }

  /* Control the BSY flag */
  if (SPI_WaitFlagStateUntilTimeout(hspi, SPI_FLAG_BSY, RESET, Timeout, Tickstart) != HAL_OK)
 8006658:	687b      	ldr	r3, [r7, #4]
 800665a:	9300      	str	r3, [sp, #0]
 800665c:	68bb      	ldr	r3, [r7, #8]
 800665e:	2200      	movs	r2, #0
 8006660:	2180      	movs	r1, #128	@ 0x80
 8006662:	68f8      	ldr	r0, [r7, #12]
 8006664:	f7ff fec0 	bl	80063e8 <SPI_WaitFlagStateUntilTimeout>
 8006668:	4603      	mov	r3, r0
 800666a:	2b00      	cmp	r3, #0
 800666c:	d007      	beq.n	800667e <SPI_EndRxTxTransaction+0x5a>
  {
    SET_BIT(hspi->ErrorCode, HAL_SPI_ERROR_FLAG);
 800666e:	68fb      	ldr	r3, [r7, #12]
 8006670:	6e1b      	ldr	r3, [r3, #96]	@ 0x60
 8006672:	f043 0220 	orr.w	r2, r3, #32
 8006676:	68fb      	ldr	r3, [r7, #12]
 8006678:	661a      	str	r2, [r3, #96]	@ 0x60
    return HAL_TIMEOUT;
 800667a:	2303      	movs	r3, #3
 800667c:	e014      	b.n	80066a8 <SPI_EndRxTxTransaction+0x84>
  }

  /* Control if the RX fifo is empty */
  if (SPI_WaitFifoStateUntilTimeout(hspi, SPI_FLAG_FRLVL, SPI_FRLVL_EMPTY, Timeout, Tickstart) != HAL_OK)
 800667e:	687b      	ldr	r3, [r7, #4]
 8006680:	9300      	str	r3, [sp, #0]
 8006682:	68bb      	ldr	r3, [r7, #8]
 8006684:	2200      	movs	r2, #0
 8006686:	f44f 61c0 	mov.w	r1, #1536	@ 0x600
 800668a:	68f8      	ldr	r0, [r7, #12]
 800668c:	f7ff ff34 	bl	80064f8 <SPI_WaitFifoStateUntilTimeout>
 8006690:	4603      	mov	r3, r0
 8006692:	2b00      	cmp	r3, #0
 8006694:	d007      	beq.n	80066a6 <SPI_EndRxTxTransaction+0x82>
  {
    SET_BIT(hspi->ErrorCode, HAL_SPI_ERROR_FLAG);
 8006696:	68fb      	ldr	r3, [r7, #12]
 8006698:	6e1b      	ldr	r3, [r3, #96]	@ 0x60
 800669a:	f043 0220 	orr.w	r2, r3, #32
 800669e:	68fb      	ldr	r3, [r7, #12]
 80066a0:	661a      	str	r2, [r3, #96]	@ 0x60
    return HAL_TIMEOUT;
 80066a2:	2303      	movs	r3, #3
 80066a4:	e000      	b.n	80066a8 <SPI_EndRxTxTransaction+0x84>
  }

  return HAL_OK;
 80066a6:	2300      	movs	r3, #0
}
 80066a8:	4618      	mov	r0, r3
 80066aa:	3710      	adds	r7, #16
 80066ac:	46bd      	mov	sp, r7
 80066ae:	bd80      	pop	{r7, pc}

080066b0 <HAL_UART_Init>:
  *        parameters in the UART_InitTypeDef and initialize the associated handle.
  * @param huart UART handle.
  * @retval HAL status
  */
HAL_StatusTypeDef HAL_UART_Init(UART_HandleTypeDef *huart)
{
 80066b0:	b580      	push	{r7, lr}
 80066b2:	b082      	sub	sp, #8
 80066b4:	af00      	add	r7, sp, #0
 80066b6:	6078      	str	r0, [r7, #4]
  /* Check the UART handle allocation */
  if (huart == NULL)
 80066b8:	687b      	ldr	r3, [r7, #4]
 80066ba:	2b00      	cmp	r3, #0
 80066bc:	d101      	bne.n	80066c2 <HAL_UART_Init+0x12>
  {
    return HAL_ERROR;
 80066be:	2301      	movs	r3, #1
 80066c0:	e042      	b.n	8006748 <HAL_UART_Init+0x98>
  {
    /* Check the parameters */
    assert_param((IS_UART_INSTANCE(huart->Instance)) || (IS_LPUART_INSTANCE(huart->Instance)));
  }

  if (huart->gState == HAL_UART_STATE_RESET)
 80066c2:	687b      	ldr	r3, [r7, #4]
 80066c4:	f8d3 3088 	ldr.w	r3, [r3, #136]	@ 0x88
 80066c8:	2b00      	cmp	r3, #0
 80066ca:	d106      	bne.n	80066da <HAL_UART_Init+0x2a>
  {
    /* Allocate lock resource and initialize it */
    huart->Lock = HAL_UNLOCKED;
 80066cc:	687b      	ldr	r3, [r7, #4]
 80066ce:	2200      	movs	r2, #0
 80066d0:	f883 2084 	strb.w	r2, [r3, #132]	@ 0x84

    /* Init the low level hardware */
    huart->MspInitCallback(huart);
#else
    /* Init the low level hardware : GPIO, CLOCK */
    HAL_UART_MspInit(huart);
 80066d4:	6878      	ldr	r0, [r7, #4]
 80066d6:	f000 f83b 	bl	8006750 <HAL_UART_MspInit>
#endif /* (USE_HAL_UART_REGISTER_CALLBACKS) */
  }

  huart->gState = HAL_UART_STATE_BUSY;
 80066da:	687b      	ldr	r3, [r7, #4]
 80066dc:	2224      	movs	r2, #36	@ 0x24
 80066de:	f8c3 2088 	str.w	r2, [r3, #136]	@ 0x88

  __HAL_UART_DISABLE(huart);
 80066e2:	687b      	ldr	r3, [r7, #4]
 80066e4:	681b      	ldr	r3, [r3, #0]
 80066e6:	681a      	ldr	r2, [r3, #0]
 80066e8:	687b      	ldr	r3, [r7, #4]
 80066ea:	681b      	ldr	r3, [r3, #0]
 80066ec:	f022 0201 	bic.w	r2, r2, #1
 80066f0:	601a      	str	r2, [r3, #0]

  /* Perform advanced settings configuration */
  /* For some items, configuration requires to be done prior TE and RE bits are set */
  if (huart->AdvancedInit.AdvFeatureInit != UART_ADVFEATURE_NO_INIT)
 80066f2:	687b      	ldr	r3, [r7, #4]
 80066f4:	6a9b      	ldr	r3, [r3, #40]	@ 0x28
 80066f6:	2b00      	cmp	r3, #0
 80066f8:	d002      	beq.n	8006700 <HAL_UART_Init+0x50>
  {
    UART_AdvFeatureConfig(huart);
 80066fa:	6878      	ldr	r0, [r7, #4]
 80066fc:	f000 fafe 	bl	8006cfc <UART_AdvFeatureConfig>
  }

  /* Set the UART Communication parameters */
  if (UART_SetConfig(huart) == HAL_ERROR)
 8006700:	6878      	ldr	r0, [r7, #4]
 8006702:	f000 f82f 	bl	8006764 <UART_SetConfig>
 8006706:	4603      	mov	r3, r0
 8006708:	2b01      	cmp	r3, #1
 800670a:	d101      	bne.n	8006710 <HAL_UART_Init+0x60>
  {
    return HAL_ERROR;
 800670c:	2301      	movs	r3, #1
 800670e:	e01b      	b.n	8006748 <HAL_UART_Init+0x98>
  }

  /* In asynchronous mode, the following bits must be kept cleared:
  - LINEN and CLKEN bits in the USART_CR2 register,
  - SCEN, HDSEL and IREN  bits in the USART_CR3 register.*/
  CLEAR_BIT(huart->Instance->CR2, (USART_CR2_LINEN | USART_CR2_CLKEN));
 8006710:	687b      	ldr	r3, [r7, #4]
 8006712:	681b      	ldr	r3, [r3, #0]
 8006714:	685a      	ldr	r2, [r3, #4]
 8006716:	687b      	ldr	r3, [r7, #4]
 8006718:	681b      	ldr	r3, [r3, #0]
 800671a:	f422 4290 	bic.w	r2, r2, #18432	@ 0x4800
 800671e:	605a      	str	r2, [r3, #4]
  CLEAR_BIT(huart->Instance->CR3, (USART_CR3_SCEN | USART_CR3_HDSEL | USART_CR3_IREN));
 8006720:	687b      	ldr	r3, [r7, #4]
 8006722:	681b      	ldr	r3, [r3, #0]
 8006724:	689a      	ldr	r2, [r3, #8]
 8006726:	687b      	ldr	r3, [r7, #4]
 8006728:	681b      	ldr	r3, [r3, #0]
 800672a:	f022 022a 	bic.w	r2, r2, #42	@ 0x2a
 800672e:	609a      	str	r2, [r3, #8]

  __HAL_UART_ENABLE(huart);
 8006730:	687b      	ldr	r3, [r7, #4]
 8006732:	681b      	ldr	r3, [r3, #0]
 8006734:	681a      	ldr	r2, [r3, #0]
 8006736:	687b      	ldr	r3, [r7, #4]
 8006738:	681b      	ldr	r3, [r3, #0]
 800673a:	f042 0201 	orr.w	r2, r2, #1
 800673e:	601a      	str	r2, [r3, #0]

  /* TEACK and/or REACK to check before moving huart->gState and huart->RxState to Ready */
  return (UART_CheckIdleState(huart));
 8006740:	6878      	ldr	r0, [r7, #4]
 8006742:	f000 fb7d 	bl	8006e40 <UART_CheckIdleState>
 8006746:	4603      	mov	r3, r0
}
 8006748:	4618      	mov	r0, r3
 800674a:	3708      	adds	r7, #8
 800674c:	46bd      	mov	sp, r7
 800674e:	bd80      	pop	{r7, pc}

08006750 <HAL_UART_MspInit>:
  * @brief Initialize the UART MSP.
  * @param huart UART handle.
  * @retval None
  */
__weak void HAL_UART_MspInit(UART_HandleTypeDef *huart)
{
 8006750:	b480      	push	{r7}
 8006752:	b083      	sub	sp, #12
 8006754:	af00      	add	r7, sp, #0
 8006756:	6078      	str	r0, [r7, #4]
  UNUSED(huart);

  /* NOTE : This function should not be modified, when the callback is needed,
            the HAL_UART_MspInit can be implemented in the user file
   */
}
 8006758:	bf00      	nop
 800675a:	370c      	adds	r7, #12
 800675c:	46bd      	mov	sp, r7
 800675e:	f85d 7b04 	ldr.w	r7, [sp], #4
 8006762:	4770      	bx	lr

08006764 <UART_SetConfig>:
  * @brief Configure the UART peripheral.
  * @param huart UART handle.
  * @retval HAL status
  */
HAL_StatusTypeDef UART_SetConfig(UART_HandleTypeDef *huart)
{
 8006764:	e92d 4fb0 	stmdb	sp!, {r4, r5, r7, r8, r9, sl, fp, lr}
 8006768:	b08c      	sub	sp, #48	@ 0x30
 800676a:	af00      	add	r7, sp, #0
 800676c:	6178      	str	r0, [r7, #20]
  uint32_t tmpreg;
  uint16_t brrtemp;
  UART_ClockSourceTypeDef clocksource;
  uint32_t usartdiv;
  HAL_StatusTypeDef ret               = HAL_OK;
 800676e:	2300      	movs	r3, #0
 8006770:	f887 302a 	strb.w	r3, [r7, #42]	@ 0x2a
  *  the UART Word Length, Parity, Mode and oversampling:
  *  set the M bits according to huart->Init.WordLength value
  *  set PCE and PS bits according to huart->Init.Parity value
  *  set TE and RE bits according to huart->Init.Mode value
  *  set OVER8 bit according to huart->Init.OverSampling value */
  tmpreg = (uint32_t)huart->Init.WordLength | huart->Init.Parity | huart->Init.Mode | huart->Init.OverSampling ;
 8006774:	697b      	ldr	r3, [r7, #20]
 8006776:	689a      	ldr	r2, [r3, #8]
 8006778:	697b      	ldr	r3, [r7, #20]
 800677a:	691b      	ldr	r3, [r3, #16]
 800677c:	431a      	orrs	r2, r3
 800677e:	697b      	ldr	r3, [r7, #20]
 8006780:	695b      	ldr	r3, [r3, #20]
 8006782:	431a      	orrs	r2, r3
 8006784:	697b      	ldr	r3, [r7, #20]
 8006786:	69db      	ldr	r3, [r3, #28]
 8006788:	4313      	orrs	r3, r2
 800678a:	62fb      	str	r3, [r7, #44]	@ 0x2c
  MODIFY_REG(huart->Instance->CR1, USART_CR1_FIELDS, tmpreg);
 800678c:	697b      	ldr	r3, [r7, #20]
 800678e:	681b      	ldr	r3, [r3, #0]
 8006790:	681a      	ldr	r2, [r3, #0]
 8006792:	4bab      	ldr	r3, [pc, #684]	@ (8006a40 <UART_SetConfig+0x2dc>)
 8006794:	4013      	ands	r3, r2
 8006796:	697a      	ldr	r2, [r7, #20]
 8006798:	6812      	ldr	r2, [r2, #0]
 800679a:	6af9      	ldr	r1, [r7, #44]	@ 0x2c
 800679c:	430b      	orrs	r3, r1
 800679e:	6013      	str	r3, [r2, #0]

  /*-------------------------- USART CR2 Configuration -----------------------*/
  /* Configure the UART Stop Bits: Set STOP[13:12] bits according
  * to huart->Init.StopBits value */
  MODIFY_REG(huart->Instance->CR2, USART_CR2_STOP, huart->Init.StopBits);
 80067a0:	697b      	ldr	r3, [r7, #20]
 80067a2:	681b      	ldr	r3, [r3, #0]
 80067a4:	685b      	ldr	r3, [r3, #4]
 80067a6:	f423 5140 	bic.w	r1, r3, #12288	@ 0x3000
 80067aa:	697b      	ldr	r3, [r7, #20]
 80067ac:	68da      	ldr	r2, [r3, #12]
 80067ae:	697b      	ldr	r3, [r7, #20]
 80067b0:	681b      	ldr	r3, [r3, #0]
 80067b2:	430a      	orrs	r2, r1
 80067b4:	605a      	str	r2, [r3, #4]
  /* Configure
  * - UART HardWare Flow Control: set CTSE and RTSE bits according
  *   to huart->Init.HwFlowCtl value
  * - one-bit sampling method versus three samples' majority rule according
  *   to huart->Init.OneBitSampling (not applicable to LPUART) */
  tmpreg = (uint32_t)huart->Init.HwFlowCtl;
 80067b6:	697b      	ldr	r3, [r7, #20]
 80067b8:	699b      	ldr	r3, [r3, #24]
 80067ba:	62fb      	str	r3, [r7, #44]	@ 0x2c

  if (!(UART_INSTANCE_LOWPOWER(huart)))
 80067bc:	697b      	ldr	r3, [r7, #20]
 80067be:	681b      	ldr	r3, [r3, #0]
 80067c0:	4aa0      	ldr	r2, [pc, #640]	@ (8006a44 <UART_SetConfig+0x2e0>)
 80067c2:	4293      	cmp	r3, r2
 80067c4:	d004      	beq.n	80067d0 <UART_SetConfig+0x6c>
  {
    tmpreg |= huart->Init.OneBitSampling;
 80067c6:	697b      	ldr	r3, [r7, #20]
 80067c8:	6a1b      	ldr	r3, [r3, #32]
 80067ca:	6afa      	ldr	r2, [r7, #44]	@ 0x2c
 80067cc:	4313      	orrs	r3, r2
 80067ce:	62fb      	str	r3, [r7, #44]	@ 0x2c
  }
  MODIFY_REG(huart->Instance->CR3, USART_CR3_FIELDS, tmpreg);
 80067d0:	697b      	ldr	r3, [r7, #20]
 80067d2:	681b      	ldr	r3, [r3, #0]
 80067d4:	689b      	ldr	r3, [r3, #8]
 80067d6:	f023 436e 	bic.w	r3, r3, #3992977408	@ 0xee000000
 80067da:	f423 6330 	bic.w	r3, r3, #2816	@ 0xb00
 80067de:	697a      	ldr	r2, [r7, #20]
 80067e0:	6812      	ldr	r2, [r2, #0]
 80067e2:	6af9      	ldr	r1, [r7, #44]	@ 0x2c
 80067e4:	430b      	orrs	r3, r1
 80067e6:	6093      	str	r3, [r2, #8]

  /*-------------------------- USART PRESC Configuration -----------------------*/
  /* Configure
  * - UART Clock Prescaler : set PRESCALER according to huart->Init.ClockPrescaler value */
  MODIFY_REG(huart->Instance->PRESC, USART_PRESC_PRESCALER, huart->Init.ClockPrescaler);
 80067e8:	697b      	ldr	r3, [r7, #20]
 80067ea:	681b      	ldr	r3, [r3, #0]
 80067ec:	6adb      	ldr	r3, [r3, #44]	@ 0x2c
 80067ee:	f023 010f 	bic.w	r1, r3, #15
 80067f2:	697b      	ldr	r3, [r7, #20]
 80067f4:	6a5a      	ldr	r2, [r3, #36]	@ 0x24
 80067f6:	697b      	ldr	r3, [r7, #20]
 80067f8:	681b      	ldr	r3, [r3, #0]
 80067fa:	430a      	orrs	r2, r1
 80067fc:	62da      	str	r2, [r3, #44]	@ 0x2c

  /*-------------------------- USART BRR Configuration -----------------------*/
  UART_GETCLOCKSOURCE(huart, clocksource);
 80067fe:	697b      	ldr	r3, [r7, #20]
 8006800:	681b      	ldr	r3, [r3, #0]
 8006802:	4a91      	ldr	r2, [pc, #580]	@ (8006a48 <UART_SetConfig+0x2e4>)
 8006804:	4293      	cmp	r3, r2
 8006806:	d125      	bne.n	8006854 <UART_SetConfig+0xf0>
 8006808:	4b90      	ldr	r3, [pc, #576]	@ (8006a4c <UART_SetConfig+0x2e8>)
 800680a:	f8d3 3088 	ldr.w	r3, [r3, #136]	@ 0x88
 800680e:	f003 0303 	and.w	r3, r3, #3
 8006812:	2b03      	cmp	r3, #3
 8006814:	d81a      	bhi.n	800684c <UART_SetConfig+0xe8>
 8006816:	a201      	add	r2, pc, #4	@ (adr r2, 800681c <UART_SetConfig+0xb8>)
 8006818:	f852 f023 	ldr.w	pc, [r2, r3, lsl #2]
 800681c:	0800682d 	.word	0x0800682d
 8006820:	0800683d 	.word	0x0800683d
 8006824:	08006835 	.word	0x08006835
 8006828:	08006845 	.word	0x08006845
 800682c:	2301      	movs	r3, #1
 800682e:	f887 302b 	strb.w	r3, [r7, #43]	@ 0x2b
 8006832:	e0d6      	b.n	80069e2 <UART_SetConfig+0x27e>
 8006834:	2302      	movs	r3, #2
 8006836:	f887 302b 	strb.w	r3, [r7, #43]	@ 0x2b
 800683a:	e0d2      	b.n	80069e2 <UART_SetConfig+0x27e>
 800683c:	2304      	movs	r3, #4
 800683e:	f887 302b 	strb.w	r3, [r7, #43]	@ 0x2b
 8006842:	e0ce      	b.n	80069e2 <UART_SetConfig+0x27e>
 8006844:	2308      	movs	r3, #8
 8006846:	f887 302b 	strb.w	r3, [r7, #43]	@ 0x2b
 800684a:	e0ca      	b.n	80069e2 <UART_SetConfig+0x27e>
 800684c:	2310      	movs	r3, #16
 800684e:	f887 302b 	strb.w	r3, [r7, #43]	@ 0x2b
 8006852:	e0c6      	b.n	80069e2 <UART_SetConfig+0x27e>
 8006854:	697b      	ldr	r3, [r7, #20]
 8006856:	681b      	ldr	r3, [r3, #0]
 8006858:	4a7d      	ldr	r2, [pc, #500]	@ (8006a50 <UART_SetConfig+0x2ec>)
 800685a:	4293      	cmp	r3, r2
 800685c:	d138      	bne.n	80068d0 <UART_SetConfig+0x16c>
 800685e:	4b7b      	ldr	r3, [pc, #492]	@ (8006a4c <UART_SetConfig+0x2e8>)
 8006860:	f8d3 3088 	ldr.w	r3, [r3, #136]	@ 0x88
 8006864:	f003 030c 	and.w	r3, r3, #12
 8006868:	2b0c      	cmp	r3, #12
 800686a:	d82d      	bhi.n	80068c8 <UART_SetConfig+0x164>
 800686c:	a201      	add	r2, pc, #4	@ (adr r2, 8006874 <UART_SetConfig+0x110>)
 800686e:	f852 f023 	ldr.w	pc, [r2, r3, lsl #2]
 8006872:	bf00      	nop
 8006874:	080068a9 	.word	0x080068a9
 8006878:	080068c9 	.word	0x080068c9
 800687c:	080068c9 	.word	0x080068c9
 8006880:	080068c9 	.word	0x080068c9
 8006884:	080068b9 	.word	0x080068b9
 8006888:	080068c9 	.word	0x080068c9
 800688c:	080068c9 	.word	0x080068c9
 8006890:	080068c9 	.word	0x080068c9
 8006894:	080068b1 	.word	0x080068b1
 8006898:	080068c9 	.word	0x080068c9
 800689c:	080068c9 	.word	0x080068c9
 80068a0:	080068c9 	.word	0x080068c9
 80068a4:	080068c1 	.word	0x080068c1
 80068a8:	2300      	movs	r3, #0
 80068aa:	f887 302b 	strb.w	r3, [r7, #43]	@ 0x2b
 80068ae:	e098      	b.n	80069e2 <UART_SetConfig+0x27e>
 80068b0:	2302      	movs	r3, #2
 80068b2:	f887 302b 	strb.w	r3, [r7, #43]	@ 0x2b
 80068b6:	e094      	b.n	80069e2 <UART_SetConfig+0x27e>
 80068b8:	2304      	movs	r3, #4
 80068ba:	f887 302b 	strb.w	r3, [r7, #43]	@ 0x2b
 80068be:	e090      	b.n	80069e2 <UART_SetConfig+0x27e>
 80068c0:	2308      	movs	r3, #8
 80068c2:	f887 302b 	strb.w	r3, [r7, #43]	@ 0x2b
 80068c6:	e08c      	b.n	80069e2 <UART_SetConfig+0x27e>
 80068c8:	2310      	movs	r3, #16
 80068ca:	f887 302b 	strb.w	r3, [r7, #43]	@ 0x2b
 80068ce:	e088      	b.n	80069e2 <UART_SetConfig+0x27e>
 80068d0:	697b      	ldr	r3, [r7, #20]
 80068d2:	681b      	ldr	r3, [r3, #0]
 80068d4:	4a5f      	ldr	r2, [pc, #380]	@ (8006a54 <UART_SetConfig+0x2f0>)
 80068d6:	4293      	cmp	r3, r2
 80068d8:	d125      	bne.n	8006926 <UART_SetConfig+0x1c2>
 80068da:	4b5c      	ldr	r3, [pc, #368]	@ (8006a4c <UART_SetConfig+0x2e8>)
 80068dc:	f8d3 3088 	ldr.w	r3, [r3, #136]	@ 0x88
 80068e0:	f003 0330 	and.w	r3, r3, #48	@ 0x30
 80068e4:	2b30      	cmp	r3, #48	@ 0x30
 80068e6:	d016      	beq.n	8006916 <UART_SetConfig+0x1b2>
 80068e8:	2b30      	cmp	r3, #48	@ 0x30
 80068ea:	d818      	bhi.n	800691e <UART_SetConfig+0x1ba>
 80068ec:	2b20      	cmp	r3, #32
 80068ee:	d00a      	beq.n	8006906 <UART_SetConfig+0x1a2>
 80068f0:	2b20      	cmp	r3, #32
 80068f2:	d814      	bhi.n	800691e <UART_SetConfig+0x1ba>
 80068f4:	2b00      	cmp	r3, #0
 80068f6:	d002      	beq.n	80068fe <UART_SetConfig+0x19a>
 80068f8:	2b10      	cmp	r3, #16
 80068fa:	d008      	beq.n	800690e <UART_SetConfig+0x1aa>
 80068fc:	e00f      	b.n	800691e <UART_SetConfig+0x1ba>
 80068fe:	2300      	movs	r3, #0
 8006900:	f887 302b 	strb.w	r3, [r7, #43]	@ 0x2b
 8006904:	e06d      	b.n	80069e2 <UART_SetConfig+0x27e>
 8006906:	2302      	movs	r3, #2
 8006908:	f887 302b 	strb.w	r3, [r7, #43]	@ 0x2b
 800690c:	e069      	b.n	80069e2 <UART_SetConfig+0x27e>
 800690e:	2304      	movs	r3, #4
 8006910:	f887 302b 	strb.w	r3, [r7, #43]	@ 0x2b
 8006914:	e065      	b.n	80069e2 <UART_SetConfig+0x27e>
 8006916:	2308      	movs	r3, #8
 8006918:	f887 302b 	strb.w	r3, [r7, #43]	@ 0x2b
 800691c:	e061      	b.n	80069e2 <UART_SetConfig+0x27e>
 800691e:	2310      	movs	r3, #16
 8006920:	f887 302b 	strb.w	r3, [r7, #43]	@ 0x2b
 8006924:	e05d      	b.n	80069e2 <UART_SetConfig+0x27e>
 8006926:	697b      	ldr	r3, [r7, #20]
 8006928:	681b      	ldr	r3, [r3, #0]
 800692a:	4a4b      	ldr	r2, [pc, #300]	@ (8006a58 <UART_SetConfig+0x2f4>)
 800692c:	4293      	cmp	r3, r2
 800692e:	d125      	bne.n	800697c <UART_SetConfig+0x218>
 8006930:	4b46      	ldr	r3, [pc, #280]	@ (8006a4c <UART_SetConfig+0x2e8>)
 8006932:	f8d3 3088 	ldr.w	r3, [r3, #136]	@ 0x88
 8006936:	f003 03c0 	and.w	r3, r3, #192	@ 0xc0
 800693a:	2bc0      	cmp	r3, #192	@ 0xc0
 800693c:	d016      	beq.n	800696c <UART_SetConfig+0x208>
 800693e:	2bc0      	cmp	r3, #192	@ 0xc0
 8006940:	d818      	bhi.n	8006974 <UART_SetConfig+0x210>
 8006942:	2b80      	cmp	r3, #128	@ 0x80
 8006944:	d00a      	beq.n	800695c <UART_SetConfig+0x1f8>
 8006946:	2b80      	cmp	r3, #128	@ 0x80
 8006948:	d814      	bhi.n	8006974 <UART_SetConfig+0x210>
 800694a:	2b00      	cmp	r3, #0
 800694c:	d002      	beq.n	8006954 <UART_SetConfig+0x1f0>
 800694e:	2b40      	cmp	r3, #64	@ 0x40
 8006950:	d008      	beq.n	8006964 <UART_SetConfig+0x200>
 8006952:	e00f      	b.n	8006974 <UART_SetConfig+0x210>
 8006954:	2300      	movs	r3, #0
 8006956:	f887 302b 	strb.w	r3, [r7, #43]	@ 0x2b
 800695a:	e042      	b.n	80069e2 <UART_SetConfig+0x27e>
 800695c:	2302      	movs	r3, #2
 800695e:	f887 302b 	strb.w	r3, [r7, #43]	@ 0x2b
 8006962:	e03e      	b.n	80069e2 <UART_SetConfig+0x27e>
 8006964:	2304      	movs	r3, #4
 8006966:	f887 302b 	strb.w	r3, [r7, #43]	@ 0x2b
 800696a:	e03a      	b.n	80069e2 <UART_SetConfig+0x27e>
 800696c:	2308      	movs	r3, #8
 800696e:	f887 302b 	strb.w	r3, [r7, #43]	@ 0x2b
 8006972:	e036      	b.n	80069e2 <UART_SetConfig+0x27e>
 8006974:	2310      	movs	r3, #16
 8006976:	f887 302b 	strb.w	r3, [r7, #43]	@ 0x2b
 800697a:	e032      	b.n	80069e2 <UART_SetConfig+0x27e>
 800697c:	697b      	ldr	r3, [r7, #20]
 800697e:	681b      	ldr	r3, [r3, #0]
 8006980:	4a30      	ldr	r2, [pc, #192]	@ (8006a44 <UART_SetConfig+0x2e0>)
 8006982:	4293      	cmp	r3, r2
 8006984:	d12a      	bne.n	80069dc <UART_SetConfig+0x278>
 8006986:	4b31      	ldr	r3, [pc, #196]	@ (8006a4c <UART_SetConfig+0x2e8>)
 8006988:	f8d3 3088 	ldr.w	r3, [r3, #136]	@ 0x88
 800698c:	f403 6340 	and.w	r3, r3, #3072	@ 0xc00
 8006990:	f5b3 6f40 	cmp.w	r3, #3072	@ 0xc00
 8006994:	d01a      	beq.n	80069cc <UART_SetConfig+0x268>
 8006996:	f5b3 6f40 	cmp.w	r3, #3072	@ 0xc00
 800699a:	d81b      	bhi.n	80069d4 <UART_SetConfig+0x270>
 800699c:	f5b3 6f00 	cmp.w	r3, #2048	@ 0x800
 80069a0:	d00c      	beq.n	80069bc <UART_SetConfig+0x258>
 80069a2:	f5b3 6f00 	cmp.w	r3, #2048	@ 0x800
 80069a6:	d815      	bhi.n	80069d4 <UART_SetConfig+0x270>
 80069a8:	2b00      	cmp	r3, #0
 80069aa:	d003      	beq.n	80069b4 <UART_SetConfig+0x250>
 80069ac:	f5b3 6f80 	cmp.w	r3, #1024	@ 0x400
 80069b0:	d008      	beq.n	80069c4 <UART_SetConfig+0x260>
 80069b2:	e00f      	b.n	80069d4 <UART_SetConfig+0x270>
 80069b4:	2300      	movs	r3, #0
 80069b6:	f887 302b 	strb.w	r3, [r7, #43]	@ 0x2b
 80069ba:	e012      	b.n	80069e2 <UART_SetConfig+0x27e>
 80069bc:	2302      	movs	r3, #2
 80069be:	f887 302b 	strb.w	r3, [r7, #43]	@ 0x2b
 80069c2:	e00e      	b.n	80069e2 <UART_SetConfig+0x27e>
 80069c4:	2304      	movs	r3, #4
 80069c6:	f887 302b 	strb.w	r3, [r7, #43]	@ 0x2b
 80069ca:	e00a      	b.n	80069e2 <UART_SetConfig+0x27e>
 80069cc:	2308      	movs	r3, #8
 80069ce:	f887 302b 	strb.w	r3, [r7, #43]	@ 0x2b
 80069d2:	e006      	b.n	80069e2 <UART_SetConfig+0x27e>
 80069d4:	2310      	movs	r3, #16
 80069d6:	f887 302b 	strb.w	r3, [r7, #43]	@ 0x2b
 80069da:	e002      	b.n	80069e2 <UART_SetConfig+0x27e>
 80069dc:	2310      	movs	r3, #16
 80069de:	f887 302b 	strb.w	r3, [r7, #43]	@ 0x2b

  /* Check LPUART instance */
  if (UART_INSTANCE_LOWPOWER(huart))
 80069e2:	697b      	ldr	r3, [r7, #20]
 80069e4:	681b      	ldr	r3, [r3, #0]
 80069e6:	4a17      	ldr	r2, [pc, #92]	@ (8006a44 <UART_SetConfig+0x2e0>)
 80069e8:	4293      	cmp	r3, r2
 80069ea:	f040 80a8 	bne.w	8006b3e <UART_SetConfig+0x3da>
  {
    /* Retrieve frequency clock */
    switch (clocksource)
 80069ee:	f897 302b 	ldrb.w	r3, [r7, #43]	@ 0x2b
 80069f2:	2b08      	cmp	r3, #8
 80069f4:	d834      	bhi.n	8006a60 <UART_SetConfig+0x2fc>
 80069f6:	a201      	add	r2, pc, #4	@ (adr r2, 80069fc <UART_SetConfig+0x298>)
 80069f8:	f852 f023 	ldr.w	pc, [r2, r3, lsl #2]
 80069fc:	08006a21 	.word	0x08006a21
 8006a00:	08006a61 	.word	0x08006a61
 8006a04:	08006a29 	.word	0x08006a29
 8006a08:	08006a61 	.word	0x08006a61
 8006a0c:	08006a2f 	.word	0x08006a2f
 8006a10:	08006a61 	.word	0x08006a61
 8006a14:	08006a61 	.word	0x08006a61
 8006a18:	08006a61 	.word	0x08006a61
 8006a1c:	08006a37 	.word	0x08006a37
    {
      case UART_CLOCKSOURCE_PCLK1:
        pclk = HAL_RCC_GetPCLK1Freq();
 8006a20:	f7fe ffb6 	bl	8005990 <HAL_RCC_GetPCLK1Freq>
 8006a24:	6278      	str	r0, [r7, #36]	@ 0x24
        break;
 8006a26:	e021      	b.n	8006a6c <UART_SetConfig+0x308>
      case UART_CLOCKSOURCE_HSI:
        pclk = (uint32_t) HSI_VALUE;
 8006a28:	4b0c      	ldr	r3, [pc, #48]	@ (8006a5c <UART_SetConfig+0x2f8>)
 8006a2a:	627b      	str	r3, [r7, #36]	@ 0x24
        break;
 8006a2c:	e01e      	b.n	8006a6c <UART_SetConfig+0x308>
      case UART_CLOCKSOURCE_SYSCLK:
        pclk = HAL_RCC_GetSysClockFreq();
 8006a2e:	f7fe ff41 	bl	80058b4 <HAL_RCC_GetSysClockFreq>
 8006a32:	6278      	str	r0, [r7, #36]	@ 0x24
        break;
 8006a34:	e01a      	b.n	8006a6c <UART_SetConfig+0x308>
      case UART_CLOCKSOURCE_LSE:
        pclk = (uint32_t) LSE_VALUE;
 8006a36:	f44f 4300 	mov.w	r3, #32768	@ 0x8000
 8006a3a:	627b      	str	r3, [r7, #36]	@ 0x24
        break;
 8006a3c:	e016      	b.n	8006a6c <UART_SetConfig+0x308>
 8006a3e:	bf00      	nop
 8006a40:	cfff69f3 	.word	0xcfff69f3
 8006a44:	40008000 	.word	0x40008000
 8006a48:	40013800 	.word	0x40013800
 8006a4c:	40021000 	.word	0x40021000
 8006a50:	40004400 	.word	0x40004400
 8006a54:	40004800 	.word	0x40004800
 8006a58:	40004c00 	.word	0x40004c00
 8006a5c:	00f42400 	.word	0x00f42400
      default:
        pclk = 0U;
 8006a60:	2300      	movs	r3, #0
 8006a62:	627b      	str	r3, [r7, #36]	@ 0x24
        ret = HAL_ERROR;
 8006a64:	2301      	movs	r3, #1
 8006a66:	f887 302a 	strb.w	r3, [r7, #42]	@ 0x2a
        break;
 8006a6a:	bf00      	nop
    }

    /* If proper clock source reported */
    if (pclk != 0U)
 8006a6c:	6a7b      	ldr	r3, [r7, #36]	@ 0x24
 8006a6e:	2b00      	cmp	r3, #0
 8006a70:	f000 812a 	beq.w	8006cc8 <UART_SetConfig+0x564>
    {
      /* Compute clock after Prescaler */
      lpuart_ker_ck_pres = (pclk / UARTPrescTable[huart->Init.ClockPrescaler]);
 8006a74:	697b      	ldr	r3, [r7, #20]
 8006a76:	6a5b      	ldr	r3, [r3, #36]	@ 0x24
 8006a78:	4a9e      	ldr	r2, [pc, #632]	@ (8006cf4 <UART_SetConfig+0x590>)
 8006a7a:	f832 3013 	ldrh.w	r3, [r2, r3, lsl #1]
 8006a7e:	461a      	mov	r2, r3
 8006a80:	6a7b      	ldr	r3, [r7, #36]	@ 0x24
 8006a82:	fbb3 f3f2 	udiv	r3, r3, r2
 8006a86:	61bb      	str	r3, [r7, #24]

      /* Ensure that Frequency clock is in the range [3 * baudrate, 4096 * baudrate] */
      if ((lpuart_ker_ck_pres < (3U * huart->Init.BaudRate)) ||
 8006a88:	697b      	ldr	r3, [r7, #20]
 8006a8a:	685a      	ldr	r2, [r3, #4]
 8006a8c:	4613      	mov	r3, r2
 8006a8e:	005b      	lsls	r3, r3, #1
 8006a90:	4413      	add	r3, r2
 8006a92:	69ba      	ldr	r2, [r7, #24]
 8006a94:	429a      	cmp	r2, r3
 8006a96:	d305      	bcc.n	8006aa4 <UART_SetConfig+0x340>
          (lpuart_ker_ck_pres > (4096U * huart->Init.BaudRate)))
 8006a98:	697b      	ldr	r3, [r7, #20]
 8006a9a:	685b      	ldr	r3, [r3, #4]
 8006a9c:	031b      	lsls	r3, r3, #12
      if ((lpuart_ker_ck_pres < (3U * huart->Init.BaudRate)) ||
 8006a9e:	69ba      	ldr	r2, [r7, #24]
 8006aa0:	429a      	cmp	r2, r3
 8006aa2:	d903      	bls.n	8006aac <UART_SetConfig+0x348>
      {
        ret = HAL_ERROR;
 8006aa4:	2301      	movs	r3, #1
 8006aa6:	f887 302a 	strb.w	r3, [r7, #42]	@ 0x2a
 8006aaa:	e10d      	b.n	8006cc8 <UART_SetConfig+0x564>
      }
      else
      {
        /* Check computed UsartDiv value is in allocated range
           (it is forbidden to write values lower than 0x300 in the LPUART_BRR register) */
        usartdiv = (uint32_t)(UART_DIV_LPUART(pclk, huart->Init.BaudRate, huart->Init.ClockPrescaler));
 8006aac:	6a7b      	ldr	r3, [r7, #36]	@ 0x24
 8006aae:	2200      	movs	r2, #0
 8006ab0:	60bb      	str	r3, [r7, #8]
 8006ab2:	60fa      	str	r2, [r7, #12]
 8006ab4:	697b      	ldr	r3, [r7, #20]
 8006ab6:	6a5b      	ldr	r3, [r3, #36]	@ 0x24
 8006ab8:	4a8e      	ldr	r2, [pc, #568]	@ (8006cf4 <UART_SetConfig+0x590>)
 8006aba:	f832 3013 	ldrh.w	r3, [r2, r3, lsl #1]
 8006abe:	b29b      	uxth	r3, r3
 8006ac0:	2200      	movs	r2, #0
 8006ac2:	603b      	str	r3, [r7, #0]
 8006ac4:	607a      	str	r2, [r7, #4]
 8006ac6:	e9d7 2300 	ldrd	r2, r3, [r7]
 8006aca:	e9d7 0102 	ldrd	r0, r1, [r7, #8]
 8006ace:	f7f9 fbb5 	bl	800023c <__aeabi_uldivmod>
 8006ad2:	4602      	mov	r2, r0
 8006ad4:	460b      	mov	r3, r1
 8006ad6:	4610      	mov	r0, r2
 8006ad8:	4619      	mov	r1, r3
 8006ada:	f04f 0200 	mov.w	r2, #0
 8006ade:	f04f 0300 	mov.w	r3, #0
 8006ae2:	020b      	lsls	r3, r1, #8
 8006ae4:	ea43 6310 	orr.w	r3, r3, r0, lsr #24
 8006ae8:	0202      	lsls	r2, r0, #8
 8006aea:	6979      	ldr	r1, [r7, #20]
 8006aec:	6849      	ldr	r1, [r1, #4]
 8006aee:	0849      	lsrs	r1, r1, #1
 8006af0:	2000      	movs	r0, #0
 8006af2:	460c      	mov	r4, r1
 8006af4:	4605      	mov	r5, r0
 8006af6:	eb12 0804 	adds.w	r8, r2, r4
 8006afa:	eb43 0905 	adc.w	r9, r3, r5
 8006afe:	697b      	ldr	r3, [r7, #20]
 8006b00:	685b      	ldr	r3, [r3, #4]
 8006b02:	2200      	movs	r2, #0
 8006b04:	469a      	mov	sl, r3
 8006b06:	4693      	mov	fp, r2
 8006b08:	4652      	mov	r2, sl
 8006b0a:	465b      	mov	r3, fp
 8006b0c:	4640      	mov	r0, r8
 8006b0e:	4649      	mov	r1, r9
 8006b10:	f7f9 fb94 	bl	800023c <__aeabi_uldivmod>
 8006b14:	4602      	mov	r2, r0
 8006b16:	460b      	mov	r3, r1
 8006b18:	4613      	mov	r3, r2
 8006b1a:	623b      	str	r3, [r7, #32]
        if ((usartdiv >= LPUART_BRR_MIN) && (usartdiv <= LPUART_BRR_MAX))
 8006b1c:	6a3b      	ldr	r3, [r7, #32]
 8006b1e:	f5b3 7f40 	cmp.w	r3, #768	@ 0x300
 8006b22:	d308      	bcc.n	8006b36 <UART_SetConfig+0x3d2>
 8006b24:	6a3b      	ldr	r3, [r7, #32]
 8006b26:	f5b3 1f80 	cmp.w	r3, #1048576	@ 0x100000
 8006b2a:	d204      	bcs.n	8006b36 <UART_SetConfig+0x3d2>
        {
          huart->Instance->BRR = usartdiv;
 8006b2c:	697b      	ldr	r3, [r7, #20]
 8006b2e:	681b      	ldr	r3, [r3, #0]
 8006b30:	6a3a      	ldr	r2, [r7, #32]
 8006b32:	60da      	str	r2, [r3, #12]
 8006b34:	e0c8      	b.n	8006cc8 <UART_SetConfig+0x564>
        }
        else
        {
          ret = HAL_ERROR;
 8006b36:	2301      	movs	r3, #1
 8006b38:	f887 302a 	strb.w	r3, [r7, #42]	@ 0x2a
 8006b3c:	e0c4      	b.n	8006cc8 <UART_SetConfig+0x564>
      } /* if ( (lpuart_ker_ck_pres < (3 * huart->Init.BaudRate) ) ||
                (lpuart_ker_ck_pres > (4096 * huart->Init.BaudRate) )) */
    } /* if (pclk != 0) */
  }
  /* Check UART Over Sampling to set Baud Rate Register */
  else if (huart->Init.OverSampling == UART_OVERSAMPLING_8)
 8006b3e:	697b      	ldr	r3, [r7, #20]
 8006b40:	69db      	ldr	r3, [r3, #28]
 8006b42:	f5b3 4f00 	cmp.w	r3, #32768	@ 0x8000
 8006b46:	d167      	bne.n	8006c18 <UART_SetConfig+0x4b4>
  {
    switch (clocksource)
 8006b48:	f897 302b 	ldrb.w	r3, [r7, #43]	@ 0x2b
 8006b4c:	2b08      	cmp	r3, #8
 8006b4e:	d828      	bhi.n	8006ba2 <UART_SetConfig+0x43e>
 8006b50:	a201      	add	r2, pc, #4	@ (adr r2, 8006b58 <UART_SetConfig+0x3f4>)
 8006b52:	f852 f023 	ldr.w	pc, [r2, r3, lsl #2]
 8006b56:	bf00      	nop
 8006b58:	08006b7d 	.word	0x08006b7d
 8006b5c:	08006b85 	.word	0x08006b85
 8006b60:	08006b8d 	.word	0x08006b8d
 8006b64:	08006ba3 	.word	0x08006ba3
 8006b68:	08006b93 	.word	0x08006b93
 8006b6c:	08006ba3 	.word	0x08006ba3
 8006b70:	08006ba3 	.word	0x08006ba3
 8006b74:	08006ba3 	.word	0x08006ba3
 8006b78:	08006b9b 	.word	0x08006b9b
    {
      case UART_CLOCKSOURCE_PCLK1:
        pclk = HAL_RCC_GetPCLK1Freq();
 8006b7c:	f7fe ff08 	bl	8005990 <HAL_RCC_GetPCLK1Freq>
 8006b80:	6278      	str	r0, [r7, #36]	@ 0x24
        break;
 8006b82:	e014      	b.n	8006bae <UART_SetConfig+0x44a>
      case UART_CLOCKSOURCE_PCLK2:
        pclk = HAL_RCC_GetPCLK2Freq();
 8006b84:	f7fe ff1a 	bl	80059bc <HAL_RCC_GetPCLK2Freq>
 8006b88:	6278      	str	r0, [r7, #36]	@ 0x24
        break;
 8006b8a:	e010      	b.n	8006bae <UART_SetConfig+0x44a>
      case UART_CLOCKSOURCE_HSI:
        pclk = (uint32_t) HSI_VALUE;
 8006b8c:	4b5a      	ldr	r3, [pc, #360]	@ (8006cf8 <UART_SetConfig+0x594>)
 8006b8e:	627b      	str	r3, [r7, #36]	@ 0x24
        break;
 8006b90:	e00d      	b.n	8006bae <UART_SetConfig+0x44a>
      case UART_CLOCKSOURCE_SYSCLK:
        pclk = HAL_RCC_GetSysClockFreq();
 8006b92:	f7fe fe8f 	bl	80058b4 <HAL_RCC_GetSysClockFreq>
 8006b96:	6278      	str	r0, [r7, #36]	@ 0x24
        break;
 8006b98:	e009      	b.n	8006bae <UART_SetConfig+0x44a>
      case UART_CLOCKSOURCE_LSE:
        pclk = (uint32_t) LSE_VALUE;
 8006b9a:	f44f 4300 	mov.w	r3, #32768	@ 0x8000
 8006b9e:	627b      	str	r3, [r7, #36]	@ 0x24
        break;
 8006ba0:	e005      	b.n	8006bae <UART_SetConfig+0x44a>
      default:
        pclk = 0U;
 8006ba2:	2300      	movs	r3, #0
 8006ba4:	627b      	str	r3, [r7, #36]	@ 0x24
        ret = HAL_ERROR;
 8006ba6:	2301      	movs	r3, #1
 8006ba8:	f887 302a 	strb.w	r3, [r7, #42]	@ 0x2a
        break;
 8006bac:	bf00      	nop
    }

    /* USARTDIV must be greater than or equal to 0d16 */
    if (pclk != 0U)
 8006bae:	6a7b      	ldr	r3, [r7, #36]	@ 0x24
 8006bb0:	2b00      	cmp	r3, #0
 8006bb2:	f000 8089 	beq.w	8006cc8 <UART_SetConfig+0x564>
    {
      usartdiv = (uint32_t)(UART_DIV_SAMPLING8(pclk, huart->Init.BaudRate, huart->Init.ClockPrescaler));
 8006bb6:	697b      	ldr	r3, [r7, #20]
 8006bb8:	6a5b      	ldr	r3, [r3, #36]	@ 0x24
 8006bba:	4a4e      	ldr	r2, [pc, #312]	@ (8006cf4 <UART_SetConfig+0x590>)
 8006bbc:	f832 3013 	ldrh.w	r3, [r2, r3, lsl #1]
 8006bc0:	461a      	mov	r2, r3
 8006bc2:	6a7b      	ldr	r3, [r7, #36]	@ 0x24
 8006bc4:	fbb3 f3f2 	udiv	r3, r3, r2
 8006bc8:	005a      	lsls	r2, r3, #1
 8006bca:	697b      	ldr	r3, [r7, #20]
 8006bcc:	685b      	ldr	r3, [r3, #4]
 8006bce:	085b      	lsrs	r3, r3, #1
 8006bd0:	441a      	add	r2, r3
 8006bd2:	697b      	ldr	r3, [r7, #20]
 8006bd4:	685b      	ldr	r3, [r3, #4]
 8006bd6:	fbb2 f3f3 	udiv	r3, r2, r3
 8006bda:	623b      	str	r3, [r7, #32]
      if ((usartdiv >= UART_BRR_MIN) && (usartdiv <= UART_BRR_MAX))
 8006bdc:	6a3b      	ldr	r3, [r7, #32]
 8006bde:	2b0f      	cmp	r3, #15
 8006be0:	d916      	bls.n	8006c10 <UART_SetConfig+0x4ac>
 8006be2:	6a3b      	ldr	r3, [r7, #32]
 8006be4:	f5b3 3f80 	cmp.w	r3, #65536	@ 0x10000
 8006be8:	d212      	bcs.n	8006c10 <UART_SetConfig+0x4ac>
      {
        brrtemp = (uint16_t)(usartdiv & 0xFFF0U);
 8006bea:	6a3b      	ldr	r3, [r7, #32]
 8006bec:	b29b      	uxth	r3, r3
 8006bee:	f023 030f 	bic.w	r3, r3, #15
 8006bf2:	83fb      	strh	r3, [r7, #30]
        brrtemp |= (uint16_t)((usartdiv & (uint16_t)0x000FU) >> 1U);
 8006bf4:	6a3b      	ldr	r3, [r7, #32]
 8006bf6:	085b      	lsrs	r3, r3, #1
 8006bf8:	b29b      	uxth	r3, r3
 8006bfa:	f003 0307 	and.w	r3, r3, #7
 8006bfe:	b29a      	uxth	r2, r3
 8006c00:	8bfb      	ldrh	r3, [r7, #30]
 8006c02:	4313      	orrs	r3, r2
 8006c04:	83fb      	strh	r3, [r7, #30]
        huart->Instance->BRR = brrtemp;
 8006c06:	697b      	ldr	r3, [r7, #20]
 8006c08:	681b      	ldr	r3, [r3, #0]
 8006c0a:	8bfa      	ldrh	r2, [r7, #30]
 8006c0c:	60da      	str	r2, [r3, #12]
 8006c0e:	e05b      	b.n	8006cc8 <UART_SetConfig+0x564>
      }
      else
      {
        ret = HAL_ERROR;
 8006c10:	2301      	movs	r3, #1
 8006c12:	f887 302a 	strb.w	r3, [r7, #42]	@ 0x2a
 8006c16:	e057      	b.n	8006cc8 <UART_SetConfig+0x564>
      }
    }
  }
  else
  {
    switch (clocksource)
 8006c18:	f897 302b 	ldrb.w	r3, [r7, #43]	@ 0x2b
 8006c1c:	2b08      	cmp	r3, #8
 8006c1e:	d828      	bhi.n	8006c72 <UART_SetConfig+0x50e>
 8006c20:	a201      	add	r2, pc, #4	@ (adr r2, 8006c28 <UART_SetConfig+0x4c4>)
 8006c22:	f852 f023 	ldr.w	pc, [r2, r3, lsl #2]
 8006c26:	bf00      	nop
 8006c28:	08006c4d 	.word	0x08006c4d
 8006c2c:	08006c55 	.word	0x08006c55
 8006c30:	08006c5d 	.word	0x08006c5d
 8006c34:	08006c73 	.word	0x08006c73
 8006c38:	08006c63 	.word	0x08006c63
 8006c3c:	08006c73 	.word	0x08006c73
 8006c40:	08006c73 	.word	0x08006c73
 8006c44:	08006c73 	.word	0x08006c73
 8006c48:	08006c6b 	.word	0x08006c6b
    {
      case UART_CLOCKSOURCE_PCLK1:
        pclk = HAL_RCC_GetPCLK1Freq();
 8006c4c:	f7fe fea0 	bl	8005990 <HAL_RCC_GetPCLK1Freq>
 8006c50:	6278      	str	r0, [r7, #36]	@ 0x24
        break;
 8006c52:	e014      	b.n	8006c7e <UART_SetConfig+0x51a>
      case UART_CLOCKSOURCE_PCLK2:
        pclk = HAL_RCC_GetPCLK2Freq();
 8006c54:	f7fe feb2 	bl	80059bc <HAL_RCC_GetPCLK2Freq>
 8006c58:	6278      	str	r0, [r7, #36]	@ 0x24
        break;
 8006c5a:	e010      	b.n	8006c7e <UART_SetConfig+0x51a>
      case UART_CLOCKSOURCE_HSI:
        pclk = (uint32_t) HSI_VALUE;
 8006c5c:	4b26      	ldr	r3, [pc, #152]	@ (8006cf8 <UART_SetConfig+0x594>)
 8006c5e:	627b      	str	r3, [r7, #36]	@ 0x24
        break;
 8006c60:	e00d      	b.n	8006c7e <UART_SetConfig+0x51a>
      case UART_CLOCKSOURCE_SYSCLK:
        pclk = HAL_RCC_GetSysClockFreq();
 8006c62:	f7fe fe27 	bl	80058b4 <HAL_RCC_GetSysClockFreq>
 8006c66:	6278      	str	r0, [r7, #36]	@ 0x24
        break;
 8006c68:	e009      	b.n	8006c7e <UART_SetConfig+0x51a>
      case UART_CLOCKSOURCE_LSE:
        pclk = (uint32_t) LSE_VALUE;
 8006c6a:	f44f 4300 	mov.w	r3, #32768	@ 0x8000
 8006c6e:	627b      	str	r3, [r7, #36]	@ 0x24
        break;
 8006c70:	e005      	b.n	8006c7e <UART_SetConfig+0x51a>
      default:
        pclk = 0U;
 8006c72:	2300      	movs	r3, #0
 8006c74:	627b      	str	r3, [r7, #36]	@ 0x24
        ret = HAL_ERROR;
 8006c76:	2301      	movs	r3, #1
 8006c78:	f887 302a 	strb.w	r3, [r7, #42]	@ 0x2a
        break;
 8006c7c:	bf00      	nop
    }

    if (pclk != 0U)
 8006c7e:	6a7b      	ldr	r3, [r7, #36]	@ 0x24
 8006c80:	2b00      	cmp	r3, #0
 8006c82:	d021      	beq.n	8006cc8 <UART_SetConfig+0x564>
    {
      /* USARTDIV must be greater than or equal to 0d16 */
      usartdiv = (uint32_t)(UART_DIV_SAMPLING16(pclk, huart->Init.BaudRate, huart->Init.ClockPrescaler));
 8006c84:	697b      	ldr	r3, [r7, #20]
 8006c86:	6a5b      	ldr	r3, [r3, #36]	@ 0x24
 8006c88:	4a1a      	ldr	r2, [pc, #104]	@ (8006cf4 <UART_SetConfig+0x590>)
 8006c8a:	f832 3013 	ldrh.w	r3, [r2, r3, lsl #1]
 8006c8e:	461a      	mov	r2, r3
 8006c90:	6a7b      	ldr	r3, [r7, #36]	@ 0x24
 8006c92:	fbb3 f2f2 	udiv	r2, r3, r2
 8006c96:	697b      	ldr	r3, [r7, #20]
 8006c98:	685b      	ldr	r3, [r3, #4]
 8006c9a:	085b      	lsrs	r3, r3, #1
 8006c9c:	441a      	add	r2, r3
 8006c9e:	697b      	ldr	r3, [r7, #20]
 8006ca0:	685b      	ldr	r3, [r3, #4]
 8006ca2:	fbb2 f3f3 	udiv	r3, r2, r3
 8006ca6:	623b      	str	r3, [r7, #32]
      if ((usartdiv >= UART_BRR_MIN) && (usartdiv <= UART_BRR_MAX))
 8006ca8:	6a3b      	ldr	r3, [r7, #32]
 8006caa:	2b0f      	cmp	r3, #15
 8006cac:	d909      	bls.n	8006cc2 <UART_SetConfig+0x55e>
 8006cae:	6a3b      	ldr	r3, [r7, #32]
 8006cb0:	f5b3 3f80 	cmp.w	r3, #65536	@ 0x10000
 8006cb4:	d205      	bcs.n	8006cc2 <UART_SetConfig+0x55e>
      {
        huart->Instance->BRR = (uint16_t)usartdiv;
 8006cb6:	6a3b      	ldr	r3, [r7, #32]
 8006cb8:	b29a      	uxth	r2, r3
 8006cba:	697b      	ldr	r3, [r7, #20]
 8006cbc:	681b      	ldr	r3, [r3, #0]
 8006cbe:	60da      	str	r2, [r3, #12]
 8006cc0:	e002      	b.n	8006cc8 <UART_SetConfig+0x564>
      }
      else
      {
        ret = HAL_ERROR;
 8006cc2:	2301      	movs	r3, #1
 8006cc4:	f887 302a 	strb.w	r3, [r7, #42]	@ 0x2a
      }
    }
  }

  /* Initialize the number of data to process during RX/TX ISR execution */
  huart->NbTxDataToProcess = 1;
 8006cc8:	697b      	ldr	r3, [r7, #20]
 8006cca:	2201      	movs	r2, #1
 8006ccc:	f8a3 206a 	strh.w	r2, [r3, #106]	@ 0x6a
  huart->NbRxDataToProcess = 1;
 8006cd0:	697b      	ldr	r3, [r7, #20]
 8006cd2:	2201      	movs	r2, #1
 8006cd4:	f8a3 2068 	strh.w	r2, [r3, #104]	@ 0x68

  /* Clear ISR function pointers */
  huart->RxISR = NULL;
 8006cd8:	697b      	ldr	r3, [r7, #20]
 8006cda:	2200      	movs	r2, #0
 8006cdc:	675a      	str	r2, [r3, #116]	@ 0x74
  huart->TxISR = NULL;
 8006cde:	697b      	ldr	r3, [r7, #20]
 8006ce0:	2200      	movs	r2, #0
 8006ce2:	679a      	str	r2, [r3, #120]	@ 0x78

  return ret;
 8006ce4:	f897 302a 	ldrb.w	r3, [r7, #42]	@ 0x2a
}
 8006ce8:	4618      	mov	r0, r3
 8006cea:	3730      	adds	r7, #48	@ 0x30
 8006cec:	46bd      	mov	sp, r7
 8006cee:	e8bd 8fb0 	ldmia.w	sp!, {r4, r5, r7, r8, r9, sl, fp, pc}
 8006cf2:	bf00      	nop
 8006cf4:	080077d4 	.word	0x080077d4
 8006cf8:	00f42400 	.word	0x00f42400

08006cfc <UART_AdvFeatureConfig>:
  * @brief Configure the UART peripheral advanced features.
  * @param huart UART handle.
  * @retval None
  */
void UART_AdvFeatureConfig(UART_HandleTypeDef *huart)
{
 8006cfc:	b480      	push	{r7}
 8006cfe:	b083      	sub	sp, #12
 8006d00:	af00      	add	r7, sp, #0
 8006d02:	6078      	str	r0, [r7, #4]
  /* Check whether the set of advanced features to configure is properly set */
  assert_param(IS_UART_ADVFEATURE_INIT(huart->AdvancedInit.AdvFeatureInit));

  /* if required, configure RX/TX pins swap */
  if (HAL_IS_BIT_SET(huart->AdvancedInit.AdvFeatureInit, UART_ADVFEATURE_SWAP_INIT))
 8006d04:	687b      	ldr	r3, [r7, #4]
 8006d06:	6a9b      	ldr	r3, [r3, #40]	@ 0x28
 8006d08:	f003 0308 	and.w	r3, r3, #8
 8006d0c:	2b00      	cmp	r3, #0
 8006d0e:	d00a      	beq.n	8006d26 <UART_AdvFeatureConfig+0x2a>
  {
    assert_param(IS_UART_ADVFEATURE_SWAP(huart->AdvancedInit.Swap));
    MODIFY_REG(huart->Instance->CR2, USART_CR2_SWAP, huart->AdvancedInit.Swap);
 8006d10:	687b      	ldr	r3, [r7, #4]
 8006d12:	681b      	ldr	r3, [r3, #0]
 8006d14:	685b      	ldr	r3, [r3, #4]
 8006d16:	f423 4100 	bic.w	r1, r3, #32768	@ 0x8000
 8006d1a:	687b      	ldr	r3, [r7, #4]
 8006d1c:	6b9a      	ldr	r2, [r3, #56]	@ 0x38
 8006d1e:	687b      	ldr	r3, [r7, #4]
 8006d20:	681b      	ldr	r3, [r3, #0]
 8006d22:	430a      	orrs	r2, r1
 8006d24:	605a      	str	r2, [r3, #4]
  }

  /* if required, configure TX pin active level inversion */
  if (HAL_IS_BIT_SET(huart->AdvancedInit.AdvFeatureInit, UART_ADVFEATURE_TXINVERT_INIT))
 8006d26:	687b      	ldr	r3, [r7, #4]
 8006d28:	6a9b      	ldr	r3, [r3, #40]	@ 0x28
 8006d2a:	f003 0301 	and.w	r3, r3, #1
 8006d2e:	2b00      	cmp	r3, #0
 8006d30:	d00a      	beq.n	8006d48 <UART_AdvFeatureConfig+0x4c>
  {
    assert_param(IS_UART_ADVFEATURE_TXINV(huart->AdvancedInit.TxPinLevelInvert));
    MODIFY_REG(huart->Instance->CR2, USART_CR2_TXINV, huart->AdvancedInit.TxPinLevelInvert);
 8006d32:	687b      	ldr	r3, [r7, #4]
 8006d34:	681b      	ldr	r3, [r3, #0]
 8006d36:	685b      	ldr	r3, [r3, #4]
 8006d38:	f423 3100 	bic.w	r1, r3, #131072	@ 0x20000
 8006d3c:	687b      	ldr	r3, [r7, #4]
 8006d3e:	6ada      	ldr	r2, [r3, #44]	@ 0x2c
 8006d40:	687b      	ldr	r3, [r7, #4]
 8006d42:	681b      	ldr	r3, [r3, #0]
 8006d44:	430a      	orrs	r2, r1
 8006d46:	605a      	str	r2, [r3, #4]
  }

  /* if required, configure RX pin active level inversion */
  if (HAL_IS_BIT_SET(huart->AdvancedInit.AdvFeatureInit, UART_ADVFEATURE_RXINVERT_INIT))
 8006d48:	687b      	ldr	r3, [r7, #4]
 8006d4a:	6a9b      	ldr	r3, [r3, #40]	@ 0x28
 8006d4c:	f003 0302 	and.w	r3, r3, #2
 8006d50:	2b00      	cmp	r3, #0
 8006d52:	d00a      	beq.n	8006d6a <UART_AdvFeatureConfig+0x6e>
  {
    assert_param(IS_UART_ADVFEATURE_RXINV(huart->AdvancedInit.RxPinLevelInvert));
    MODIFY_REG(huart->Instance->CR2, USART_CR2_RXINV, huart->AdvancedInit.RxPinLevelInvert);
 8006d54:	687b      	ldr	r3, [r7, #4]
 8006d56:	681b      	ldr	r3, [r3, #0]
 8006d58:	685b      	ldr	r3, [r3, #4]
 8006d5a:	f423 3180 	bic.w	r1, r3, #65536	@ 0x10000
 8006d5e:	687b      	ldr	r3, [r7, #4]
 8006d60:	6b1a      	ldr	r2, [r3, #48]	@ 0x30
 8006d62:	687b      	ldr	r3, [r7, #4]
 8006d64:	681b      	ldr	r3, [r3, #0]
 8006d66:	430a      	orrs	r2, r1
 8006d68:	605a      	str	r2, [r3, #4]
  }

  /* if required, configure data inversion */
  if (HAL_IS_BIT_SET(huart->AdvancedInit.AdvFeatureInit, UART_ADVFEATURE_DATAINVERT_INIT))
 8006d6a:	687b      	ldr	r3, [r7, #4]
 8006d6c:	6a9b      	ldr	r3, [r3, #40]	@ 0x28
 8006d6e:	f003 0304 	and.w	r3, r3, #4
 8006d72:	2b00      	cmp	r3, #0
 8006d74:	d00a      	beq.n	8006d8c <UART_AdvFeatureConfig+0x90>
  {
    assert_param(IS_UART_ADVFEATURE_DATAINV(huart->AdvancedInit.DataInvert));
    MODIFY_REG(huart->Instance->CR2, USART_CR2_DATAINV, huart->AdvancedInit.DataInvert);
 8006d76:	687b      	ldr	r3, [r7, #4]
 8006d78:	681b      	ldr	r3, [r3, #0]
 8006d7a:	685b      	ldr	r3, [r3, #4]
 8006d7c:	f423 2180 	bic.w	r1, r3, #262144	@ 0x40000
 8006d80:	687b      	ldr	r3, [r7, #4]
 8006d82:	6b5a      	ldr	r2, [r3, #52]	@ 0x34
 8006d84:	687b      	ldr	r3, [r7, #4]
 8006d86:	681b      	ldr	r3, [r3, #0]
 8006d88:	430a      	orrs	r2, r1
 8006d8a:	605a      	str	r2, [r3, #4]
  }

  /* if required, configure RX overrun detection disabling */
  if (HAL_IS_BIT_SET(huart->AdvancedInit.AdvFeatureInit, UART_ADVFEATURE_RXOVERRUNDISABLE_INIT))
 8006d8c:	687b      	ldr	r3, [r7, #4]
 8006d8e:	6a9b      	ldr	r3, [r3, #40]	@ 0x28
 8006d90:	f003 0310 	and.w	r3, r3, #16
 8006d94:	2b00      	cmp	r3, #0
 8006d96:	d00a      	beq.n	8006dae <UART_AdvFeatureConfig+0xb2>
  {
    assert_param(IS_UART_OVERRUN(huart->AdvancedInit.OverrunDisable));
    MODIFY_REG(huart->Instance->CR3, USART_CR3_OVRDIS, huart->AdvancedInit.OverrunDisable);
 8006d98:	687b      	ldr	r3, [r7, #4]
 8006d9a:	681b      	ldr	r3, [r3, #0]
 8006d9c:	689b      	ldr	r3, [r3, #8]
 8006d9e:	f423 5180 	bic.w	r1, r3, #4096	@ 0x1000
 8006da2:	687b      	ldr	r3, [r7, #4]
 8006da4:	6bda      	ldr	r2, [r3, #60]	@ 0x3c
 8006da6:	687b      	ldr	r3, [r7, #4]
 8006da8:	681b      	ldr	r3, [r3, #0]
 8006daa:	430a      	orrs	r2, r1
 8006dac:	609a      	str	r2, [r3, #8]
  }

  /* if required, configure DMA disabling on reception error */
  if (HAL_IS_BIT_SET(huart->AdvancedInit.AdvFeatureInit, UART_ADVFEATURE_DMADISABLEONERROR_INIT))
 8006dae:	687b      	ldr	r3, [r7, #4]
 8006db0:	6a9b      	ldr	r3, [r3, #40]	@ 0x28
 8006db2:	f003 0320 	and.w	r3, r3, #32
 8006db6:	2b00      	cmp	r3, #0
 8006db8:	d00a      	beq.n	8006dd0 <UART_AdvFeatureConfig+0xd4>
  {
    assert_param(IS_UART_ADVFEATURE_DMAONRXERROR(huart->AdvancedInit.DMADisableonRxError));
    MODIFY_REG(huart->Instance->CR3, USART_CR3_DDRE, huart->AdvancedInit.DMADisableonRxError);
 8006dba:	687b      	ldr	r3, [r7, #4]
 8006dbc:	681b      	ldr	r3, [r3, #0]
 8006dbe:	689b      	ldr	r3, [r3, #8]
 8006dc0:	f423 5100 	bic.w	r1, r3, #8192	@ 0x2000
 8006dc4:	687b      	ldr	r3, [r7, #4]
 8006dc6:	6c1a      	ldr	r2, [r3, #64]	@ 0x40
 8006dc8:	687b      	ldr	r3, [r7, #4]
 8006dca:	681b      	ldr	r3, [r3, #0]
 8006dcc:	430a      	orrs	r2, r1
 8006dce:	609a      	str	r2, [r3, #8]
  }

  /* if required, configure auto Baud rate detection scheme */
  if (HAL_IS_BIT_SET(huart->AdvancedInit.AdvFeatureInit, UART_ADVFEATURE_AUTOBAUDRATE_INIT))
 8006dd0:	687b      	ldr	r3, [r7, #4]
 8006dd2:	6a9b      	ldr	r3, [r3, #40]	@ 0x28
 8006dd4:	f003 0340 	and.w	r3, r3, #64	@ 0x40
 8006dd8:	2b00      	cmp	r3, #0
 8006dda:	d01a      	beq.n	8006e12 <UART_AdvFeatureConfig+0x116>
  {
    assert_param(IS_USART_AUTOBAUDRATE_DETECTION_INSTANCE(huart->Instance));
    assert_param(IS_UART_ADVFEATURE_AUTOBAUDRATE(huart->AdvancedInit.AutoBaudRateEnable));
    MODIFY_REG(huart->Instance->CR2, USART_CR2_ABREN, huart->AdvancedInit.AutoBaudRateEnable);
 8006ddc:	687b      	ldr	r3, [r7, #4]
 8006dde:	681b      	ldr	r3, [r3, #0]
 8006de0:	685b      	ldr	r3, [r3, #4]
 8006de2:	f423 1180 	bic.w	r1, r3, #1048576	@ 0x100000
 8006de6:	687b      	ldr	r3, [r7, #4]
 8006de8:	6c5a      	ldr	r2, [r3, #68]	@ 0x44
 8006dea:	687b      	ldr	r3, [r7, #4]
 8006dec:	681b      	ldr	r3, [r3, #0]
 8006dee:	430a      	orrs	r2, r1
 8006df0:	605a      	str	r2, [r3, #4]
    /* set auto Baudrate detection parameters if detection is enabled */
    if (huart->AdvancedInit.AutoBaudRateEnable == UART_ADVFEATURE_AUTOBAUDRATE_ENABLE)
 8006df2:	687b      	ldr	r3, [r7, #4]
 8006df4:	6c5b      	ldr	r3, [r3, #68]	@ 0x44
 8006df6:	f5b3 1f80 	cmp.w	r3, #1048576	@ 0x100000
 8006dfa:	d10a      	bne.n	8006e12 <UART_AdvFeatureConfig+0x116>
    {
      assert_param(IS_UART_ADVFEATURE_AUTOBAUDRATEMODE(huart->AdvancedInit.AutoBaudRateMode));
      MODIFY_REG(huart->Instance->CR2, USART_CR2_ABRMODE, huart->AdvancedInit.AutoBaudRateMode);
 8006dfc:	687b      	ldr	r3, [r7, #4]
 8006dfe:	681b      	ldr	r3, [r3, #0]
 8006e00:	685b      	ldr	r3, [r3, #4]
 8006e02:	f423 01c0 	bic.w	r1, r3, #6291456	@ 0x600000
 8006e06:	687b      	ldr	r3, [r7, #4]
 8006e08:	6c9a      	ldr	r2, [r3, #72]	@ 0x48
 8006e0a:	687b      	ldr	r3, [r7, #4]
 8006e0c:	681b      	ldr	r3, [r3, #0]
 8006e0e:	430a      	orrs	r2, r1
 8006e10:	605a      	str	r2, [r3, #4]
    }
  }

  /* if required, configure MSB first on communication line */
  if (HAL_IS_BIT_SET(huart->AdvancedInit.AdvFeatureInit, UART_ADVFEATURE_MSBFIRST_INIT))
 8006e12:	687b      	ldr	r3, [r7, #4]
 8006e14:	6a9b      	ldr	r3, [r3, #40]	@ 0x28
 8006e16:	f003 0380 	and.w	r3, r3, #128	@ 0x80
 8006e1a:	2b00      	cmp	r3, #0
 8006e1c:	d00a      	beq.n	8006e34 <UART_AdvFeatureConfig+0x138>
  {
    assert_param(IS_UART_ADVFEATURE_MSBFIRST(huart->AdvancedInit.MSBFirst));
    MODIFY_REG(huart->Instance->CR2, USART_CR2_MSBFIRST, huart->AdvancedInit.MSBFirst);
 8006e1e:	687b      	ldr	r3, [r7, #4]
 8006e20:	681b      	ldr	r3, [r3, #0]
 8006e22:	685b      	ldr	r3, [r3, #4]
 8006e24:	f423 2100 	bic.w	r1, r3, #524288	@ 0x80000
 8006e28:	687b      	ldr	r3, [r7, #4]
 8006e2a:	6cda      	ldr	r2, [r3, #76]	@ 0x4c
 8006e2c:	687b      	ldr	r3, [r7, #4]
 8006e2e:	681b      	ldr	r3, [r3, #0]
 8006e30:	430a      	orrs	r2, r1
 8006e32:	605a      	str	r2, [r3, #4]
  }
}
 8006e34:	bf00      	nop
 8006e36:	370c      	adds	r7, #12
 8006e38:	46bd      	mov	sp, r7
 8006e3a:	f85d 7b04 	ldr.w	r7, [sp], #4
 8006e3e:	4770      	bx	lr

08006e40 <UART_CheckIdleState>:
  * @brief Check the UART Idle State.
  * @param huart UART handle.
  * @retval HAL status
  */
HAL_StatusTypeDef UART_CheckIdleState(UART_HandleTypeDef *huart)
{
 8006e40:	b580      	push	{r7, lr}
 8006e42:	b098      	sub	sp, #96	@ 0x60
 8006e44:	af02      	add	r7, sp, #8
 8006e46:	6078      	str	r0, [r7, #4]
  uint32_t tickstart;

  /* Initialize the UART ErrorCode */
  huart->ErrorCode = HAL_UART_ERROR_NONE;
 8006e48:	687b      	ldr	r3, [r7, #4]
 8006e4a:	2200      	movs	r2, #0
 8006e4c:	f8c3 2090 	str.w	r2, [r3, #144]	@ 0x90

  /* Init tickstart for timeout management */
  tickstart = HAL_GetTick();
 8006e50:	f7fd fb54 	bl	80044fc <HAL_GetTick>
 8006e54:	6578      	str	r0, [r7, #84]	@ 0x54

  /* Check if the Transmitter is enabled */
  if ((huart->Instance->CR1 & USART_CR1_TE) == USART_CR1_TE)
 8006e56:	687b      	ldr	r3, [r7, #4]
 8006e58:	681b      	ldr	r3, [r3, #0]
 8006e5a:	681b      	ldr	r3, [r3, #0]
 8006e5c:	f003 0308 	and.w	r3, r3, #8
 8006e60:	2b08      	cmp	r3, #8
 8006e62:	d12f      	bne.n	8006ec4 <UART_CheckIdleState+0x84>
  {
    /* Wait until TEACK flag is set */
    if (UART_WaitOnFlagUntilTimeout(huart, USART_ISR_TEACK, RESET, tickstart, HAL_UART_TIMEOUT_VALUE) != HAL_OK)
 8006e64:	f06f 437e 	mvn.w	r3, #4261412864	@ 0xfe000000
 8006e68:	9300      	str	r3, [sp, #0]
 8006e6a:	6d7b      	ldr	r3, [r7, #84]	@ 0x54
 8006e6c:	2200      	movs	r2, #0
 8006e6e:	f44f 1100 	mov.w	r1, #2097152	@ 0x200000
 8006e72:	6878      	ldr	r0, [r7, #4]
 8006e74:	f000 f88e 	bl	8006f94 <UART_WaitOnFlagUntilTimeout>
 8006e78:	4603      	mov	r3, r0
 8006e7a:	2b00      	cmp	r3, #0
 8006e7c:	d022      	beq.n	8006ec4 <UART_CheckIdleState+0x84>
    {
      /* Disable TXE interrupt for the interrupt process */
      ATOMIC_CLEAR_BIT(huart->Instance->CR1, (USART_CR1_TXEIE_TXFNFIE));
 8006e7e:	687b      	ldr	r3, [r7, #4]
 8006e80:	681b      	ldr	r3, [r3, #0]
 8006e82:	63bb      	str	r3, [r7, #56]	@ 0x38
 */
__STATIC_FORCEINLINE uint32_t __LDREXW(volatile uint32_t *addr)
{
    uint32_t result;

   __ASM volatile ("ldrex %0, %1" : "=r" (result) : "Q" (*addr) );
 8006e84:	6bbb      	ldr	r3, [r7, #56]	@ 0x38
 8006e86:	e853 3f00 	ldrex	r3, [r3]
 8006e8a:	637b      	str	r3, [r7, #52]	@ 0x34
   return(result);
 8006e8c:	6b7b      	ldr	r3, [r7, #52]	@ 0x34
 8006e8e:	f023 0380 	bic.w	r3, r3, #128	@ 0x80
 8006e92:	653b      	str	r3, [r7, #80]	@ 0x50
 8006e94:	687b      	ldr	r3, [r7, #4]
 8006e96:	681b      	ldr	r3, [r3, #0]
 8006e98:	461a      	mov	r2, r3
 8006e9a:	6d3b      	ldr	r3, [r7, #80]	@ 0x50
 8006e9c:	647b      	str	r3, [r7, #68]	@ 0x44
 8006e9e:	643a      	str	r2, [r7, #64]	@ 0x40
 */
__STATIC_FORCEINLINE uint32_t __STREXW(uint32_t value, volatile uint32_t *addr)
{
   uint32_t result;

   __ASM volatile ("strex %0, %2, %1" : "=&r" (result), "=Q" (*addr) : "r" (value) );
 8006ea0:	6c39      	ldr	r1, [r7, #64]	@ 0x40
 8006ea2:	6c7a      	ldr	r2, [r7, #68]	@ 0x44
 8006ea4:	e841 2300 	strex	r3, r2, [r1]
 8006ea8:	63fb      	str	r3, [r7, #60]	@ 0x3c
   return(result);
 8006eaa:	6bfb      	ldr	r3, [r7, #60]	@ 0x3c
 8006eac:	2b00      	cmp	r3, #0
 8006eae:	d1e6      	bne.n	8006e7e <UART_CheckIdleState+0x3e>

      huart->gState = HAL_UART_STATE_READY;
 8006eb0:	687b      	ldr	r3, [r7, #4]
 8006eb2:	2220      	movs	r2, #32
 8006eb4:	f8c3 2088 	str.w	r2, [r3, #136]	@ 0x88

      __HAL_UNLOCK(huart);
 8006eb8:	687b      	ldr	r3, [r7, #4]
 8006eba:	2200      	movs	r2, #0
 8006ebc:	f883 2084 	strb.w	r2, [r3, #132]	@ 0x84

      /* Timeout occurred */
      return HAL_TIMEOUT;
 8006ec0:	2303      	movs	r3, #3
 8006ec2:	e063      	b.n	8006f8c <UART_CheckIdleState+0x14c>
    }
  }

  /* Check if the Receiver is enabled */
  if ((huart->Instance->CR1 & USART_CR1_RE) == USART_CR1_RE)
 8006ec4:	687b      	ldr	r3, [r7, #4]
 8006ec6:	681b      	ldr	r3, [r3, #0]
 8006ec8:	681b      	ldr	r3, [r3, #0]
 8006eca:	f003 0304 	and.w	r3, r3, #4
 8006ece:	2b04      	cmp	r3, #4
 8006ed0:	d149      	bne.n	8006f66 <UART_CheckIdleState+0x126>
  {
    /* Wait until REACK flag is set */
    if (UART_WaitOnFlagUntilTimeout(huart, USART_ISR_REACK, RESET, tickstart, HAL_UART_TIMEOUT_VALUE) != HAL_OK)
 8006ed2:	f06f 437e 	mvn.w	r3, #4261412864	@ 0xfe000000
 8006ed6:	9300      	str	r3, [sp, #0]
 8006ed8:	6d7b      	ldr	r3, [r7, #84]	@ 0x54
 8006eda:	2200      	movs	r2, #0
 8006edc:	f44f 0180 	mov.w	r1, #4194304	@ 0x400000
 8006ee0:	6878      	ldr	r0, [r7, #4]
 8006ee2:	f000 f857 	bl	8006f94 <UART_WaitOnFlagUntilTimeout>
 8006ee6:	4603      	mov	r3, r0
 8006ee8:	2b00      	cmp	r3, #0
 8006eea:	d03c      	beq.n	8006f66 <UART_CheckIdleState+0x126>
    {
      /* Disable RXNE, PE and ERR (Frame error, noise error, overrun error)
      interrupts for the interrupt process */
      ATOMIC_CLEAR_BIT(huart->Instance->CR1, (USART_CR1_RXNEIE_RXFNEIE | USART_CR1_PEIE));
 8006eec:	687b      	ldr	r3, [r7, #4]
 8006eee:	681b      	ldr	r3, [r3, #0]
 8006ef0:	627b      	str	r3, [r7, #36]	@ 0x24
   __ASM volatile ("ldrex %0, %1" : "=r" (result) : "Q" (*addr) );
 8006ef2:	6a7b      	ldr	r3, [r7, #36]	@ 0x24
 8006ef4:	e853 3f00 	ldrex	r3, [r3]
 8006ef8:	623b      	str	r3, [r7, #32]
   return(result);
 8006efa:	6a3b      	ldr	r3, [r7, #32]
 8006efc:	f423 7390 	bic.w	r3, r3, #288	@ 0x120
 8006f00:	64fb      	str	r3, [r7, #76]	@ 0x4c
 8006f02:	687b      	ldr	r3, [r7, #4]
 8006f04:	681b      	ldr	r3, [r3, #0]
 8006f06:	461a      	mov	r2, r3
 8006f08:	6cfb      	ldr	r3, [r7, #76]	@ 0x4c
 8006f0a:	633b      	str	r3, [r7, #48]	@ 0x30
 8006f0c:	62fa      	str	r2, [r7, #44]	@ 0x2c
   __ASM volatile ("strex %0, %2, %1" : "=&r" (result), "=Q" (*addr) : "r" (value) );
 8006f0e:	6af9      	ldr	r1, [r7, #44]	@ 0x2c
 8006f10:	6b3a      	ldr	r2, [r7, #48]	@ 0x30
 8006f12:	e841 2300 	strex	r3, r2, [r1]
 8006f16:	62bb      	str	r3, [r7, #40]	@ 0x28
   return(result);
 8006f18:	6abb      	ldr	r3, [r7, #40]	@ 0x28
 8006f1a:	2b00      	cmp	r3, #0
 8006f1c:	d1e6      	bne.n	8006eec <UART_CheckIdleState+0xac>
      ATOMIC_CLEAR_BIT(huart->Instance->CR3, USART_CR3_EIE);
 8006f1e:	687b      	ldr	r3, [r7, #4]
 8006f20:	681b      	ldr	r3, [r3, #0]
 8006f22:	3308      	adds	r3, #8
 8006f24:	613b      	str	r3, [r7, #16]
   __ASM volatile ("ldrex %0, %1" : "=r" (result) : "Q" (*addr) );
 8006f26:	693b      	ldr	r3, [r7, #16]
 8006f28:	e853 3f00 	ldrex	r3, [r3]
 8006f2c:	60fb      	str	r3, [r7, #12]
   return(result);
 8006f2e:	68fb      	ldr	r3, [r7, #12]
 8006f30:	f023 0301 	bic.w	r3, r3, #1
 8006f34:	64bb      	str	r3, [r7, #72]	@ 0x48
 8006f36:	687b      	ldr	r3, [r7, #4]
 8006f38:	681b      	ldr	r3, [r3, #0]
 8006f3a:	3308      	adds	r3, #8
 8006f3c:	6cba      	ldr	r2, [r7, #72]	@ 0x48
 8006f3e:	61fa      	str	r2, [r7, #28]
 8006f40:	61bb      	str	r3, [r7, #24]
   __ASM volatile ("strex %0, %2, %1" : "=&r" (result), "=Q" (*addr) : "r" (value) );
 8006f42:	69b9      	ldr	r1, [r7, #24]
 8006f44:	69fa      	ldr	r2, [r7, #28]
 8006f46:	e841 2300 	strex	r3, r2, [r1]
 8006f4a:	617b      	str	r3, [r7, #20]
   return(result);
 8006f4c:	697b      	ldr	r3, [r7, #20]
 8006f4e:	2b00      	cmp	r3, #0
 8006f50:	d1e5      	bne.n	8006f1e <UART_CheckIdleState+0xde>

      huart->RxState = HAL_UART_STATE_READY;
 8006f52:	687b      	ldr	r3, [r7, #4]
 8006f54:	2220      	movs	r2, #32
 8006f56:	f8c3 208c 	str.w	r2, [r3, #140]	@ 0x8c

      __HAL_UNLOCK(huart);
 8006f5a:	687b      	ldr	r3, [r7, #4]
 8006f5c:	2200      	movs	r2, #0
 8006f5e:	f883 2084 	strb.w	r2, [r3, #132]	@ 0x84

      /* Timeout occurred */
      return HAL_TIMEOUT;
 8006f62:	2303      	movs	r3, #3
 8006f64:	e012      	b.n	8006f8c <UART_CheckIdleState+0x14c>
    }
  }

  /* Initialize the UART State */
  huart->gState = HAL_UART_STATE_READY;
 8006f66:	687b      	ldr	r3, [r7, #4]
 8006f68:	2220      	movs	r2, #32
 8006f6a:	f8c3 2088 	str.w	r2, [r3, #136]	@ 0x88
  huart->RxState = HAL_UART_STATE_READY;
 8006f6e:	687b      	ldr	r3, [r7, #4]
 8006f70:	2220      	movs	r2, #32
 8006f72:	f8c3 208c 	str.w	r2, [r3, #140]	@ 0x8c
  huart->ReceptionType = HAL_UART_RECEPTION_STANDARD;
 8006f76:	687b      	ldr	r3, [r7, #4]
 8006f78:	2200      	movs	r2, #0
 8006f7a:	66da      	str	r2, [r3, #108]	@ 0x6c
  huart->RxEventType = HAL_UART_RXEVENT_TC;
 8006f7c:	687b      	ldr	r3, [r7, #4]
 8006f7e:	2200      	movs	r2, #0
 8006f80:	671a      	str	r2, [r3, #112]	@ 0x70

  __HAL_UNLOCK(huart);
 8006f82:	687b      	ldr	r3, [r7, #4]
 8006f84:	2200      	movs	r2, #0
 8006f86:	f883 2084 	strb.w	r2, [r3, #132]	@ 0x84

  return HAL_OK;
 8006f8a:	2300      	movs	r3, #0
}
 8006f8c:	4618      	mov	r0, r3
 8006f8e:	3758      	adds	r7, #88	@ 0x58
 8006f90:	46bd      	mov	sp, r7
 8006f92:	bd80      	pop	{r7, pc}

08006f94 <UART_WaitOnFlagUntilTimeout>:
  * @param Timeout   Timeout duration
  * @retval HAL status
  */
HAL_StatusTypeDef UART_WaitOnFlagUntilTimeout(UART_HandleTypeDef *huart, uint32_t Flag, FlagStatus Status,
                                              uint32_t Tickstart, uint32_t Timeout)
{
 8006f94:	b580      	push	{r7, lr}
 8006f96:	b084      	sub	sp, #16
 8006f98:	af00      	add	r7, sp, #0
 8006f9a:	60f8      	str	r0, [r7, #12]
 8006f9c:	60b9      	str	r1, [r7, #8]
 8006f9e:	603b      	str	r3, [r7, #0]
 8006fa0:	4613      	mov	r3, r2
 8006fa2:	71fb      	strb	r3, [r7, #7]
  /* Wait until flag is set */
  while ((__HAL_UART_GET_FLAG(huart, Flag) ? SET : RESET) == Status)
 8006fa4:	e04f      	b.n	8007046 <UART_WaitOnFlagUntilTimeout+0xb2>
  {
    /* Check for the Timeout */
    if (Timeout != HAL_MAX_DELAY)
 8006fa6:	69bb      	ldr	r3, [r7, #24]
 8006fa8:	f1b3 3fff 	cmp.w	r3, #4294967295	@ 0xffffffff
 8006fac:	d04b      	beq.n	8007046 <UART_WaitOnFlagUntilTimeout+0xb2>
    {
      if (((HAL_GetTick() - Tickstart) > Timeout) || (Timeout == 0U))
 8006fae:	f7fd faa5 	bl	80044fc <HAL_GetTick>
 8006fb2:	4602      	mov	r2, r0
 8006fb4:	683b      	ldr	r3, [r7, #0]
 8006fb6:	1ad3      	subs	r3, r2, r3
 8006fb8:	69ba      	ldr	r2, [r7, #24]
 8006fba:	429a      	cmp	r2, r3
 8006fbc:	d302      	bcc.n	8006fc4 <UART_WaitOnFlagUntilTimeout+0x30>
 8006fbe:	69bb      	ldr	r3, [r7, #24]
 8006fc0:	2b00      	cmp	r3, #0
 8006fc2:	d101      	bne.n	8006fc8 <UART_WaitOnFlagUntilTimeout+0x34>
      {

        return HAL_TIMEOUT;
 8006fc4:	2303      	movs	r3, #3
 8006fc6:	e04e      	b.n	8007066 <UART_WaitOnFlagUntilTimeout+0xd2>
      }

      if ((READ_BIT(huart->Instance->CR1, USART_CR1_RE) != 0U) && (Flag != UART_FLAG_TXE) && (Flag != UART_FLAG_TC))
 8006fc8:	68fb      	ldr	r3, [r7, #12]
 8006fca:	681b      	ldr	r3, [r3, #0]
 8006fcc:	681b      	ldr	r3, [r3, #0]
 8006fce:	f003 0304 	and.w	r3, r3, #4
 8006fd2:	2b00      	cmp	r3, #0
 8006fd4:	d037      	beq.n	8007046 <UART_WaitOnFlagUntilTimeout+0xb2>
 8006fd6:	68bb      	ldr	r3, [r7, #8]
 8006fd8:	2b80      	cmp	r3, #128	@ 0x80
 8006fda:	d034      	beq.n	8007046 <UART_WaitOnFlagUntilTimeout+0xb2>
 8006fdc:	68bb      	ldr	r3, [r7, #8]
 8006fde:	2b40      	cmp	r3, #64	@ 0x40
 8006fe0:	d031      	beq.n	8007046 <UART_WaitOnFlagUntilTimeout+0xb2>
      {
        if (__HAL_UART_GET_FLAG(huart, UART_FLAG_ORE) == SET)
 8006fe2:	68fb      	ldr	r3, [r7, #12]
 8006fe4:	681b      	ldr	r3, [r3, #0]
 8006fe6:	69db      	ldr	r3, [r3, #28]
 8006fe8:	f003 0308 	and.w	r3, r3, #8
 8006fec:	2b08      	cmp	r3, #8
 8006fee:	d110      	bne.n	8007012 <UART_WaitOnFlagUntilTimeout+0x7e>
        {
          /* Clear Overrun Error flag*/
          __HAL_UART_CLEAR_FLAG(huart, UART_CLEAR_OREF);
 8006ff0:	68fb      	ldr	r3, [r7, #12]
 8006ff2:	681b      	ldr	r3, [r3, #0]
 8006ff4:	2208      	movs	r2, #8
 8006ff6:	621a      	str	r2, [r3, #32]

          /* Blocking error : transfer is aborted
          Set the UART state ready to be able to start again the process,
          Disable Rx Interrupts if ongoing */
          UART_EndRxTransfer(huart);
 8006ff8:	68f8      	ldr	r0, [r7, #12]
 8006ffa:	f000 f838 	bl	800706e <UART_EndRxTransfer>

          huart->ErrorCode = HAL_UART_ERROR_ORE;
 8006ffe:	68fb      	ldr	r3, [r7, #12]
 8007000:	2208      	movs	r2, #8
 8007002:	f8c3 2090 	str.w	r2, [r3, #144]	@ 0x90

          /* Process Unlocked */
          __HAL_UNLOCK(huart);
 8007006:	68fb      	ldr	r3, [r7, #12]
 8007008:	2200      	movs	r2, #0
 800700a:	f883 2084 	strb.w	r2, [r3, #132]	@ 0x84

          return HAL_ERROR;
 800700e:	2301      	movs	r3, #1
 8007010:	e029      	b.n	8007066 <UART_WaitOnFlagUntilTimeout+0xd2>
        }
        if (__HAL_UART_GET_FLAG(huart, UART_FLAG_RTOF) == SET)
 8007012:	68fb      	ldr	r3, [r7, #12]
 8007014:	681b      	ldr	r3, [r3, #0]
 8007016:	69db      	ldr	r3, [r3, #28]
 8007018:	f403 6300 	and.w	r3, r3, #2048	@ 0x800
 800701c:	f5b3 6f00 	cmp.w	r3, #2048	@ 0x800
 8007020:	d111      	bne.n	8007046 <UART_WaitOnFlagUntilTimeout+0xb2>
        {
          /* Clear Receiver Timeout flag*/
          __HAL_UART_CLEAR_FLAG(huart, UART_CLEAR_RTOF);
 8007022:	68fb      	ldr	r3, [r7, #12]
 8007024:	681b      	ldr	r3, [r3, #0]
 8007026:	f44f 6200 	mov.w	r2, #2048	@ 0x800
 800702a:	621a      	str	r2, [r3, #32]

          /* Blocking error : transfer is aborted
          Set the UART state ready to be able to start again the process,
          Disable Rx Interrupts if ongoing */
          UART_EndRxTransfer(huart);
 800702c:	68f8      	ldr	r0, [r7, #12]
 800702e:	f000 f81e 	bl	800706e <UART_EndRxTransfer>

          huart->ErrorCode = HAL_UART_ERROR_RTO;
 8007032:	68fb      	ldr	r3, [r7, #12]
 8007034:	2220      	movs	r2, #32
 8007036:	f8c3 2090 	str.w	r2, [r3, #144]	@ 0x90

          /* Process Unlocked */
          __HAL_UNLOCK(huart);
 800703a:	68fb      	ldr	r3, [r7, #12]
 800703c:	2200      	movs	r2, #0
 800703e:	f883 2084 	strb.w	r2, [r3, #132]	@ 0x84

          return HAL_TIMEOUT;
 8007042:	2303      	movs	r3, #3
 8007044:	e00f      	b.n	8007066 <UART_WaitOnFlagUntilTimeout+0xd2>
  while ((__HAL_UART_GET_FLAG(huart, Flag) ? SET : RESET) == Status)
 8007046:	68fb      	ldr	r3, [r7, #12]
 8007048:	681b      	ldr	r3, [r3, #0]
 800704a:	69da      	ldr	r2, [r3, #28]
 800704c:	68bb      	ldr	r3, [r7, #8]
 800704e:	4013      	ands	r3, r2
 8007050:	68ba      	ldr	r2, [r7, #8]
 8007052:	429a      	cmp	r2, r3
 8007054:	bf0c      	ite	eq
 8007056:	2301      	moveq	r3, #1
 8007058:	2300      	movne	r3, #0
 800705a:	b2db      	uxtb	r3, r3
 800705c:	461a      	mov	r2, r3
 800705e:	79fb      	ldrb	r3, [r7, #7]
 8007060:	429a      	cmp	r2, r3
 8007062:	d0a0      	beq.n	8006fa6 <UART_WaitOnFlagUntilTimeout+0x12>
        }
      }
    }
  }
  return HAL_OK;
 8007064:	2300      	movs	r3, #0
}
 8007066:	4618      	mov	r0, r3
 8007068:	3710      	adds	r7, #16
 800706a:	46bd      	mov	sp, r7
 800706c:	bd80      	pop	{r7, pc}

0800706e <UART_EndRxTransfer>:
  * @brief  End ongoing Rx transfer on UART peripheral (following error detection or Reception completion).
  * @param  huart UART handle.
  * @retval None
  */
static void UART_EndRxTransfer(UART_HandleTypeDef *huart)
{
 800706e:	b480      	push	{r7}
 8007070:	b095      	sub	sp, #84	@ 0x54
 8007072:	af00      	add	r7, sp, #0
 8007074:	6078      	str	r0, [r7, #4]
  /* Disable RXNE, PE and ERR (Frame error, noise error, overrun error) interrupts */
  ATOMIC_CLEAR_BIT(huart->Instance->CR1, (USART_CR1_RXNEIE_RXFNEIE | USART_CR1_PEIE));
 8007076:	687b      	ldr	r3, [r7, #4]
 8007078:	681b      	ldr	r3, [r3, #0]
 800707a:	637b      	str	r3, [r7, #52]	@ 0x34
   __ASM volatile ("ldrex %0, %1" : "=r" (result) : "Q" (*addr) );
 800707c:	6b7b      	ldr	r3, [r7, #52]	@ 0x34
 800707e:	e853 3f00 	ldrex	r3, [r3]
 8007082:	633b      	str	r3, [r7, #48]	@ 0x30
   return(result);
 8007084:	6b3b      	ldr	r3, [r7, #48]	@ 0x30
 8007086:	f423 7390 	bic.w	r3, r3, #288	@ 0x120
 800708a:	64fb      	str	r3, [r7, #76]	@ 0x4c
 800708c:	687b      	ldr	r3, [r7, #4]
 800708e:	681b      	ldr	r3, [r3, #0]
 8007090:	461a      	mov	r2, r3
 8007092:	6cfb      	ldr	r3, [r7, #76]	@ 0x4c
 8007094:	643b      	str	r3, [r7, #64]	@ 0x40
 8007096:	63fa      	str	r2, [r7, #60]	@ 0x3c
   __ASM volatile ("strex %0, %2, %1" : "=&r" (result), "=Q" (*addr) : "r" (value) );
 8007098:	6bf9      	ldr	r1, [r7, #60]	@ 0x3c
 800709a:	6c3a      	ldr	r2, [r7, #64]	@ 0x40
 800709c:	e841 2300 	strex	r3, r2, [r1]
 80070a0:	63bb      	str	r3, [r7, #56]	@ 0x38
   return(result);
 80070a2:	6bbb      	ldr	r3, [r7, #56]	@ 0x38
 80070a4:	2b00      	cmp	r3, #0
 80070a6:	d1e6      	bne.n	8007076 <UART_EndRxTransfer+0x8>
  ATOMIC_CLEAR_BIT(huart->Instance->CR3, (USART_CR3_EIE | USART_CR3_RXFTIE));
 80070a8:	687b      	ldr	r3, [r7, #4]
 80070aa:	681b      	ldr	r3, [r3, #0]
 80070ac:	3308      	adds	r3, #8
 80070ae:	623b      	str	r3, [r7, #32]
   __ASM volatile ("ldrex %0, %1" : "=r" (result) : "Q" (*addr) );
 80070b0:	6a3b      	ldr	r3, [r7, #32]
 80070b2:	e853 3f00 	ldrex	r3, [r3]
 80070b6:	61fb      	str	r3, [r7, #28]
   return(result);
 80070b8:	69fb      	ldr	r3, [r7, #28]
 80070ba:	f023 5380 	bic.w	r3, r3, #268435456	@ 0x10000000
 80070be:	f023 0301 	bic.w	r3, r3, #1
 80070c2:	64bb      	str	r3, [r7, #72]	@ 0x48
 80070c4:	687b      	ldr	r3, [r7, #4]
 80070c6:	681b      	ldr	r3, [r3, #0]
 80070c8:	3308      	adds	r3, #8
 80070ca:	6cba      	ldr	r2, [r7, #72]	@ 0x48
 80070cc:	62fa      	str	r2, [r7, #44]	@ 0x2c
 80070ce:	62bb      	str	r3, [r7, #40]	@ 0x28
   __ASM volatile ("strex %0, %2, %1" : "=&r" (result), "=Q" (*addr) : "r" (value) );
 80070d0:	6ab9      	ldr	r1, [r7, #40]	@ 0x28
 80070d2:	6afa      	ldr	r2, [r7, #44]	@ 0x2c
 80070d4:	e841 2300 	strex	r3, r2, [r1]
 80070d8:	627b      	str	r3, [r7, #36]	@ 0x24
   return(result);
 80070da:	6a7b      	ldr	r3, [r7, #36]	@ 0x24
 80070dc:	2b00      	cmp	r3, #0
 80070de:	d1e3      	bne.n	80070a8 <UART_EndRxTransfer+0x3a>

  /* In case of reception waiting for IDLE event, disable also the IDLE IE interrupt source */
  if (huart->ReceptionType == HAL_UART_RECEPTION_TOIDLE)
 80070e0:	687b      	ldr	r3, [r7, #4]
 80070e2:	6edb      	ldr	r3, [r3, #108]	@ 0x6c
 80070e4:	2b01      	cmp	r3, #1
 80070e6:	d118      	bne.n	800711a <UART_EndRxTransfer+0xac>
  {
    ATOMIC_CLEAR_BIT(huart->Instance->CR1, USART_CR1_IDLEIE);
 80070e8:	687b      	ldr	r3, [r7, #4]
 80070ea:	681b      	ldr	r3, [r3, #0]
 80070ec:	60fb      	str	r3, [r7, #12]
   __ASM volatile ("ldrex %0, %1" : "=r" (result) : "Q" (*addr) );
 80070ee:	68fb      	ldr	r3, [r7, #12]
 80070f0:	e853 3f00 	ldrex	r3, [r3]
 80070f4:	60bb      	str	r3, [r7, #8]
   return(result);
 80070f6:	68bb      	ldr	r3, [r7, #8]
 80070f8:	f023 0310 	bic.w	r3, r3, #16
 80070fc:	647b      	str	r3, [r7, #68]	@ 0x44
 80070fe:	687b      	ldr	r3, [r7, #4]
 8007100:	681b      	ldr	r3, [r3, #0]
 8007102:	461a      	mov	r2, r3
 8007104:	6c7b      	ldr	r3, [r7, #68]	@ 0x44
 8007106:	61bb      	str	r3, [r7, #24]
 8007108:	617a      	str	r2, [r7, #20]
   __ASM volatile ("strex %0, %2, %1" : "=&r" (result), "=Q" (*addr) : "r" (value) );
 800710a:	6979      	ldr	r1, [r7, #20]
 800710c:	69ba      	ldr	r2, [r7, #24]
 800710e:	e841 2300 	strex	r3, r2, [r1]
 8007112:	613b      	str	r3, [r7, #16]
   return(result);
 8007114:	693b      	ldr	r3, [r7, #16]
 8007116:	2b00      	cmp	r3, #0
 8007118:	d1e6      	bne.n	80070e8 <UART_EndRxTransfer+0x7a>
  }

  /* At end of Rx process, restore huart->RxState to Ready */
  huart->RxState = HAL_UART_STATE_READY;
 800711a:	687b      	ldr	r3, [r7, #4]
 800711c:	2220      	movs	r2, #32
 800711e:	f8c3 208c 	str.w	r2, [r3, #140]	@ 0x8c
  huart->ReceptionType = HAL_UART_RECEPTION_STANDARD;
 8007122:	687b      	ldr	r3, [r7, #4]
 8007124:	2200      	movs	r2, #0
 8007126:	66da      	str	r2, [r3, #108]	@ 0x6c

  /* Reset RxIsr function pointer */
  huart->RxISR = NULL;
 8007128:	687b      	ldr	r3, [r7, #4]
 800712a:	2200      	movs	r2, #0
 800712c:	675a      	str	r2, [r3, #116]	@ 0x74
}
 800712e:	bf00      	nop
 8007130:	3754      	adds	r7, #84	@ 0x54
 8007132:	46bd      	mov	sp, r7
 8007134:	f85d 7b04 	ldr.w	r7, [sp], #4
 8007138:	4770      	bx	lr

0800713a <memset>:
 800713a:	4402      	add	r2, r0
 800713c:	4603      	mov	r3, r0
 800713e:	4293      	cmp	r3, r2
 8007140:	d100      	bne.n	8007144 <memset+0xa>
 8007142:	4770      	bx	lr
 8007144:	f803 1b01 	strb.w	r1, [r3], #1
 8007148:	e7f9      	b.n	800713e <memset+0x4>
	...

0800714c <__errno>:
 800714c:	4b01      	ldr	r3, [pc, #4]	@ (8007154 <__errno+0x8>)
 800714e:	6818      	ldr	r0, [r3, #0]
 8007150:	4770      	bx	lr
 8007152:	bf00      	nop
 8007154:	200000e0 	.word	0x200000e0

08007158 <__libc_init_array>:
 8007158:	b570      	push	{r4, r5, r6, lr}
 800715a:	4b0d      	ldr	r3, [pc, #52]	@ (8007190 <__libc_init_array+0x38>)
 800715c:	4d0d      	ldr	r5, [pc, #52]	@ (8007194 <__libc_init_array+0x3c>)
 800715e:	1b5b      	subs	r3, r3, r5
 8007160:	109c      	asrs	r4, r3, #2
 8007162:	2600      	movs	r6, #0
 8007164:	42a6      	cmp	r6, r4
 8007166:	d109      	bne.n	800717c <__libc_init_array+0x24>
 8007168:	f000 fae2 	bl	8007730 <_init>
 800716c:	4d0a      	ldr	r5, [pc, #40]	@ (8007198 <__libc_init_array+0x40>)
 800716e:	4b0b      	ldr	r3, [pc, #44]	@ (800719c <__libc_init_array+0x44>)
 8007170:	1b5b      	subs	r3, r3, r5
 8007172:	109c      	asrs	r4, r3, #2
 8007174:	2600      	movs	r6, #0
 8007176:	42a6      	cmp	r6, r4
 8007178:	d105      	bne.n	8007186 <__libc_init_array+0x2e>
 800717a:	bd70      	pop	{r4, r5, r6, pc}
 800717c:	f855 3b04 	ldr.w	r3, [r5], #4
 8007180:	4798      	blx	r3
 8007182:	3601      	adds	r6, #1
 8007184:	e7ee      	b.n	8007164 <__libc_init_array+0xc>
 8007186:	f855 3b04 	ldr.w	r3, [r5], #4
 800718a:	4798      	blx	r3
 800718c:	3601      	adds	r6, #1
 800718e:	e7f2      	b.n	8007176 <__libc_init_array+0x1e>
 8007190:	08007830 	.word	0x08007830
 8007194:	08007830 	.word	0x08007830
 8007198:	08007830 	.word	0x08007830
 800719c:	08007834 	.word	0x08007834

080071a0 <strcpy>:
 80071a0:	4603      	mov	r3, r0
 80071a2:	f811 2b01 	ldrb.w	r2, [r1], #1
 80071a6:	f803 2b01 	strb.w	r2, [r3], #1
 80071aa:	2a00      	cmp	r2, #0
 80071ac:	d1f9      	bne.n	80071a2 <strcpy+0x2>
 80071ae:	4770      	bx	lr

080071b0 <memcpy>:
 80071b0:	440a      	add	r2, r1
 80071b2:	4291      	cmp	r1, r2
 80071b4:	f100 33ff 	add.w	r3, r0, #4294967295	@ 0xffffffff
 80071b8:	d100      	bne.n	80071bc <memcpy+0xc>
 80071ba:	4770      	bx	lr
 80071bc:	b510      	push	{r4, lr}
 80071be:	f811 4b01 	ldrb.w	r4, [r1], #1
 80071c2:	f803 4f01 	strb.w	r4, [r3, #1]!
 80071c6:	4291      	cmp	r1, r2
 80071c8:	d1f9      	bne.n	80071be <memcpy+0xe>
 80071ca:	bd10      	pop	{r4, pc}

080071cc <asinf>:
 80071cc:	b508      	push	{r3, lr}
 80071ce:	ed2d 8b02 	vpush	{d8}
 80071d2:	eeb0 8a40 	vmov.f32	s16, s0
 80071d6:	f000 f835 	bl	8007244 <__ieee754_asinf>
 80071da:	eeb4 8a48 	vcmp.f32	s16, s16
 80071de:	eef1 fa10 	vmrs	APSR_nzcv, fpscr
 80071e2:	eef0 8a40 	vmov.f32	s17, s0
 80071e6:	d60a      	bvs.n	80071fe <asinf+0x32>
 80071e8:	eeb0 0a48 	vmov.f32	s0, s16
 80071ec:	f000 f81c 	bl	8007228 <fabsf>
 80071f0:	eef7 7a00 	vmov.f32	s15, #112	@ 0x3f800000  1.0
 80071f4:	eeb4 0ae7 	vcmpe.f32	s0, s15
 80071f8:	eef1 fa10 	vmrs	APSR_nzcv, fpscr
 80071fc:	dc04      	bgt.n	8007208 <asinf+0x3c>
 80071fe:	eeb0 0a68 	vmov.f32	s0, s17
 8007202:	ecbd 8b02 	vpop	{d8}
 8007206:	bd08      	pop	{r3, pc}
 8007208:	f7ff ffa0 	bl	800714c <__errno>
 800720c:	ecbd 8b02 	vpop	{d8}
 8007210:	4603      	mov	r3, r0
 8007212:	2221      	movs	r2, #33	@ 0x21
 8007214:	601a      	str	r2, [r3, #0]
 8007216:	4802      	ldr	r0, [pc, #8]	@ (8007220 <asinf+0x54>)
 8007218:	e8bd 4008 	ldmia.w	sp!, {r3, lr}
 800721c:	f000 b80c 	b.w	8007238 <nanf>
 8007220:	080077ec 	.word	0x080077ec

08007224 <atan2f>:
 8007224:	f000 b908 	b.w	8007438 <__ieee754_atan2f>

08007228 <fabsf>:
 8007228:	ee10 3a10 	vmov	r3, s0
 800722c:	f023 4300 	bic.w	r3, r3, #2147483648	@ 0x80000000
 8007230:	ee00 3a10 	vmov	s0, r3
 8007234:	4770      	bx	lr
 8007236:	bf00      	nop

08007238 <nanf>:
 8007238:	ed9f 0a01 	vldr	s0, [pc, #4]	@ 8007240 <nanf+0x8>
 800723c:	4770      	bx	lr
 800723e:	bf00      	nop
 8007240:	7fc00000 	.word	0x7fc00000

08007244 <__ieee754_asinf>:
 8007244:	b538      	push	{r3, r4, r5, lr}
 8007246:	ee10 5a10 	vmov	r5, s0
 800724a:	f025 4400 	bic.w	r4, r5, #2147483648	@ 0x80000000
 800724e:	f1b4 5f7e 	cmp.w	r4, #1065353216	@ 0x3f800000
 8007252:	ed2d 8b04 	vpush	{d8-d9}
 8007256:	eef0 7a40 	vmov.f32	s15, s0
 800725a:	d07f      	beq.n	800735c <__ieee754_asinf+0x118>
 800725c:	d877      	bhi.n	800734e <__ieee754_asinf+0x10a>
 800725e:	f1b4 5f7c 	cmp.w	r4, #1056964608	@ 0x3f000000
 8007262:	d20e      	bcs.n	8007282 <__ieee754_asinf+0x3e>
 8007264:	f1b4 5f48 	cmp.w	r4, #838860800	@ 0x32000000
 8007268:	f080 8090 	bcs.w	800738c <__ieee754_asinf+0x148>
 800726c:	ed9f 7a62 	vldr	s14, [pc, #392]	@ 80073f8 <__ieee754_asinf+0x1b4>
 8007270:	ee30 7a07 	vadd.f32	s14, s0, s14
 8007274:	eef7 6a00 	vmov.f32	s13, #112	@ 0x3f800000  1.0
 8007278:	eeb4 7ae6 	vcmpe.f32	s14, s13
 800727c:	eef1 fa10 	vmrs	APSR_nzcv, fpscr
 8007280:	dc62      	bgt.n	8007348 <__ieee754_asinf+0x104>
 8007282:	eeb0 0a67 	vmov.f32	s0, s15
 8007286:	f7ff ffcf 	bl	8007228 <fabsf>
 800728a:	eef7 7a00 	vmov.f32	s15, #112	@ 0x3f800000  1.0
 800728e:	ee37 8ac0 	vsub.f32	s16, s15, s0
 8007292:	eeb6 7a00 	vmov.f32	s14, #96	@ 0x3f000000  0.5
 8007296:	ee28 8a07 	vmul.f32	s16, s16, s14
 800729a:	eddf 6a58 	vldr	s13, [pc, #352]	@ 80073fc <__ieee754_asinf+0x1b8>
 800729e:	ed9f 7a58 	vldr	s14, [pc, #352]	@ 8007400 <__ieee754_asinf+0x1bc>
 80072a2:	ed9f 6a58 	vldr	s12, [pc, #352]	@ 8007404 <__ieee754_asinf+0x1c0>
 80072a6:	ed9f 5a58 	vldr	s10, [pc, #352]	@ 8007408 <__ieee754_asinf+0x1c4>
 80072aa:	eddf 5a58 	vldr	s11, [pc, #352]	@ 800740c <__ieee754_asinf+0x1c8>
 80072ae:	eddf 8a58 	vldr	s17, [pc, #352]	@ 8007410 <__ieee754_asinf+0x1cc>
 80072b2:	eee8 6a07 	vfma.f32	s13, s16, s14
 80072b6:	ed9f 7a57 	vldr	s14, [pc, #348]	@ 8007414 <__ieee754_asinf+0x1d0>
 80072ba:	eea8 7a06 	vfma.f32	s14, s16, s12
 80072be:	eea6 5a88 	vfma.f32	s10, s13, s16
 80072c2:	ed9f 6a55 	vldr	s12, [pc, #340]	@ 8007418 <__ieee754_asinf+0x1d4>
 80072c6:	eddf 6a55 	vldr	s13, [pc, #340]	@ 800741c <__ieee754_asinf+0x1d8>
 80072ca:	eea7 6a08 	vfma.f32	s12, s14, s16
 80072ce:	eee5 5a08 	vfma.f32	s11, s10, s16
 80072d2:	ed9f 7a53 	vldr	s14, [pc, #332]	@ 8007420 <__ieee754_asinf+0x1dc>
 80072d6:	eea6 7a08 	vfma.f32	s14, s12, s16
 80072da:	eee5 6a88 	vfma.f32	s13, s11, s16
 80072de:	eee7 7a08 	vfma.f32	s15, s14, s16
 80072e2:	eee6 8a88 	vfma.f32	s17, s13, s16
 80072e6:	eeb0 0a48 	vmov.f32	s0, s16
 80072ea:	eeb0 9a67 	vmov.f32	s18, s15
 80072ee:	f000 f949 	bl	8007584 <__ieee754_sqrtf>
 80072f2:	4b4c      	ldr	r3, [pc, #304]	@ (8007424 <__ieee754_asinf+0x1e0>)
 80072f4:	ee68 8a88 	vmul.f32	s17, s17, s16
 80072f8:	429c      	cmp	r4, r3
 80072fa:	ee88 6a89 	vdiv.f32	s12, s17, s18
 80072fe:	d838      	bhi.n	8007372 <__ieee754_asinf+0x12e>
 8007300:	ee10 3a10 	vmov	r3, s0
 8007304:	f36f 030b 	bfc	r3, #0, #12
 8007308:	ee06 3a90 	vmov	s13, r3
 800730c:	eea6 8ae6 	vfms.f32	s16, s13, s13
 8007310:	ee70 7a26 	vadd.f32	s15, s0, s13
 8007314:	ed9f 7a44 	vldr	s14, [pc, #272]	@ 8007428 <__ieee754_asinf+0x1e4>
 8007318:	eec8 4a27 	vdiv.f32	s9, s16, s15
 800731c:	eef0 5a00 	vmov.f32	s11, #0	@ 0x40000000  2.0
 8007320:	eea4 7ae5 	vfms.f32	s14, s9, s11
 8007324:	eddf 7a41 	vldr	s15, [pc, #260]	@ 800742c <__ieee754_asinf+0x1e8>
 8007328:	ee30 0a00 	vadd.f32	s0, s0, s0
 800732c:	eeb0 5a67 	vmov.f32	s10, s15
 8007330:	ee90 7a06 	vfnms.f32	s14, s0, s12
 8007334:	eea6 5ae5 	vfms.f32	s10, s13, s11
 8007338:	ee37 7a45 	vsub.f32	s14, s14, s10
 800733c:	ee37 0ac7 	vsub.f32	s0, s15, s14
 8007340:	2d00      	cmp	r5, #0
 8007342:	dc01      	bgt.n	8007348 <__ieee754_asinf+0x104>
 8007344:	eeb1 0a40 	vneg.f32	s0, s0
 8007348:	ecbd 8b04 	vpop	{d8-d9}
 800734c:	bd38      	pop	{r3, r4, r5, pc}
 800734e:	ecbd 8b04 	vpop	{d8-d9}
 8007352:	ee70 7a40 	vsub.f32	s15, s0, s0
 8007356:	ee87 0aa7 	vdiv.f32	s0, s15, s15
 800735a:	bd38      	pop	{r3, r4, r5, pc}
 800735c:	ecbd 8b04 	vpop	{d8-d9}
 8007360:	ed9f 0a31 	vldr	s0, [pc, #196]	@ 8007428 <__ieee754_asinf+0x1e4>
 8007364:	ed9f 7a32 	vldr	s14, [pc, #200]	@ 8007430 <__ieee754_asinf+0x1ec>
 8007368:	ee27 0a80 	vmul.f32	s0, s15, s0
 800736c:	eea7 0a87 	vfma.f32	s0, s15, s14
 8007370:	bd38      	pop	{r3, r4, r5, pc}
 8007372:	eea0 0a06 	vfma.f32	s0, s0, s12
 8007376:	ed9f 7a2f 	vldr	s14, [pc, #188]	@ 8007434 <__ieee754_asinf+0x1f0>
 800737a:	eddf 7a2d 	vldr	s15, [pc, #180]	@ 8007430 <__ieee754_asinf+0x1ec>
 800737e:	eef0 6a00 	vmov.f32	s13, #0	@ 0x40000000  2.0
 8007382:	eea0 7a26 	vfma.f32	s14, s0, s13
 8007386:	ee37 0ac7 	vsub.f32	s0, s15, s14
 800738a:	e7d9      	b.n	8007340 <__ieee754_asinf+0xfc>
 800738c:	ee20 7a00 	vmul.f32	s14, s0, s0
 8007390:	eddf 6a1b 	vldr	s13, [pc, #108]	@ 8007400 <__ieee754_asinf+0x1bc>
 8007394:	ed9f 6a19 	vldr	s12, [pc, #100]	@ 80073fc <__ieee754_asinf+0x1b8>
 8007398:	eddf 5a1b 	vldr	s11, [pc, #108]	@ 8007408 <__ieee754_asinf+0x1c4>
 800739c:	ed9f 5a19 	vldr	s10, [pc, #100]	@ 8007404 <__ieee754_asinf+0x1c0>
 80073a0:	eddf 4a1a 	vldr	s9, [pc, #104]	@ 800740c <__ieee754_asinf+0x1c8>
 80073a4:	eea7 6a26 	vfma.f32	s12, s14, s13
 80073a8:	ecbd 8b04 	vpop	{d8-d9}
 80073ac:	eee6 5a07 	vfma.f32	s11, s12, s14
 80073b0:	eddf 6a18 	vldr	s13, [pc, #96]	@ 8007414 <__ieee754_asinf+0x1d0>
 80073b4:	ed9f 6a18 	vldr	s12, [pc, #96]	@ 8007418 <__ieee754_asinf+0x1d4>
 80073b8:	eee7 6a05 	vfma.f32	s13, s14, s10
 80073bc:	eee5 4a87 	vfma.f32	s9, s11, s14
 80073c0:	eea6 6a87 	vfma.f32	s12, s13, s14
 80073c4:	ed9f 5a15 	vldr	s10, [pc, #84]	@ 800741c <__ieee754_asinf+0x1d8>
 80073c8:	eddf 5a15 	vldr	s11, [pc, #84]	@ 8007420 <__ieee754_asinf+0x1dc>
 80073cc:	eddf 6a10 	vldr	s13, [pc, #64]	@ 8007410 <__ieee754_asinf+0x1cc>
 80073d0:	eea4 5a87 	vfma.f32	s10, s9, s14
 80073d4:	eee6 5a07 	vfma.f32	s11, s12, s14
 80073d8:	eee5 6a07 	vfma.f32	s13, s10, s14
 80073dc:	eeb7 6a00 	vmov.f32	s12, #112	@ 0x3f800000  1.0
 80073e0:	eea5 6a87 	vfma.f32	s12, s11, s14
 80073e4:	ee26 7a87 	vmul.f32	s14, s13, s14
 80073e8:	eec7 6a06 	vdiv.f32	s13, s14, s12
 80073ec:	eee0 7a26 	vfma.f32	s15, s0, s13
 80073f0:	eeb0 0a67 	vmov.f32	s0, s15
 80073f4:	bd38      	pop	{r3, r4, r5, pc}
 80073f6:	bf00      	nop
 80073f8:	7149f2ca 	.word	0x7149f2ca
 80073fc:	3a4f7f04 	.word	0x3a4f7f04
 8007400:	3811ef08 	.word	0x3811ef08
 8007404:	3d9dc62e 	.word	0x3d9dc62e
 8007408:	bd241146 	.word	0xbd241146
 800740c:	3e4e0aa8 	.word	0x3e4e0aa8
 8007410:	3e2aaaab 	.word	0x3e2aaaab
 8007414:	bf303361 	.word	0xbf303361
 8007418:	4001572d 	.word	0x4001572d
 800741c:	bea6b090 	.word	0xbea6b090
 8007420:	c019d139 	.word	0xc019d139
 8007424:	3f799999 	.word	0x3f799999
 8007428:	b33bbd2e 	.word	0xb33bbd2e
 800742c:	3f490fdb 	.word	0x3f490fdb
 8007430:	3fc90fdb 	.word	0x3fc90fdb
 8007434:	333bbd2e 	.word	0x333bbd2e

08007438 <__ieee754_atan2f>:
 8007438:	b510      	push	{r4, lr}
 800743a:	b082      	sub	sp, #8
 800743c:	edcd 0a01 	vstr	s1, [sp, #4]
 8007440:	9b01      	ldr	r3, [sp, #4]
 8007442:	f023 4200 	bic.w	r2, r3, #2147483648	@ 0x80000000
 8007446:	f1b2 4fff 	cmp.w	r2, #2139095040	@ 0x7f800000
 800744a:	eef0 7a40 	vmov.f32	s15, s0
 800744e:	d830      	bhi.n	80074b2 <__ieee754_atan2f+0x7a>
 8007450:	ee10 0a10 	vmov	r0, s0
 8007454:	f020 4100 	bic.w	r1, r0, #2147483648	@ 0x80000000
 8007458:	f1b1 4fff 	cmp.w	r1, #2139095040	@ 0x7f800000
 800745c:	d829      	bhi.n	80074b2 <__ieee754_atan2f+0x7a>
 800745e:	f1b3 5f7e 	cmp.w	r3, #1065353216	@ 0x3f800000
 8007462:	d03e      	beq.n	80074e2 <__ieee754_atan2f+0xaa>
 8007464:	179c      	asrs	r4, r3, #30
 8007466:	f004 0402 	and.w	r4, r4, #2
 800746a:	ea44 74d0 	orr.w	r4, r4, r0, lsr #31
 800746e:	b331      	cbz	r1, 80074be <__ieee754_atan2f+0x86>
 8007470:	b37a      	cbz	r2, 80074d2 <__ieee754_atan2f+0x9a>
 8007472:	f1b2 4fff 	cmp.w	r2, #2139095040	@ 0x7f800000
 8007476:	d03f      	beq.n	80074f8 <__ieee754_atan2f+0xc0>
 8007478:	f1b1 4fff 	cmp.w	r1, #2139095040	@ 0x7f800000
 800747c:	d029      	beq.n	80074d2 <__ieee754_atan2f+0x9a>
 800747e:	1a89      	subs	r1, r1, r2
 8007480:	f1b1 5ff4 	cmp.w	r1, #511705088	@ 0x1e800000
 8007484:	ea4f 52e1 	mov.w	r2, r1, asr #23
 8007488:	da33      	bge.n	80074f2 <__ieee754_atan2f+0xba>
 800748a:	2b00      	cmp	r3, #0
 800748c:	da41      	bge.n	8007512 <__ieee754_atan2f+0xda>
 800748e:	323c      	adds	r2, #60	@ 0x3c
 8007490:	da3f      	bge.n	8007512 <__ieee754_atan2f+0xda>
 8007492:	ed9f 0a33 	vldr	s0, [pc, #204]	@ 8007560 <__ieee754_atan2f+0x128>
 8007496:	2c01      	cmp	r4, #1
 8007498:	d04d      	beq.n	8007536 <__ieee754_atan2f+0xfe>
 800749a:	2c02      	cmp	r4, #2
 800749c:	d042      	beq.n	8007524 <__ieee754_atan2f+0xec>
 800749e:	b164      	cbz	r4, 80074ba <__ieee754_atan2f+0x82>
 80074a0:	ed9f 7a30 	vldr	s14, [pc, #192]	@ 8007564 <__ieee754_atan2f+0x12c>
 80074a4:	eddf 7a30 	vldr	s15, [pc, #192]	@ 8007568 <__ieee754_atan2f+0x130>
 80074a8:	ee30 0a07 	vadd.f32	s0, s0, s14
 80074ac:	ee30 0a67 	vsub.f32	s0, s0, s15
 80074b0:	e003      	b.n	80074ba <__ieee754_atan2f+0x82>
 80074b2:	ed9d 7a01 	vldr	s14, [sp, #4]
 80074b6:	ee37 0a27 	vadd.f32	s0, s14, s15
 80074ba:	b002      	add	sp, #8
 80074bc:	bd10      	pop	{r4, pc}
 80074be:	2c02      	cmp	r4, #2
 80074c0:	d00c      	beq.n	80074dc <__ieee754_atan2f+0xa4>
 80074c2:	ed9f 7a2a 	vldr	s14, [pc, #168]	@ 800756c <__ieee754_atan2f+0x134>
 80074c6:	2c03      	cmp	r4, #3
 80074c8:	bf08      	it	eq
 80074ca:	eeb0 0a47 	vmoveq.f32	s0, s14
 80074ce:	b002      	add	sp, #8
 80074d0:	bd10      	pop	{r4, pc}
 80074d2:	2800      	cmp	r0, #0
 80074d4:	db0a      	blt.n	80074ec <__ieee754_atan2f+0xb4>
 80074d6:	ed9f 0a26 	vldr	s0, [pc, #152]	@ 8007570 <__ieee754_atan2f+0x138>
 80074da:	e7ee      	b.n	80074ba <__ieee754_atan2f+0x82>
 80074dc:	ed9f 0a22 	vldr	s0, [pc, #136]	@ 8007568 <__ieee754_atan2f+0x130>
 80074e0:	e7eb      	b.n	80074ba <__ieee754_atan2f+0x82>
 80074e2:	b002      	add	sp, #8
 80074e4:	e8bd 4010 	ldmia.w	sp!, {r4, lr}
 80074e8:	f000 b850 	b.w	800758c <atanf>
 80074ec:	ed9f 0a21 	vldr	s0, [pc, #132]	@ 8007574 <__ieee754_atan2f+0x13c>
 80074f0:	e7e3      	b.n	80074ba <__ieee754_atan2f+0x82>
 80074f2:	ed9f 0a1f 	vldr	s0, [pc, #124]	@ 8007570 <__ieee754_atan2f+0x138>
 80074f6:	e7ce      	b.n	8007496 <__ieee754_atan2f+0x5e>
 80074f8:	f1b1 4fff 	cmp.w	r1, #2139095040	@ 0x7f800000
 80074fc:	f104 34ff 	add.w	r4, r4, #4294967295	@ 0xffffffff
 8007500:	d020      	beq.n	8007544 <__ieee754_atan2f+0x10c>
 8007502:	2c02      	cmp	r4, #2
 8007504:	d826      	bhi.n	8007554 <__ieee754_atan2f+0x11c>
 8007506:	4b1c      	ldr	r3, [pc, #112]	@ (8007578 <__ieee754_atan2f+0x140>)
 8007508:	eb03 0384 	add.w	r3, r3, r4, lsl #2
 800750c:	ed93 0a00 	vldr	s0, [r3]
 8007510:	e7d3      	b.n	80074ba <__ieee754_atan2f+0x82>
 8007512:	ed9d 7a01 	vldr	s14, [sp, #4]
 8007516:	ee87 0a87 	vdiv.f32	s0, s15, s14
 800751a:	f7ff fe85 	bl	8007228 <fabsf>
 800751e:	f000 f835 	bl	800758c <atanf>
 8007522:	e7b8      	b.n	8007496 <__ieee754_atan2f+0x5e>
 8007524:	ed9f 7a0f 	vldr	s14, [pc, #60]	@ 8007564 <__ieee754_atan2f+0x12c>
 8007528:	eddf 7a0f 	vldr	s15, [pc, #60]	@ 8007568 <__ieee754_atan2f+0x130>
 800752c:	ee30 0a07 	vadd.f32	s0, s0, s14
 8007530:	ee37 0ac0 	vsub.f32	s0, s15, s0
 8007534:	e7c1      	b.n	80074ba <__ieee754_atan2f+0x82>
 8007536:	ee10 3a10 	vmov	r3, s0
 800753a:	f103 4300 	add.w	r3, r3, #2147483648	@ 0x80000000
 800753e:	ee00 3a10 	vmov	s0, r3
 8007542:	e7ba      	b.n	80074ba <__ieee754_atan2f+0x82>
 8007544:	2c02      	cmp	r4, #2
 8007546:	d808      	bhi.n	800755a <__ieee754_atan2f+0x122>
 8007548:	4b0c      	ldr	r3, [pc, #48]	@ (800757c <__ieee754_atan2f+0x144>)
 800754a:	eb03 0384 	add.w	r3, r3, r4, lsl #2
 800754e:	ed93 0a00 	vldr	s0, [r3]
 8007552:	e7b2      	b.n	80074ba <__ieee754_atan2f+0x82>
 8007554:	ed9f 0a02 	vldr	s0, [pc, #8]	@ 8007560 <__ieee754_atan2f+0x128>
 8007558:	e7af      	b.n	80074ba <__ieee754_atan2f+0x82>
 800755a:	ed9f 0a09 	vldr	s0, [pc, #36]	@ 8007580 <__ieee754_atan2f+0x148>
 800755e:	e7ac      	b.n	80074ba <__ieee754_atan2f+0x82>
 8007560:	00000000 	.word	0x00000000
 8007564:	33bbbd2e 	.word	0x33bbbd2e
 8007568:	40490fdb 	.word	0x40490fdb
 800756c:	c0490fdb 	.word	0xc0490fdb
 8007570:	3fc90fdb 	.word	0x3fc90fdb
 8007574:	bfc90fdb 	.word	0xbfc90fdb
 8007578:	080077f0 	.word	0x080077f0
 800757c:	080077fc 	.word	0x080077fc
 8007580:	3f490fdb 	.word	0x3f490fdb

08007584 <__ieee754_sqrtf>:
 8007584:	eeb1 0ac0 	vsqrt.f32	s0, s0
 8007588:	4770      	bx	lr
 800758a:	bf00      	nop

0800758c <atanf>:
 800758c:	b538      	push	{r3, r4, r5, lr}
 800758e:	ee10 5a10 	vmov	r5, s0
 8007592:	f025 4400 	bic.w	r4, r5, #2147483648	@ 0x80000000
 8007596:	f1b4 4fa1 	cmp.w	r4, #1350565888	@ 0x50800000
 800759a:	eef0 7a40 	vmov.f32	s15, s0
 800759e:	d307      	bcc.n	80075b0 <atanf+0x24>
 80075a0:	f1b4 4fff 	cmp.w	r4, #2139095040	@ 0x7f800000
 80075a4:	d855      	bhi.n	8007652 <atanf+0xc6>
 80075a6:	2d00      	cmp	r5, #0
 80075a8:	dd77      	ble.n	800769a <atanf+0x10e>
 80075aa:	ed9f 0a4e 	vldr	s0, [pc, #312]	@ 80076e4 <atanf+0x158>
 80075ae:	bd38      	pop	{r3, r4, r5, pc}
 80075b0:	4b4d      	ldr	r3, [pc, #308]	@ (80076e8 <atanf+0x15c>)
 80075b2:	429c      	cmp	r4, r3
 80075b4:	d85c      	bhi.n	8007670 <atanf+0xe4>
 80075b6:	f1b4 5f44 	cmp.w	r4, #822083584	@ 0x31000000
 80075ba:	d34d      	bcc.n	8007658 <atanf+0xcc>
 80075bc:	f04f 33ff 	mov.w	r3, #4294967295	@ 0xffffffff
 80075c0:	ee27 6aa7 	vmul.f32	s12, s15, s15
 80075c4:	ed9f 5a49 	vldr	s10, [pc, #292]	@ 80076ec <atanf+0x160>
 80075c8:	ed9f 7a49 	vldr	s14, [pc, #292]	@ 80076f0 <atanf+0x164>
 80075cc:	eddf 5a49 	vldr	s11, [pc, #292]	@ 80076f4 <atanf+0x168>
 80075d0:	eddf 4a49 	vldr	s9, [pc, #292]	@ 80076f8 <atanf+0x16c>
 80075d4:	ee66 6a06 	vmul.f32	s13, s12, s12
 80075d8:	1c5a      	adds	r2, r3, #1
 80075da:	eea6 7a85 	vfma.f32	s14, s13, s10
 80075de:	eee6 4aa5 	vfma.f32	s9, s13, s11
 80075e2:	ed9f 5a46 	vldr	s10, [pc, #280]	@ 80076fc <atanf+0x170>
 80075e6:	eddf 5a46 	vldr	s11, [pc, #280]	@ 8007700 <atanf+0x174>
 80075ea:	eea7 5a26 	vfma.f32	s10, s14, s13
 80075ee:	eee4 5aa6 	vfma.f32	s11, s9, s13
 80075f2:	ed9f 7a44 	vldr	s14, [pc, #272]	@ 8007704 <atanf+0x178>
 80075f6:	eddf 4a44 	vldr	s9, [pc, #272]	@ 8007708 <atanf+0x17c>
 80075fa:	eea5 7a26 	vfma.f32	s14, s10, s13
 80075fe:	eee5 4aa6 	vfma.f32	s9, s11, s13
 8007602:	ed9f 5a42 	vldr	s10, [pc, #264]	@ 800770c <atanf+0x180>
 8007606:	eddf 5a42 	vldr	s11, [pc, #264]	@ 8007710 <atanf+0x184>
 800760a:	eea7 5a26 	vfma.f32	s10, s14, s13
 800760e:	ed9f 7a41 	vldr	s14, [pc, #260]	@ 8007714 <atanf+0x188>
 8007612:	eea4 7aa6 	vfma.f32	s14, s9, s13
 8007616:	eee5 5a26 	vfma.f32	s11, s10, s13
 800761a:	ee27 7a26 	vmul.f32	s14, s14, s13
 800761e:	eea5 7a86 	vfma.f32	s14, s11, s12
 8007622:	ee27 7a87 	vmul.f32	s14, s15, s14
 8007626:	d03b      	beq.n	80076a0 <atanf+0x114>
 8007628:	493b      	ldr	r1, [pc, #236]	@ (8007718 <atanf+0x18c>)
 800762a:	4a3c      	ldr	r2, [pc, #240]	@ (800771c <atanf+0x190>)
 800762c:	eb01 0183 	add.w	r1, r1, r3, lsl #2
 8007630:	edd1 6a00 	vldr	s13, [r1]
 8007634:	ee37 7a66 	vsub.f32	s14, s14, s13
 8007638:	eb02 0383 	add.w	r3, r2, r3, lsl #2
 800763c:	edd3 6a00 	vldr	s13, [r3]
 8007640:	ee37 7a67 	vsub.f32	s14, s14, s15
 8007644:	2d00      	cmp	r5, #0
 8007646:	ee36 0ac7 	vsub.f32	s0, s13, s14
 800764a:	dab0      	bge.n	80075ae <atanf+0x22>
 800764c:	eeb1 0a40 	vneg.f32	s0, s0
 8007650:	bd38      	pop	{r3, r4, r5, pc}
 8007652:	ee30 0a00 	vadd.f32	s0, s0, s0
 8007656:	bd38      	pop	{r3, r4, r5, pc}
 8007658:	ed9f 7a31 	vldr	s14, [pc, #196]	@ 8007720 <atanf+0x194>
 800765c:	ee30 7a07 	vadd.f32	s14, s0, s14
 8007660:	eef7 6a00 	vmov.f32	s13, #112	@ 0x3f800000  1.0
 8007664:	eeb4 7ae6 	vcmpe.f32	s14, s13
 8007668:	eef1 fa10 	vmrs	APSR_nzcv, fpscr
 800766c:	dda6      	ble.n	80075bc <atanf+0x30>
 800766e:	bd38      	pop	{r3, r4, r5, pc}
 8007670:	f7ff fdda 	bl	8007228 <fabsf>
 8007674:	4b2b      	ldr	r3, [pc, #172]	@ (8007724 <atanf+0x198>)
 8007676:	429c      	cmp	r4, r3
 8007678:	d815      	bhi.n	80076a6 <atanf+0x11a>
 800767a:	f5a3 03d0 	sub.w	r3, r3, #6815744	@ 0x680000
 800767e:	429c      	cmp	r4, r3
 8007680:	d826      	bhi.n	80076d0 <atanf+0x144>
 8007682:	eef0 7a00 	vmov.f32	s15, #0	@ 0x40000000  2.0
 8007686:	eebf 7a00 	vmov.f32	s14, #240	@ 0xbf800000 -1.0
 800768a:	eea0 7a27 	vfma.f32	s14, s0, s15
 800768e:	2300      	movs	r3, #0
 8007690:	ee30 0a27 	vadd.f32	s0, s0, s15
 8007694:	eec7 7a00 	vdiv.f32	s15, s14, s0
 8007698:	e792      	b.n	80075c0 <atanf+0x34>
 800769a:	ed9f 0a23 	vldr	s0, [pc, #140]	@ 8007728 <atanf+0x19c>
 800769e:	bd38      	pop	{r3, r4, r5, pc}
 80076a0:	ee37 0ac7 	vsub.f32	s0, s15, s14
 80076a4:	bd38      	pop	{r3, r4, r5, pc}
 80076a6:	4b21      	ldr	r3, [pc, #132]	@ (800772c <atanf+0x1a0>)
 80076a8:	429c      	cmp	r4, r3
 80076aa:	d80b      	bhi.n	80076c4 <atanf+0x138>
 80076ac:	eef7 7a08 	vmov.f32	s15, #120	@ 0x3fc00000  1.5
 80076b0:	eeb7 7a00 	vmov.f32	s14, #112	@ 0x3f800000  1.0
 80076b4:	eea0 7a27 	vfma.f32	s14, s0, s15
 80076b8:	2302      	movs	r3, #2
 80076ba:	ee30 0a67 	vsub.f32	s0, s0, s15
 80076be:	eec0 7a07 	vdiv.f32	s15, s0, s14
 80076c2:	e77d      	b.n	80075c0 <atanf+0x34>
 80076c4:	eebf 7a00 	vmov.f32	s14, #240	@ 0xbf800000 -1.0
 80076c8:	eec7 7a00 	vdiv.f32	s15, s14, s0
 80076cc:	2303      	movs	r3, #3
 80076ce:	e777      	b.n	80075c0 <atanf+0x34>
 80076d0:	eef7 7a00 	vmov.f32	s15, #112	@ 0x3f800000  1.0
 80076d4:	ee30 7a67 	vsub.f32	s14, s0, s15
 80076d8:	ee30 0a27 	vadd.f32	s0, s0, s15
 80076dc:	2301      	movs	r3, #1
 80076de:	eec7 7a00 	vdiv.f32	s15, s14, s0
 80076e2:	e76d      	b.n	80075c0 <atanf+0x34>
 80076e4:	3fc90fdb 	.word	0x3fc90fdb
 80076e8:	3edfffff 	.word	0x3edfffff
 80076ec:	3c8569d7 	.word	0x3c8569d7
 80076f0:	3d4bda59 	.word	0x3d4bda59
 80076f4:	bd15a221 	.word	0xbd15a221
 80076f8:	bd6ef16b 	.word	0xbd6ef16b
 80076fc:	3d886b35 	.word	0x3d886b35
 8007700:	bd9d8795 	.word	0xbd9d8795
 8007704:	3dba2e6e 	.word	0x3dba2e6e
 8007708:	bde38e38 	.word	0xbde38e38
 800770c:	3e124925 	.word	0x3e124925
 8007710:	3eaaaaab 	.word	0x3eaaaaab
 8007714:	be4ccccd 	.word	0xbe4ccccd
 8007718:	08007808 	.word	0x08007808
 800771c:	08007818 	.word	0x08007818
 8007720:	7149f2ca 	.word	0x7149f2ca
 8007724:	3f97ffff 	.word	0x3f97ffff
 8007728:	bfc90fdb 	.word	0xbfc90fdb
 800772c:	401bffff 	.word	0x401bffff

08007730 <_init>:
 8007730:	b5f8      	push	{r3, r4, r5, r6, r7, lr}
 8007732:	bf00      	nop
 8007734:	bcf8      	pop	{r3, r4, r5, r6, r7}
 8007736:	bc08      	pop	{r3}
 8007738:	469e      	mov	lr, r3
 800773a:	4770      	bx	lr

0800773c <_fini>:
 800773c:	b5f8      	push	{r3, r4, r5, r6, r7, lr}
 800773e:	bf00      	nop
 8007740:	bcf8      	pop	{r3, r4, r5, r6, r7}
 8007742:	bc08      	pop	{r3}
 8007744:	469e      	mov	lr, r3
 8007746:	4770      	bx	lr
